 libvips-cpp

 Timestamp is 5c01ca32 (Fri Nov 30 18:39:30 2018)

 Preferred load address is 0000000180000000

 Start         Length     Name                   Class
 0001:00000000 000002a0H .text                   CODE
 0001:000002a0 000365b0H .text$mn                CODE
 0001:00036850 00000020H .text$mn$00             CODE
 0001:00036870 00000e30H .text$x                 CODE
 0002:00000000 000004e8H .idata$5                DATA
 0002:000004e8 00000010H .00cfg                  DATA
 0002:000004f8 00000008H .CRT$XCA                DATA
 0002:00000500 00000008H .CRT$XCZ                DATA
 0002:00000508 00000008H .CRT$XIA                DATA
 0002:00000510 00000020H .CRT$XIC                DATA
 0002:00000530 00000008H .CRT$XIZ                DATA
 0002:00000538 00000008H .CRT$XPA                DATA
 0002:00000540 00000010H .CRT$XPX                DATA
 0002:00000550 00000008H .CRT$XPXA               DATA
 0002:00000558 00000008H .CRT$XPZ                DATA
 0002:00000560 00000008H .CRT$XTA                DATA
 0002:00000568 00000008H .CRT$XTZ                DATA
 0002:00000570 00000000H .gfids$y                DATA
 0002:00000570 0000cff0H .rdata                  DATA
 0002:0000d560 00000484H .rdata$r                DATA
 0002:0000d9e4 0000037cH .rdata$zzzdbg           DATA
 0002:0000dd60 00000008H .rtc$IAA                DATA
 0002:0000dd68 00000008H .rtc$IZZ                DATA
 0002:0000dd70 00000008H .rtc$TAA                DATA
 0002:0000dd78 00000008H .rtc$TZZ                DATA
 0002:0000dd80 000053d0H .xdata                  DATA
 0002:00013150 00000270H .xdata$x                DATA
 0002:000133c0 00007a04H .edata                  DATA
 0002:0001adc4 00000050H .idata$2                DATA
 0002:0001ae14 00000014H .idata$3                DATA
 0002:0001ae28 000004e8H .idata$4                DATA
 0002:0001b310 00000d14H .idata$6                DATA
 0002:0001c024 0000018cH .idata$7                DATA
 0003:00000000 000008e0H .data                   DATA
 0003:000008e0 000001c0H .data$r                 DATA
 0003:00000aa0 00001358H .bss                    DATA
 0004:00000000 00002bd4H .pdata                  DATA
 0005:00000000 00000060H .rsrc$01                DATA
 0005:00000060 00000180H .rsrc$02                DATA

  Address         Publics by Value              Rva+Base               Lib:Object

 0000:00000000       __guard_longjmp_count      0000000000000000     <absolute>
 0000:00000000       __guard_iat_table          0000000000000000     <absolute>
 0000:00000000       __volatile_metadata        0000000000000000     <absolute>
 0000:00000000       __guard_longjmp_table      0000000000000000     <absolute>
 0000:00000000       ___safe_se_handler_count   0000000000000000     <absolute>
 0000:00000000       __guard_fids_count         0000000000000000     <absolute>
 0000:00000000       __enclave_config           0000000000000000     <absolute>
 0000:00000000       __hybrid_code_map_count    0000000000000000     <absolute>
 0000:00000000       __hybrid_code_map          0000000000000000     <absolute>
 0000:00000000       ___safe_se_handler_table   0000000000000000     <absolute>
 0000:00000000       __guard_fids_table         0000000000000000     <absolute>
 0000:00000000       __guard_iat_count          0000000000000000     <absolute>
 0000:00000000       __hybrid_auxiliary_iat     0000000000000000     <absolute>
 0000:00000000       __dynamic_value_reloc_table 0000000000000000     <absolute>
 0000:00000100       __guard_flags              0000000000000100     <absolute>
 0000:00000000       __ImageBase                0000000180000000     <linker-defined>
 0001:00000000       vips_image_set_int         0000000180001000     libvips:dfijs01539.o
 0001:00000008       vips_image_new_from_memory 0000000180001008     libvips:dfijs01516.o
 0001:00000010       vips_image_set_string      0000000180001010     libvips:dfijs01542.o
 0001:00000018       vips_image_set_blob        0000000180001018     libvips:dfijs01536.o
 0001:00000020       vips_object_get_type       0000000180001020     libvips:dfijs01707.o
 0001:00000028       vips_image_get_xoffset     0000000180001028     libvips:dfijs01487.o
 0001:00000030       vips_image_get_width       0000000180001030     libvips:dfijs01486.o
 0001:00000038       vips_image_get_yres        0000000180001038     libvips:dfijs01490.o
 0001:00000040       vips_image_get_height      0000000180001040     libvips:dfijs01476.o
 0001:00000048       vips_image_new_memory      0000000180001048     libvips:dfijs01521.o
 0001:00000050       vips_image_get_filename    0000000180001050     libvips:dfijs01474.o
 0001:00000058       vips_image_get_string      0000000180001058     libvips:dfijs01483.o
 0001:00000060       vips_image_get_data        0000000180001060     libvips:dfijs01471.o
 0001:00000068       vips_image_guess_interpretation 0000000180001068     libvips:dfijs01492.o
 0001:00000070       vips_image_get_format      0000000180001070     libvips:dfijs01475.o
 0001:00000078       vips_image_get_xres        0000000180001078     libvips:dfijs01488.o
 0001:00000080       vips_image_new_from_image  0000000180001080     libvips:dfijs01514.o
 0001:00000088       vips_image_get_interpretation 0000000180001088     libvips:dfijs01479.o
 0001:00000090       vips_image_write_to_memory 0000000180001090     libvips:dfijs01550.o
 0001:00000098       vips_image_get_bands       0000000180001098     libvips:dfijs01468.o
 0001:000000a0       vips_image_get_typeof      00000001800010a0     libvips:dfijs01485.o
 0001:000000a8       vips_image_new_matrix_from_array 00000001800010a8     libvips:dfijs01519.o
 0001:000000b0       vips_image_get_coding      00000001800010b0     libvips:dfijs01470.o
 0001:000000b8       vips_error_buffer          00000001800010b8     libvips:dfijs01234.o
 0001:000000c0       vips_image_new_temp_file   00000001800010c0     libvips:dfijs01523.o
 0001:000000c8       vips_image_get_blob        00000001800010c8     libvips:dfijs01469.o
 0001:000000d0       vips_image_get_double      00000001800010d0     libvips:dfijs01472.o
 0001:000000d8       vips_image_set_double      00000001800010d8     libvips:dfijs01538.o
 0001:000000e0       vips_image_get_int         00000001800010e0     libvips:dfijs01478.o
 0001:000000e8       vips_image_get_yoffset     00000001800010e8     libvips:dfijs01489.o
 0001:000000f0       vips_interpolate_new       00000001800010f0     libvips:dfijs01572.o
 0001:000000f8       vips_interpolate_get_type  00000001800010f8     libvips:dfijs01565.o
 0001:00000100       vips_value_set_array_image 0000000180001100     libvips:dfijs02028.o
 0001:00000108       vips_value_set_array_double 0000000180001108     libvips:dfijs02027.o
 0001:00000110       vips_foreign_find_load_buffer 0000000180001110     libvips:dfijs01283.o
 0001:00000118       vips_value_get_array_int   0000000180001118     libvips:dfijs02019.o
 0001:00000120       vips_operation_new         0000000180001120     libvips:dfijs01746.o
 0001:00000128       vips_array_image_get_type  0000000180001128     libvips:dfijs00911.o
 0001:00000130       vips__filename_split8      0000000180001130     libvips:dfijs00702.o
 0001:00000138       vips_blob_new              0000000180001138     libvips:dfijs00963.o
 0001:00000140       vips_cache_operation_buildp 0000000180001140     libvips:dfijs01015.o
 0001:00000148       vips_value_set_array_int   0000000180001148     libvips:dfijs02029.o
 0001:00000150       vips_blob_get_type         0000000180001150     libvips:dfijs00962.o
 0001:00000158       vips_enum_from_nick        0000000180001158     libvips:dfijs01224.o
 0001:00000160       vips_array_double_get_type 0000000180001160     libvips:dfijs00905.o
 0001:00000168       vips_format_sizeof_unsafe  0000000180001168     libvips:dfijs01367.o
 0001:00000170       vips_value_get_array_double 0000000180001170     libvips:dfijs02017.o
 0001:00000178       vips_image_new_matrix      0000000180001178     libvips:dfijs01518.o
 0001:00000180       vips_image_get_type        0000000180001180     libvips:dfijs01484.o
 0001:00000188       vips_object_unref_outputs  0000000180001188     libvips:dfijs01731.o
 0001:00000190       vips_foreign_find_save     0000000180001190     libvips:dfijs01284.o
 0001:00000198       vips_error_clear           0000000180001198     libvips:dfijs01235.o
 0001:000001a0       vips_object_set_from_string 00000001800011a0     libvips:dfijs01724.o
 0001:000001a8       vips_value_get_array_image 00000001800011a8     libvips:dfijs02018.o
 0001:000001b0       vips_image_write           00000001800011b0     libvips:dfijs01545.o
 0001:000001b8       vips_area_unref            00000001800011b8     libvips:dfijs00891.o
 0001:000001c0       vips_foreign_find_save_buffer 00000001800011c0     libvips:dfijs01285.o
 0001:000001c8       vips_array_int_get_type    00000001800011c8     libvips:dfijs00916.o
 0001:000001d0       vips_object_get_argument   00000001800011d0     libvips:dfijs01701.o
 0001:000001d8       vips_foreign_find_load     00000001800011d8     libvips:dfijs01282.o
 0001:000001e0       g_assertion_message_expr   00000001800011e0     libglib-2.0:dzdjs00043.o
 0001:000001e8       g_log                      00000001800011e8     libglib-2.0:dzdjs00631.o
 0001:000001f0       g_object_ref               00000001800011f0     libgobject-2.0:djejs00142.o
 0001:000001f8       g_object_unref             00000001800011f8     libgobject-2.0:djejs00160.o
 0001:00000200       g_type_check_instance_is_a 0000000180001200     libgobject-2.0:djejs00277.o
 0001:00000208       g_value_init               0000000180001208     libgobject-2.0:djejs00386.o
 0001:00000210       g_value_set_object         0000000180001210     libgobject-2.0:djejs00404.o
 0001:00000218       g_value_set_boolean        0000000180001218     libgobject-2.0:djejs00391.o
 0001:00000220       g_value_get_string         0000000180001220     libgobject-2.0:djejs00379.o
 0001:00000228       g_value_set_double         0000000180001228     libgobject-2.0:djejs00395.o
 0001:00000230       g_value_set_string         0000000180001230     libgobject-2.0:djejs00412.o
 0001:00000238       g_type_check_instance_cast 0000000180001238     libgobject-2.0:djejs00276.o
 0001:00000240       g_value_get_boolean        0000000180001240     libgobject-2.0:djejs00364.o
 0001:00000248       g_value_set_boxed          0000000180001248     libgobject-2.0:djejs00392.o
 0001:00000250       g_value_get_object         0000000180001250     libgobject-2.0:djejs00375.o
 0001:00000258       g_value_set_int            0000000180001258     libgobject-2.0:djejs00401.o
 0001:00000260       g_value_dup_boxed          0000000180001260     libgobject-2.0:djejs00358.o
 0001:00000268       g_value_get_int            0000000180001268     libgobject-2.0:djejs00372.o
 0001:00000270       g_value_set_enum           0000000180001270     libgobject-2.0:djejs00396.o
 0001:00000278       g_value_get_double         0000000180001278     libgobject-2.0:djejs00367.o
 0001:00000280       g_object_get_property      0000000180001280     libgobject-2.0:djejs00127.o
 0001:00000288       g_value_unset              0000000180001288     libgobject-2.0:djejs00427.o
 0001:00000290       g_object_set_property      0000000180001290     libgobject-2.0:djejs00152.o
 0001:000002a0       ??0exception@stdext@@QEAA@AEBV01@@Z 00000001800012a0 f i VError.obj
 0001:000002c0       ??1exception@stdext@@UEAA@XZ 00000001800012c0 f i VError.obj
 0001:000002c0       ??1failure@ios_base@std@@UEAA@XZ 00000001800012c0 f i VError.obj
 0001:000002d0       ?what@exception@stdext@@UEBAPEBDXZ 00000001800012d0 f i VError.obj
 0001:000002f0       ?_Raise@exception@stdext@@QEBAXXZ 00000001800012f0 f i VError.obj
 0001:00000330       ?_Doraise@exception@stdext@@MEBAXXZ 0000000180001330 f i VError.obj
 0001:00000330       _guard_check_icall_nop     0000000180001330 f i LIBCMT:guard_support.obj
 0001:00000340       ??_Gruntime_error@std@@UEAAPEAXI@Z 0000000180001340 f i VError.obj
 0001:00000340       ??_Eexception@stdext@@UEAAPEAXI@Z 0000000180001340 f i * CIL library *:* CIL module *
 0001:00000340       ??_Eruntime_error@std@@UEAAPEAXI@Z 0000000180001340 f i * CIL library *:* CIL module *
 0001:00000340       ??_Gexception@stdext@@UEAAPEAXI@Z 0000000180001340 f i VError.obj
 0001:00000370       ?default_error_condition@error_category@std@@UEBA?AVerror_condition@2@H@Z 0000000180001370 f i VError.obj
 0001:00000380       ?equivalent@error_category@std@@UEBA_NHAEBVerror_condition@2@@Z 0000000180001380 f i VError.obj
 0001:000003c0       ?equivalent@error_category@std@@UEBA_NAEBVerror_code@2@H@Z 00000001800013c0 f i VError.obj
 0001:000003e0       ?make_error_code@std@@YA?AVerror_code@1@W4io_errc@1@@Z 00000001800013e0 f i VError.obj
 0001:00000430       ??0_System_error@std@@IEAA@Verror_code@1@AEBV?$basic_string@DU?$char_traits@D@std@@V?$allocator@D@2@@1@@Z 0000000180001430 f i VError.obj
 0001:00000630       ??_Gfailure@ios_base@std@@UEAAPEAXI@Z 0000000180001630 f i VError.obj
 0001:00000630       ??_G_System_error@std@@UEAAPEAXI@Z 0000000180001630 f i VError.obj
 0001:00000630       ??_E_System_error@std@@UEAAPEAXI@Z 0000000180001630 f i * CIL library *:* CIL module *
 0001:00000630       ??_Efailure@ios_base@std@@UEAAPEAXI@Z 0000000180001630 f i * CIL library *:* CIL module *
 0001:00000660       ?name@_Iostream_error_category@std@@UEBAPEBDXZ 0000000180001660 f i VError.obj
 0001:00000670       ?message@_Iostream_error_category@std@@UEBA?AV?$basic_string@DU?$char_traits@D@std@@V?$allocator@D@2@@2@H@Z 0000000180001670 f i VError.obj
 0001:000006f0       ??_E_Iostream_error_category@std@@UEAAPEAXI@Z 00000001800016f0 f i * CIL library *:* CIL module *
 0001:000006f0       ??_G_Iostream_error_category@std@@UEAAPEAXI@Z 00000001800016f0 f i VError.obj
 0001:00000720       ??0failure@ios_base@std@@QEAA@PEBDAEBVerror_code@2@@Z 0000000180001720 f i VError.obj
 0001:00000810       ?_Doraise@failure@ios_base@std@@MEBAXXZ 0000000180001810 f i VError.obj
 0001:00000830       ??0VError@vips@@QEAA@V?$basic_string@DU?$char_traits@D@std@@V?$allocator@D@2@@std@@@Z 0000000180001830 f i VError.obj
 0001:000008f0       ??0VError@vips@@QEAA@XZ    00000001800018f0 f i VError.obj
 0001:00000960       ??1VError@vips@@UEAA@XZ    0000000180001960 f i VError.obj
 0001:000009e0       ?what@VError@vips@@UEBAPEBDXZ 00000001800019e0 f i VError.obj
 0001:000009f0       ??0VError@vips@@QEAA@AEBV01@@Z 00000001800019f0 f i VError.obj
 0001:00000a40       ??4VError@vips@@QEAAAEAV01@AEBV01@@Z 0000000180001a40 f i VError.obj
 0001:00000a80       ??_EVError@vips@@UEAAPEAXI@Z 0000000180001a80 f i VError.obj
 0001:00000b10       ??0VObject@vips@@QEAA@PEAU_VipsObject@@W4VSteal@1@@Z 0000000180001b10 f i VError.obj
 0001:00000b90       ??4VObject@vips@@QEAAAEAV01@AEBV01@@Z 0000000180001b90 f i VError.obj
 0001:00000c60       ??0VOption@vips@@QEAA@XZ   0000000180001c60 f i VError.obj
 0001:00000cb0       ??0VOption@vips@@QEAA@AEBV01@@Z 0000000180001cb0 f i VError.obj
 0001:00000d30       ??4VOption@vips@@QEAAAEAV01@AEBV01@@Z 0000000180001d30 f i VError.obj
 0001:00000ec0       ??_EVOption@vips@@UEAAPEAXI@Z 0000000180001ec0 f i VError.obj
 0001:00000f60       ??0VImage@vips@@QEAA@PEAU_VipsImage@@W4VSteal@1@@Z 0000000180001f60 f i VError.obj
 0001:00000f60       ??0VInterpolate@vips@@QEAA@PEAU_VipsInterpolate@@W4VSteal@1@@Z 0000000180001f60 f i VError.obj
 0001:00000f80       ??0VImage@vips@@QEAA@XZ    0000000180001f80 f i VError.obj
 0001:00000f90       ?get_image@VImage@vips@@QEBAPEAU_VipsImage@@XZ 0000000180001f90 f i VError.obj
 0001:00000f90       ?get_interpolate@VInterpolate@vips@@QEBAPEAU_VipsInterpolate@@XZ 0000000180001f90 f i VError.obj
 0001:00000ff0       ?width@VImage@vips@@QEBAHXZ 0000000180001ff0 f i VError.obj
 0001:00001050       ?height@VImage@vips@@QEBAHXZ 0000000180002050 f i VError.obj
 0001:000010b0       ?bands@VImage@vips@@QEBAHXZ 00000001800020b0 f i VError.obj
 0001:00001110       ?format@VImage@vips@@QEBA?AW4VipsBandFormat@@XZ 0000000180002110 f i VError.obj
 0001:00001170       ?coding@VImage@vips@@QEBA?AW4VipsCoding@@XZ 0000000180002170 f i VError.obj
 0001:000011d0       ?interpretation@VImage@vips@@QEBA?AW4VipsInterpretation@@XZ 00000001800021d0 f i VError.obj
 0001:00001230       ?guess_interpretation@VImage@vips@@QEBA?AW4VipsInterpretation@@XZ 0000000180002230 f i VError.obj
 0001:00001290       ?xres@VImage@vips@@QEBANXZ 0000000180002290 f i VError.obj
 0001:000012f0       ?yres@VImage@vips@@QEBANXZ 00000001800022f0 f i VError.obj
 0001:00001350       ?xoffset@VImage@vips@@QEBAHXZ 0000000180002350 f i VError.obj
 0001:000013b0       ?yoffset@VImage@vips@@QEBAHXZ 00000001800023b0 f i VError.obj
 0001:00001410       ?filename@VImage@vips@@QEBAPEBDXZ 0000000180002410 f i VError.obj
 0001:00001470       ?data@VImage@vips@@QEBAPEBXXZ 0000000180002470 f i VError.obj
 0001:000014d0       ?set@VImage@vips@@QEAAXPEBDH@Z 00000001800024d0 f i VError.obj
 0001:00001550       ?set@VImage@vips@@QEAAXPEBDN@Z 0000000180002550 f i VError.obj
 0001:000015d0       ?set@VImage@vips@@QEAAXPEBD0@Z 00000001800025d0 f i VError.obj
 0001:00001650       ?set@VImage@vips@@QEAAXPEBDP6AHPEAX1@Z1_K@Z 0000000180002650 f i VError.obj
 0001:000016e0       ?get_typeof@VImage@vips@@QEBA_KPEBD@Z 00000001800026e0 f i VError.obj
 0001:00001750       ?get_int@VImage@vips@@QEBAHPEBD@Z 0000000180002750 f i VError.obj
 0001:00001800       ?get_double@VImage@vips@@QEBANPEBD@Z 0000000180002800 f i VError.obj
 0001:000018c0       ?get_string@VImage@vips@@QEBAPEBDPEBD@Z 00000001800028c0 f i VError.obj
 0001:00001970       ?get_blob@VImage@vips@@QEBAPEBXPEBDPEA_K@Z 0000000180002970 f i VError.obj
 0001:00001a20       ?option@VImage@vips@@SAPEAVVOption@2@XZ 0000000180002a20 f i VError.obj
 0001:00001a90       ?new_memory@VImage@vips@@SA?AV12@XZ 0000000180002a90 f i VError.obj
 0001:00001ac0       ?new_temp_file@VImage@vips@@SA?AV12@PEBD@Z 0000000180002ac0 f i VError.obj
 0001:00001b30       ?new_from_memory@VImage@vips@@SA?AV12@PEAX_KHHHW4VipsBandFormat@@@Z 0000000180002b30 f i VError.obj
 0001:00001bd0       ?new_matrix@VImage@vips@@SA?AV12@HHPEANH@Z 0000000180002bd0 f i VError.obj
 0001:00001c60       ?new_from_image@VImage@vips@@QEBA?AV12@V?$vector@NV?$allocator@N@std@@@std@@@Z 0000000180002c60 f i VError.obj
 0001:00001da0       ?new_from_image@VImage@vips@@QEBA?AV12@N@Z 0000000180002da0 f i VError.obj
 0001:00001de0       ?write_to_memory@VImage@vips@@QEBAPEAXPEA_K@Z 0000000180002de0 f i VError.obj
 0001:00001e90       ?linear@VImage@vips@@QEBA?AV12@NNPEAVVOption@2@@Z 0000000180002e90 f i VError.obj
 0001:00001f30       ?linear@VImage@vips@@QEBA?AV12@V?$vector@NV?$allocator@N@std@@@std@@NPEAVVOption@2@@Z 0000000180002f30 f i VError.obj
 0001:00002060       ?linear@VImage@vips@@QEBA?AV12@NV?$vector@NV?$allocator@N@std@@@std@@PEAVVOption@2@@Z 0000000180003060 f i VError.obj
 0001:000021a0       ?bandjoin@VImage@vips@@QEBA?AV12@NPEAVVOption@2@@Z 00000001800031a0 f i VError.obj
 0001:00002200       ?bandjoin@VImage@vips@@QEBA?AV12@V?$vector@NV?$allocator@N@std@@@std@@PEAVVOption@2@@Z 0000000180003200 f i VError.obj
 0001:00002300       ?fliphor@VImage@vips@@QEBA?AV12@PEAVVOption@2@@Z 0000000180003300 f i VError.obj
 0001:00002320       ?flipver@VImage@vips@@QEBA?AV12@PEAVVOption@2@@Z 0000000180003320 f i VError.obj
 0001:00002340       ?rot90@VImage@vips@@QEBA?AV12@PEAVVOption@2@@Z 0000000180003340 f i VError.obj
 0001:00002360       ?rot180@VImage@vips@@QEBA?AV12@PEAVVOption@2@@Z 0000000180003360 f i VError.obj
 0001:00002380       ?rot270@VImage@vips@@QEBA?AV12@PEAVVOption@2@@Z 0000000180003380 f i VError.obj
 0001:000023a0       ?dilate@VImage@vips@@QEBA?AV12@V12@PEAVVOption@2@@Z 00000001800033a0 f i VError.obj
 0001:000024a0       ?erode@VImage@vips@@QEBA?AV12@V12@PEAVVOption@2@@Z 00000001800034a0 f i VError.obj
 0001:00002590       ?median@VImage@vips@@QEBA?AV12@HPEAVVOption@2@@Z 0000000180003590 f i VError.obj
 0001:000025d0       ?floor@VImage@vips@@QEBA?AV12@PEAVVOption@2@@Z 00000001800035d0 f i VError.obj
 0001:000025f0       ?ceil@VImage@vips@@QEBA?AV12@PEAVVOption@2@@Z 00000001800035f0 f i VError.obj
 0001:00002610       ?rint@VImage@vips@@QEBA?AV12@PEAVVOption@2@@Z 0000000180003610 f i VError.obj
 0001:00002630       ?real@VImage@vips@@QEBA?AV12@PEAVVOption@2@@Z 0000000180003630 f i VError.obj
 0001:00002650       ?imag@VImage@vips@@QEBA?AV12@PEAVVOption@2@@Z 0000000180003650 f i VError.obj
 0001:00002670       ?polar@VImage@vips@@QEBA?AV12@PEAVVOption@2@@Z 0000000180003670 f i VError.obj
 0001:00002690       ?rect@VImage@vips@@QEBA?AV12@PEAVVOption@2@@Z 0000000180003690 f i VError.obj
 0001:000026b0       ?conj@VImage@vips@@QEBA?AV12@PEAVVOption@2@@Z 00000001800036b0 f i VError.obj
 0001:000026d0       ?sin@VImage@vips@@QEBA?AV12@PEAVVOption@2@@Z 00000001800036d0 f i VError.obj
 0001:000026f0       ?cos@VImage@vips@@QEBA?AV12@PEAVVOption@2@@Z 00000001800036f0 f i VError.obj
 0001:00002710       ?tan@VImage@vips@@QEBA?AV12@PEAVVOption@2@@Z 0000000180003710 f i VError.obj
 0001:00002730       ?asin@VImage@vips@@QEBA?AV12@PEAVVOption@2@@Z 0000000180003730 f i VError.obj
 0001:00002750       ?acos@VImage@vips@@QEBA?AV12@PEAVVOption@2@@Z 0000000180003750 f i VError.obj
 0001:00002770       ?atan@VImage@vips@@QEBA?AV12@PEAVVOption@2@@Z 0000000180003770 f i VError.obj
 0001:00002790       ?log@VImage@vips@@QEBA?AV12@PEAVVOption@2@@Z 0000000180003790 f i VError.obj
 0001:000027b0       ?log10@VImage@vips@@QEBA?AV12@PEAVVOption@2@@Z 00000001800037b0 f i VError.obj
 0001:000027d0       ?exp@VImage@vips@@QEBA?AV12@PEAVVOption@2@@Z 00000001800037d0 f i VError.obj
 0001:000027f0       ?exp10@VImage@vips@@QEBA?AV12@PEAVVOption@2@@Z 00000001800037f0 f i VError.obj
 0001:00002810       ?pow@VImage@vips@@QEBA?AV12@V12@PEAVVOption@2@@Z 0000000180003810 f i VError.obj
 0001:00002900       ?pow@VImage@vips@@QEBA?AV12@NPEAVVOption@2@@Z 0000000180003900 f i VError.obj
 0001:00002960       ?pow@VImage@vips@@QEBA?AV12@V?$vector@NV?$allocator@N@std@@@std@@PEAVVOption@2@@Z 0000000180003960 f i VError.obj
 0001:00002a60       ?wop@VImage@vips@@QEBA?AV12@V12@PEAVVOption@2@@Z 0000000180003a60 f i VError.obj
 0001:00002b60       ?wop@VImage@vips@@QEBA?AV12@NPEAVVOption@2@@Z 0000000180003b60 f i VError.obj
 0001:00002bc0       ?wop@VImage@vips@@QEBA?AV12@V?$vector@NV?$allocator@N@std@@@std@@PEAVVOption@2@@Z 0000000180003bc0 f i VError.obj
 0001:00002cc0       ?ifthenelse@VImage@vips@@QEBA?AV12@V?$vector@NV?$allocator@N@std@@@std@@V12@PEAVVOption@2@@Z 0000000180003cc0 f i VError.obj
 0001:00002e90       ?ifthenelse@VImage@vips@@QEBA?AV12@V12@V?$vector@NV?$allocator@N@std@@@std@@PEAVVOption@2@@Z 0000000180003e90 f i VError.obj
 0001:00003050       ?ifthenelse@VImage@vips@@QEBA?AV12@V?$vector@NV?$allocator@N@std@@@std@@0PEAVVOption@2@@Z 0000000180004050 f i VError.obj
 0001:00003230       ?ifthenelse@VImage@vips@@QEBA?AV12@NV12@PEAVVOption@2@@Z 0000000180004230 f i VError.obj
 0001:00003360       ?ifthenelse@VImage@vips@@QEBA?AV12@V12@NPEAVVOption@2@@Z 0000000180004360 f i VError.obj
 0001:00003480       ?ifthenelse@VImage@vips@@QEBA?AV12@NNPEAVVOption@2@@Z 0000000180004480 f i VError.obj
 0001:00003520       ??1VImage@vips@@QEAA@XZ    0000000180004520 f i VError.obj
 0001:00003520       ??1VInterpolate@vips@@QEAA@XZ 0000000180004520 f i VError.obj
 0001:00003590       ??0VInterpolate@vips@@QEAA@AEBV01@@Z 0000000180004590 f i VError.obj
 0001:00003590       ??0VImage@vips@@QEAA@AEBV01@@Z 0000000180004590 f i VError.obj
 0001:00003590       ??0VInterpolate@vips@@QEAA@$$QEAV01@@Z 0000000180004590 f i VError.obj
 0001:00003590       ??0VImage@vips@@QEAA@$$QEAV01@@Z 0000000180004590 f i VError.obj
 0001:00003600       ??4VInterpolate@vips@@QEAAAEAV01@$$QEAV01@@Z 0000000180004600 f i VError.obj
 0001:00003600       ??4VImage@vips@@QEAAAEAV01@$$QEAV01@@Z 0000000180004600 f i VError.obj
 0001:00003600       ??4VImage@vips@@QEAAAEAV01@AEBV01@@Z 0000000180004600 f i VError.obj
 0001:00003600       ??4VInterpolate@vips@@QEAAAEAV01@AEBV01@@Z 0000000180004600 f i VError.obj
 0001:00003620       ?ostream_print@VError@vips@@QEBAXAEAV?$basic_ostream@DU?$char_traits@D@std@@@std@@@Z 0000000180004620 f   VError.obj
 0001:00003640       ??1?$vector@NV?$allocator@N@std@@@std@@QEAA@XZ 0000000180004640 f i VError.obj
 0001:000036a0       ??1?$basic_string@DU?$char_traits@D@std@@V?$allocator@D@2@@std@@QEAA@XZ 00000001800046a0 f i VError.obj
 0001:00003700       ??0?$basic_string@DU?$char_traits@D@std@@V?$allocator@D@2@@std@@QEAA@AEBV01@@Z 0000000180004700 f i VError.obj
 0001:000037e0       ??1?$_List_buy@PEAUPair@VOption@vips@@V?$allocator@PEAUPair@VOption@vips@@@std@@@std@@QEAA@XZ 00000001800047e0 f i VError.obj
 0001:000037f0       ?_Buy@?$vector@NV?$allocator@N@std@@@std@@AEAA_N_K@Z 00000001800047f0 f i VError.obj
 0001:000038a0       ?assign@?$basic_string@DU?$char_traits@D@std@@V?$allocator@D@2@@std@@QEAAAEAV12@QEBD_K@Z 00000001800048a0 f i VError.obj
 0001:000039f0       ?append@?$basic_string@DU?$char_traits@D@std@@V?$allocator@D@2@@std@@QEAAAEAV12@QEBD_K@Z 00000001800049f0 f i VError.obj
 0001:00003a70       ?_Xlength@?$vector@NV?$allocator@N@std@@@std@@CAXXZ 0000000180004a70 f i VError.obj
 0001:00003a70       ?_Xlength@?$vector@VVImage@vips@@V?$allocator@VVImage@vips@@@std@@@std@@CAXXZ 0000000180004a70 f i VImage.obj
 0001:00003a70       ?_Xlength@?$vector@HV?$allocator@H@std@@@std@@CAXXZ 0000000180004a70 f i VImage.obj
 0001:00003c10       ?_Xlen@?$basic_string@DU?$char_traits@D@std@@V?$allocator@D@2@@std@@SAXXZ 0000000180004c10 f i VError.obj
 0001:00003c30       ??$_Immortalize_impl@V_Iostream_error_category@std@@@std@@YAHPEAX0PEAPEAX@Z 0000000180004c30 f i VError.obj
 0001:00003c50       ??$_Insert_string@DU?$char_traits@D@std@@_K@std@@YAAEAV?$basic_ostream@DU?$char_traits@D@std@@@0@AEAV10@QEBD_K@Z 0000000180004c50 f i VError.obj
 0001:00003ec0       ??$_Insert@AEBQEAUPair@VOption@vips@@@?$list@PEAUPair@VOption@vips@@V?$allocator@PEAUPair@VOption@vips@@@std@@@std@@QEAAXV?$_List_unchecked_const_iterator@V?$_List_val@U?$_List_simple_types@PEAUPair@VOption@vips@@@std@@@std@@U_Iterator_base0@2@@1@AEBQEAUPair@VOption@vips@@@Z 0000000180004ec0 f i VError.obj
 0001:00003f50       ??$_Insert_range@V?$_List_const_iterator@V?$_List_val@U?$_List_simple_types@PEAUPair@VOption@vips@@@std@@@std@@@std@@@?$list@PEAUPair@VOption@vips@@V?$allocator@PEAUPair@VOption@vips@@@std@@@std@@QEAAXV?$_List_unchecked_const_iterator@V?$_List_val@U?$_List_simple_types@PEAUPair@VOption@vips@@@std@@@std@@U_Iterator_base0@2@@1@V?$_List_const_iterator@V?$_List_val@U?$_List_simple_types@PEAUPair@VOption@vips@@@std@@@std@@@1@1Uforward_iterator_tag@1@@Z 0000000180004f50 f i VError.obj
 0001:00004000       ??1sentry@?$basic_ostream@DU?$char_traits@D@std@@@std@@QEAA@XZ 0000000180005000 f i VError.obj
 0001:00004080       ??0sentry@?$basic_ostream@DU?$char_traits@D@std@@@std@@QEAA@AEAV12@@Z 0000000180005080 f i VError.obj
 0001:000041c0       ?setstate@?$basic_ios@DU?$char_traits@D@std@@@std@@QEAAXH_N@Z 00000001800051c0 f i VError.obj
 0001:00004240       ??1_Sentry_base@?$basic_ostream@DU?$char_traits@D@std@@@std@@QEAA@XZ 0000000180005240 f i VError.obj
 0001:00004270       ?new_from_name@VInterpolate@vips@@SA?AV12@PEBDPEAVVOption@2@@Z 0000000180005270 f   VInterpolate.obj
 0001:00004310       ?set@VOption@vips@@QEAAPEAV12@PEBDVVInterpolate@2@@Z 0000000180005310 f   VInterpolate.obj
 0001:00004430       ?to_vectorv@vips@@YA?AV?$vector@NV?$allocator@N@std@@@std@@HZZ 0000000180005430 f   VImage.obj
 0001:000044e0       ?to_vector@vips@@YA?AV?$vector@NV?$allocator@N@std@@@std@@N@Z 00000001800054e0 f   VImage.obj
 0001:00004510       ?to_vector@vips@@YA?AV?$vector@NV?$allocator@N@std@@@std@@HQEAN@Z 0000000180005510 f   VImage.obj
 0001:00004610       ?negate@vips@@YA?AV?$vector@NV?$allocator@N@std@@@std@@V23@@Z 0000000180005610 f   VImage.obj
 0001:00004730       ?invert@vips@@YA?AV?$vector@NV?$allocator@N@std@@@std@@V23@@Z 0000000180005730 f   VImage.obj
 0001:00004850       ??1VOption@vips@@UEAA@XZ   0000000180005850 f   VImage.obj
 0001:00004910       ?set@VOption@vips@@QEAAPEAV12@PEBD_N@Z 0000000180005910 f   VImage.obj
 0001:000049a0       ?set@VOption@vips@@QEAAPEAV12@PEBDH@Z 00000001800059a0 f   VImage.obj
 0001:00004a30       ?set@VOption@vips@@QEAAPEAV12@PEBDN@Z 0000000180005a30 f   VImage.obj
 0001:00004ac0       ?set@VOption@vips@@QEAAPEAV12@PEBD0@Z 0000000180005ac0 f   VImage.obj
 0001:00004b50       ?set@VOption@vips@@QEAAPEAV12@PEBDVVImage@2@@Z 0000000180005b50 f   VImage.obj
 0001:00004c70       ?set@VOption@vips@@QEAAPEAV12@PEBDV?$vector@NV?$allocator@N@std@@@std@@@Z 0000000180005c70 f   VImage.obj
 0001:00004da0       ?set@VOption@vips@@QEAAPEAV12@PEBDV?$vector@HV?$allocator@H@std@@@std@@@Z 0000000180005da0 f   VImage.obj
 0001:00004ed0       ?set@VOption@vips@@QEAAPEAV12@PEBDV?$vector@VVImage@vips@@V?$allocator@VVImage@vips@@@std@@@std@@@Z 0000000180005ed0 f   VImage.obj
 0001:00005080       ?set@VOption@vips@@QEAAPEAV12@PEBDPEAU_VipsBlob@@@Z 0000000180006080 f   VImage.obj
 0001:00005110       ?set@VOption@vips@@QEAAPEAV12@PEBDPEA_N@Z 0000000180006110 f   VImage.obj
 0001:000051a0       ?set@VOption@vips@@QEAAPEAV12@PEBDPEAH@Z 00000001800061a0 f   VImage.obj
 0001:00005230       ?set@VOption@vips@@QEAAPEAV12@PEBDPEAN@Z 0000000180006230 f   VImage.obj
 0001:000052c0       ?set@VOption@vips@@QEAAPEAV12@PEBDPEAVVImage@2@@Z 00000001800062c0 f   VImage.obj
 0001:00005350       ?set@VOption@vips@@QEAAPEAV12@PEBDPEAV?$vector@NV?$allocator@N@std@@@std@@@Z 0000000180006350 f   VImage.obj
 0001:000053e0       ?set@VOption@vips@@QEAAPEAV12@PEBDPEAPEAU_VipsBlob@@@Z 00000001800063e0 f   VImage.obj
 0001:00005470       ?set_operation@VOption@vips@@QEAAXPEAU_VipsOperation@@@Z 0000000180006470 f   VImage.obj
 0001:00005670       ?get_operation@VOption@vips@@QEAAXPEAU_VipsOperation@@@Z 0000000180006670 f   VImage.obj
 0001:00005890       ?call_option_string@VImage@vips@@SAXPEBD0PEAVVOption@2@@Z 0000000180006890 f   VImage.obj
 0001:00005a30       ?call@VImage@vips@@SAXPEBDPEAVVOption@2@@Z 0000000180006a30 f   VImage.obj
 0001:00005a40       ?new_from_file@VImage@vips@@SA?AV12@PEBDPEAVVOption@2@@Z 0000000180006a40 f   VImage.obj
 0001:00005c00       ?new_from_buffer@VImage@vips@@SA?AV12@PEAX_KPEBDPEAVVOption@2@@Z 0000000180006c00 f   VImage.obj
 0001:00005d70       ?new_matrix@VImage@vips@@SA?AV12@HH@Z 0000000180006d70 f   VImage.obj
 0001:00005da0       ?new_matrixv@VImage@vips@@SA?AV12@HHZZ 0000000180006da0 f   VImage.obj
 0001:00005ee0       ?write@VImage@vips@@QEBA?AV12@V12@@Z 0000000180006ee0 f   VImage.obj
 0001:00006080       ?write_to_file@VImage@vips@@QEBAXPEBDPEAVVOption@2@@Z 0000000180007080 f   VImage.obj
 0001:00006210       ?write_to_buffer@VImage@vips@@QEBAXPEBDPEAPEAXPEA_KPEAVVOption@2@@Z 0000000180007210 f   VImage.obj
 0001:000063f0       ?system@VImage@vips@@SAXPEADPEAVVOption@2@@Z 00000001800073f0 f   VImage.obj
 0001:000064a0       ?add@VImage@vips@@QEBA?AV12@V12@PEAVVOption@2@@Z 00000001800074a0 f   VImage.obj
 0001:000066a0       ?subtract@VImage@vips@@QEBA?AV12@V12@PEAVVOption@2@@Z 00000001800076a0 f   VImage.obj
 0001:000068a0       ?multiply@VImage@vips@@QEBA?AV12@V12@PEAVVOption@2@@Z 00000001800078a0 f   VImage.obj
 0001:00006aa0       ?divide@VImage@vips@@QEBA?AV12@V12@PEAVVOption@2@@Z 0000000180007aa0 f   VImage.obj
 0001:00006ca0       ?relational@VImage@vips@@QEBA?AV12@V12@W4VipsOperationRelational@@PEAVVOption@2@@Z 0000000180007ca0 f   VImage.obj
 0001:00006f10       ?remainder@VImage@vips@@QEBA?AV12@V12@PEAVVOption@2@@Z 0000000180007f10 f   VImage.obj
 0001:00007110       ?boolean@VImage@vips@@QEBA?AV12@V12@W4VipsOperationBoolean@@PEAVVOption@2@@Z 0000000180008110 f   VImage.obj
 0001:00007380       ?math2@VImage@vips@@QEBA?AV12@V12@W4VipsOperationMath2@@PEAVVOption@2@@Z 0000000180008380 f   VImage.obj
 0001:000075f0       ?complex2@VImage@vips@@QEBA?AV12@V12@W4VipsOperationComplex2@@PEAVVOption@2@@Z 00000001800085f0 f   VImage.obj
 0001:00007860       ?complexform@VImage@vips@@QEBA?AV12@V12@PEAVVOption@2@@Z 0000000180008860 f   VImage.obj
 0001:00007a60       ?sum@VImage@vips@@SA?AV12@V?$vector@VVImage@vips@@V?$allocator@VVImage@vips@@@std@@@std@@PEAVVOption@2@@Z 0000000180008a60 f   VImage.obj
 0001:00007ba0       ?invert@VImage@vips@@QEBA?AV12@PEAVVOption@2@@Z 0000000180008ba0 f   VImage.obj
 0001:00007cd0       ?linear@VImage@vips@@QEBA?AV12@V?$vector@NV?$allocator@N@std@@@std@@0PEAVVOption@2@@Z 0000000180008cd0 f   VImage.obj
 0001:00007f80       ?math@VImage@vips@@QEBA?AV12@W4VipsOperationMath@@PEAVVOption@2@@Z 0000000180008f80 f   VImage.obj
 0001:00008130       ?abs@VImage@vips@@QEBA?AV12@PEAVVOption@2@@Z 0000000180009130 f   VImage.obj
 0001:00008260       ?sign@VImage@vips@@QEBA?AV12@PEAVVOption@2@@Z 0000000180009260 f   VImage.obj
 0001:00008390       ?round@VImage@vips@@QEBA?AV12@W4VipsOperationRound@@PEAVVOption@2@@Z 0000000180009390 f   VImage.obj
 0001:00008540       ?relational_const@VImage@vips@@QEBA?AV12@W4VipsOperationRelational@@V?$vector@NV?$allocator@N@std@@@std@@PEAVVOption@2@@Z 0000000180009540 f   VImage.obj
 0001:000087c0       ?remainder_const@VImage@vips@@QEBA?AV12@V?$vector@NV?$allocator@N@std@@@std@@PEAVVOption@2@@Z 00000001800097c0 f   VImage.obj
 0001:000089c0       ?boolean_const@VImage@vips@@QEBA?AV12@W4VipsOperationBoolean@@V?$vector@NV?$allocator@N@std@@@std@@PEAVVOption@2@@Z 00000001800099c0 f   VImage.obj
 0001:00008c40       ?math2_const@VImage@vips@@QEBA?AV12@W4VipsOperationMath2@@V?$vector@NV?$allocator@N@std@@@std@@PEAVVOption@2@@Z 0000000180009c40 f   VImage.obj
 0001:00008ec0       ?complex@VImage@vips@@QEBA?AV12@W4VipsOperationComplex@@PEAVVOption@2@@Z 0000000180009ec0 f   VImage.obj
 0001:00009070       ?complexget@VImage@vips@@QEBA?AV12@W4VipsOperationComplexget@@PEAVVOption@2@@Z 000000018000a070 f   VImage.obj
 0001:00009220       ?avg@VImage@vips@@QEBANPEAVVOption@2@@Z 000000018000a220 f   VImage.obj
 0001:00009330       ?min@VImage@vips@@QEBANPEAVVOption@2@@Z 000000018000a330 f   VImage.obj
 0001:00009440       ?max@VImage@vips@@QEBANPEAVVOption@2@@Z 000000018000a440 f   VImage.obj
 0001:00009550       ?deviate@VImage@vips@@QEBANPEAVVOption@2@@Z 000000018000a550 f   VImage.obj
 0001:00009660       ?stats@VImage@vips@@QEBA?AV12@PEAVVOption@2@@Z 000000018000a660 f   VImage.obj
 0001:00009790       ?hist_find@VImage@vips@@QEBA?AV12@PEAVVOption@2@@Z 000000018000a790 f   VImage.obj
 0001:000098c0       ?hist_find_ndim@VImage@vips@@QEBA?AV12@PEAVVOption@2@@Z 000000018000a8c0 f   VImage.obj
 0001:000099f0       ?hist_find_indexed@VImage@vips@@QEBA?AV12@V12@PEAVVOption@2@@Z 000000018000a9f0 f   VImage.obj
 0001:00009bf0       ?hough_line@VImage@vips@@QEBA?AV12@PEAVVOption@2@@Z 000000018000abf0 f   VImage.obj
 0001:00009d20       ?hough_circle@VImage@vips@@QEBA?AV12@PEAVVOption@2@@Z 000000018000ad20 f   VImage.obj
 0001:00009e50       ?project@VImage@vips@@QEBA?AV12@PEAV12@PEAVVOption@2@@Z 000000018000ae50 f   VImage.obj
 0001:00009ff0       ?profile@VImage@vips@@QEBA?AV12@PEAV12@PEAVVOption@2@@Z 000000018000aff0 f   VImage.obj
 0001:0000a190       ?measure@VImage@vips@@QEBA?AV12@HHPEAVVOption@2@@Z 000000018000b190 f   VImage.obj
 0001:0000a3c0       ?getpoint@VImage@vips@@QEBA?AV?$vector@NV?$allocator@N@std@@@std@@HHPEAVVOption@2@@Z 000000018000b3c0 f   VImage.obj
 0001:0000a5f0       ?find_trim@VImage@vips@@QEBAHPEAH00PEAVVOption@2@@Z 000000018000b5f0 f   VImage.obj
 0001:0000a810       ?copy@VImage@vips@@QEBA?AV12@PEAVVOption@2@@Z 000000018000b810 f   VImage.obj
 0001:0000a940       ?tilecache@VImage@vips@@QEBA?AV12@PEAVVOption@2@@Z 000000018000b940 f   VImage.obj
 0001:0000aa70       ?linecache@VImage@vips@@QEBA?AV12@PEAVVOption@2@@Z 000000018000ba70 f   VImage.obj
 0001:0000aba0       ?sequential@VImage@vips@@QEBA?AV12@PEAVVOption@2@@Z 000000018000bba0 f   VImage.obj
 0001:0000acd0       ?cache@VImage@vips@@QEBA?AV12@PEAVVOption@2@@Z 000000018000bcd0 f   VImage.obj
 0001:0000ae00       ?embed@VImage@vips@@QEBA?AV12@HHHHPEAVVOption@2@@Z 000000018000be00 f   VImage.obj
 0001:0000b110       ?gravity@VImage@vips@@QEBA?AV12@W4VipsCompassDirection@@HHPEAVVOption@2@@Z 000000018000c110 f   VImage.obj
 0001:0000b3b0       ?flip@VImage@vips@@QEBA?AV12@W4VipsDirection@@PEAVVOption@2@@Z 000000018000c3b0 f   VImage.obj
 0001:0000b560       ?insert@VImage@vips@@QEBA?AV12@V12@HHPEAVVOption@2@@Z 000000018000c560 f   VImage.obj
 0001:0000b840       ?join@VImage@vips@@QEBA?AV12@V12@W4VipsDirection@@PEAVVOption@2@@Z 000000018000c840 f   VImage.obj
 0001:0000bab0       ?arrayjoin@VImage@vips@@SA?AV12@V?$vector@VVImage@vips@@V?$allocator@VVImage@vips@@@std@@@std@@PEAVVOption@2@@Z 000000018000cab0 f   VImage.obj
 0001:0000bbf0       ?extract_area@VImage@vips@@QEBA?AV12@HHHHPEAVVOption@2@@Z 000000018000cbf0 f   VImage.obj
 0001:0000bf00       ?smartcrop@VImage@vips@@QEBA?AV12@HHPEAVVOption@2@@Z 000000018000cf00 f   VImage.obj
 0001:0000c130       ?extract_band@VImage@vips@@QEBA?AV12@HPEAVVOption@2@@Z 000000018000d130 f   VImage.obj
 0001:0000c2e0       ?bandjoin@VImage@vips@@SA?AV12@V?$vector@VVImage@vips@@V?$allocator@VVImage@vips@@@std@@@std@@PEAVVOption@2@@Z 000000018000d2e0 f   VImage.obj
 0001:0000c420       ?bandjoin_const@VImage@vips@@QEBA?AV12@V?$vector@NV?$allocator@N@std@@@std@@PEAVVOption@2@@Z 000000018000d420 f   VImage.obj
 0001:0000c620       ?bandrank@VImage@vips@@SA?AV12@V?$vector@VVImage@vips@@V?$allocator@VVImage@vips@@@std@@@std@@PEAVVOption@2@@Z 000000018000d620 f   VImage.obj
 0001:0000c760       ?bandmean@VImage@vips@@QEBA?AV12@PEAVVOption@2@@Z 000000018000d760 f   VImage.obj
 0001:0000c890       ?bandbool@VImage@vips@@QEBA?AV12@W4VipsOperationBoolean@@PEAVVOption@2@@Z 000000018000d890 f   VImage.obj
 0001:0000ca40       ?replicate@VImage@vips@@QEBA?AV12@HHPEAVVOption@2@@Z 000000018000da40 f   VImage.obj
 0001:0000cc70       ?cast@VImage@vips@@QEBA?AV12@W4VipsBandFormat@@PEAVVOption@2@@Z 000000018000dc70 f   VImage.obj
 0001:0000ce20       ?rot@VImage@vips@@QEBA?AV12@W4VipsAngle@@PEAVVOption@2@@Z 000000018000de20 f   VImage.obj
 0001:0000cfd0       ?rot45@VImage@vips@@QEBA?AV12@PEAVVOption@2@@Z 000000018000dfd0 f   VImage.obj
 0001:0000d100       ?autorot@VImage@vips@@QEBA?AV12@PEAVVOption@2@@Z 000000018000e100 f   VImage.obj
 0001:0000d230       ?ifthenelse@VImage@vips@@QEBA?AV12@V12@0PEAVVOption@2@@Z 000000018000e230 f   VImage.obj
 0001:0000d4e0       ?recomb@VImage@vips@@QEBA?AV12@V12@PEAVVOption@2@@Z 000000018000e4e0 f   VImage.obj
 0001:0000d6e0       ?bandfold@VImage@vips@@QEBA?AV12@PEAVVOption@2@@Z 000000018000e6e0 f   VImage.obj
 0001:0000d810       ?bandunfold@VImage@vips@@QEBA?AV12@PEAVVOption@2@@Z 000000018000e810 f   VImage.obj
 0001:0000d940       ?flatten@VImage@vips@@QEBA?AV12@PEAVVOption@2@@Z 000000018000e940 f   VImage.obj
 0001:0000da70       ?premultiply@VImage@vips@@QEBA?AV12@PEAVVOption@2@@Z 000000018000ea70 f   VImage.obj
 0001:0000dba0       ?unpremultiply@VImage@vips@@QEBA?AV12@PEAVVOption@2@@Z 000000018000eba0 f   VImage.obj
 0001:0000dcd0       ?grid@VImage@vips@@QEBA?AV12@HHHPEAVVOption@2@@Z 000000018000ecd0 f   VImage.obj
 0001:0000df70       ?transpose3d@VImage@vips@@QEBA?AV12@PEAVVOption@2@@Z 000000018000ef70 f   VImage.obj
 0001:0000e0a0       ?scale@VImage@vips@@QEBA?AV12@PEAVVOption@2@@Z 000000018000f0a0 f   VImage.obj
 0001:0000e1d0       ?wrap@VImage@vips@@QEBA?AV12@PEAVVOption@2@@Z 000000018000f1d0 f   VImage.obj
 0001:0000e300       ?zoom@VImage@vips@@QEBA?AV12@HHPEAVVOption@2@@Z 000000018000f300 f   VImage.obj
 0001:0000e530       ?subsample@VImage@vips@@QEBA?AV12@HHPEAVVOption@2@@Z 000000018000f530 f   VImage.obj
 0001:0000e760       ?msb@VImage@vips@@QEBA?AV12@PEAVVOption@2@@Z 000000018000f760 f   VImage.obj
 0001:0000e890       ?byteswap@VImage@vips@@QEBA?AV12@PEAVVOption@2@@Z 000000018000f890 f   VImage.obj
 0001:0000e9c0       ?falsecolour@VImage@vips@@QEBA?AV12@PEAVVOption@2@@Z 000000018000f9c0 f   VImage.obj
 0001:0000eaf0       ?gamma@VImage@vips@@QEBA?AV12@PEAVVOption@2@@Z 000000018000faf0 f   VImage.obj
 0001:0000ec20       ?composite@VImage@vips@@SA?AV12@V?$vector@VVImage@vips@@V?$allocator@VVImage@vips@@@std@@@std@@V?$vector@HV?$allocator@H@std@@@4@PEAVVOption@2@@Z 000000018000fc20 f   VImage.obj
 0001:0000ee00       ?composite2@VImage@vips@@QEBA?AV12@V12@W4VipsBlendMode@@PEAVVOption@2@@Z 000000018000fe00 f   VImage.obj
 0001:0000f070       ?black@VImage@vips@@SA?AV12@HHPEAVVOption@2@@Z 0000000180010070 f   VImage.obj
 0001:0000f210       ?gaussnoise@VImage@vips@@SA?AV12@HHPEAVVOption@2@@Z 0000000180010210 f   VImage.obj
 0001:0000f3b0       ?text@VImage@vips@@SA?AV12@PEADPEAVVOption@2@@Z 00000001800103b0 f   VImage.obj
 0001:0000f4f0       ?xyz@VImage@vips@@SA?AV12@HHPEAVVOption@2@@Z 00000001800104f0 f   VImage.obj
 0001:0000f690       ?gaussmat@VImage@vips@@SA?AV12@NNPEAVVOption@2@@Z 0000000180010690 f   VImage.obj
 0001:0000f860       ?logmat@VImage@vips@@SA?AV12@NNPEAVVOption@2@@Z 0000000180010860 f   VImage.obj
 0001:0000fa30       ?eye@VImage@vips@@SA?AV12@HHPEAVVOption@2@@Z 0000000180010a30 f   VImage.obj
 0001:0000fbd0       ?grey@VImage@vips@@SA?AV12@HHPEAVVOption@2@@Z 0000000180010bd0 f   VImage.obj
 0001:0000fd70       ?zone@VImage@vips@@SA?AV12@HHPEAVVOption@2@@Z 0000000180010d70 f   VImage.obj
 0001:0000ff10       ?sines@VImage@vips@@SA?AV12@HHPEAVVOption@2@@Z 0000000180010f10 f   VImage.obj
 0001:000100b0       ?mask_ideal@VImage@vips@@SA?AV12@HHNPEAVVOption@2@@Z 00000001800110b0 f   VImage.obj
 0001:000102f0       ?mask_ideal_ring@VImage@vips@@SA?AV12@HHNNPEAVVOption@2@@Z 00000001800112f0 f   VImage.obj
 0001:000105a0       ?mask_ideal_band@VImage@vips@@SA?AV12@HHNNNPEAVVOption@2@@Z 00000001800115a0 f   VImage.obj
 0001:000108c0       ?mask_butterworth@VImage@vips@@SA?AV12@HHNNNPEAVVOption@2@@Z 00000001800118c0 f   VImage.obj
 0001:00010be0       ?mask_butterworth_ring@VImage@vips@@SA?AV12@HHNNNNPEAVVOption@2@@Z 0000000180011be0 f   VImage.obj
 0001:00010f70       ?mask_butterworth_band@VImage@vips@@SA?AV12@HHNNNNNPEAVVOption@2@@Z 0000000180011f70 f   VImage.obj
 0001:00011370       ?mask_gaussian@VImage@vips@@SA?AV12@HHNNPEAVVOption@2@@Z 0000000180012370 f   VImage.obj
 0001:00011620       ?mask_gaussian_ring@VImage@vips@@SA?AV12@HHNNNPEAVVOption@2@@Z 0000000180012620 f   VImage.obj
 0001:00011940       ?mask_gaussian_band@VImage@vips@@SA?AV12@HHNNNNPEAVVOption@2@@Z 0000000180012940 f   VImage.obj
 0001:00011cd0       ?mask_fractal@VImage@vips@@SA?AV12@HHNPEAVVOption@2@@Z 0000000180012cd0 f   VImage.obj
 0001:00011f10       ?buildlut@VImage@vips@@QEBA?AV12@PEAVVOption@2@@Z 0000000180012f10 f   VImage.obj
 0001:00012040       ?invertlut@VImage@vips@@QEBA?AV12@PEAVVOption@2@@Z 0000000180013040 f   VImage.obj
 0001:00012170       ?tonelut@VImage@vips@@SA?AV12@PEAVVOption@2@@Z 0000000180013170 f   VImage.obj
 0001:00012240       ?identity@VImage@vips@@SA?AV12@PEAVVOption@2@@Z 0000000180013240 f   VImage.obj
 0001:00012310       ?fractsurf@VImage@vips@@SA?AV12@HHNPEAVVOption@2@@Z 0000000180013310 f   VImage.obj
 0001:00012550       ?worley@VImage@vips@@SA?AV12@HHPEAVVOption@2@@Z 0000000180013550 f   VImage.obj
 0001:000126f0       ?perlin@VImage@vips@@SA?AV12@HHPEAVVOption@2@@Z 00000001800136f0 f   VImage.obj
 0001:00012890       ?csvload@VImage@vips@@SA?AV12@PEADPEAVVOption@2@@Z 0000000180013890 f   VImage.obj
 0001:000129c0       ?matrixload@VImage@vips@@SA?AV12@PEADPEAVVOption@2@@Z 00000001800139c0 f   VImage.obj
 0001:00012af0       ?rawload@VImage@vips@@SA?AV12@PEADHHHPEAVVOption@2@@Z 0000000180013af0 f   VImage.obj
 0001:00012d90       ?vipsload@VImage@vips@@SA?AV12@PEADPEAVVOption@2@@Z 0000000180013d90 f   VImage.obj
 0001:00012ec0       ?analyzeload@VImage@vips@@SA?AV12@PEADPEAVVOption@2@@Z 0000000180013ec0 f   VImage.obj
 0001:00012ff0       ?ppmload@VImage@vips@@SA?AV12@PEADPEAVVOption@2@@Z 0000000180013ff0 f   VImage.obj
 0001:00013120       ?radload@VImage@vips@@SA?AV12@PEADPEAVVOption@2@@Z 0000000180014120 f   VImage.obj
 0001:00013250       ?pdfload@VImage@vips@@SA?AV12@PEADPEAVVOption@2@@Z 0000000180014250 f   VImage.obj
 0001:00013380       ?pdfload_buffer@VImage@vips@@SA?AV12@PEAU_VipsBlob@@PEAVVOption@2@@Z 0000000180014380 f   VImage.obj
 0001:000134c0       ?svgload@VImage@vips@@SA?AV12@PEADPEAVVOption@2@@Z 00000001800144c0 f   VImage.obj
 0001:000135f0       ?svgload_buffer@VImage@vips@@SA?AV12@PEAU_VipsBlob@@PEAVVOption@2@@Z 00000001800145f0 f   VImage.obj
 0001:00013730       ?gifload@VImage@vips@@SA?AV12@PEADPEAVVOption@2@@Z 0000000180014730 f   VImage.obj
 0001:00013860       ?gifload_buffer@VImage@vips@@SA?AV12@PEAU_VipsBlob@@PEAVVOption@2@@Z 0000000180014860 f   VImage.obj
 0001:000139a0       ?pngload@VImage@vips@@SA?AV12@PEADPEAVVOption@2@@Z 00000001800149a0 f   VImage.obj
 0001:00013ad0       ?pngload_buffer@VImage@vips@@SA?AV12@PEAU_VipsBlob@@PEAVVOption@2@@Z 0000000180014ad0 f   VImage.obj
 0001:00013c10       ?matload@VImage@vips@@SA?AV12@PEADPEAVVOption@2@@Z 0000000180014c10 f   VImage.obj
 0001:00013d40       ?jpegload@VImage@vips@@SA?AV12@PEADPEAVVOption@2@@Z 0000000180014d40 f   VImage.obj
 0001:00013e70       ?jpegload_buffer@VImage@vips@@SA?AV12@PEAU_VipsBlob@@PEAVVOption@2@@Z 0000000180014e70 f   VImage.obj
 0001:00013fb0       ?webpload@VImage@vips@@SA?AV12@PEADPEAVVOption@2@@Z 0000000180014fb0 f   VImage.obj
 0001:000140e0       ?webpload_buffer@VImage@vips@@SA?AV12@PEAU_VipsBlob@@PEAVVOption@2@@Z 00000001800150e0 f   VImage.obj
 0001:00014220       ?tiffload@VImage@vips@@SA?AV12@PEADPEAVVOption@2@@Z 0000000180015220 f   VImage.obj
 0001:00014350       ?tiffload_buffer@VImage@vips@@SA?AV12@PEAU_VipsBlob@@PEAVVOption@2@@Z 0000000180015350 f   VImage.obj
 0001:00014490       ?openslideload@VImage@vips@@SA?AV12@PEADPEAVVOption@2@@Z 0000000180015490 f   VImage.obj
 0001:000145c0       ?magickload@VImage@vips@@SA?AV12@PEADPEAVVOption@2@@Z 00000001800155c0 f   VImage.obj
 0001:000146f0       ?magickload_buffer@VImage@vips@@SA?AV12@PEAU_VipsBlob@@PEAVVOption@2@@Z 00000001800156f0 f   VImage.obj
 0001:00014830       ?fitsload@VImage@vips@@SA?AV12@PEADPEAVVOption@2@@Z 0000000180015830 f   VImage.obj
 0001:00014960       ?openexrload@VImage@vips@@SA?AV12@PEADPEAVVOption@2@@Z 0000000180015960 f   VImage.obj
 0001:00014a90       ?csvsave@VImage@vips@@QEBAXPEADPEAVVOption@2@@Z 0000000180015a90 f   VImage.obj
 0001:00014bb0       ?matrixsave@VImage@vips@@QEBAXPEADPEAVVOption@2@@Z 0000000180015bb0 f   VImage.obj
 0001:00014cd0       ?matrixprint@VImage@vips@@QEBAXPEAVVOption@2@@Z 0000000180015cd0 f   VImage.obj
 0001:00014d70       ?rawsave@VImage@vips@@QEBAXPEADPEAVVOption@2@@Z 0000000180015d70 f   VImage.obj
 0001:00014e90       ?rawsave_fd@VImage@vips@@QEBAXHPEAVVOption@2@@Z 0000000180015e90 f   VImage.obj
 0001:00014fa0       ?vipssave@VImage@vips@@QEBAXPEADPEAVVOption@2@@Z 0000000180015fa0 f   VImage.obj
 0001:000150c0       ?ppmsave@VImage@vips@@QEBAXPEADPEAVVOption@2@@Z 00000001800160c0 f   VImage.obj
 0001:000151e0       ?radsave@VImage@vips@@QEBAXPEADPEAVVOption@2@@Z 00000001800161e0 f   VImage.obj
 0001:00015300       ?radsave_buffer@VImage@vips@@QEBAPEAU_VipsBlob@@PEAVVOption@2@@Z 0000000180016300 f   VImage.obj
 0001:00015410       ?dzsave@VImage@vips@@QEBAXPEADPEAVVOption@2@@Z 0000000180016410 f   VImage.obj
 0001:00015530       ?dzsave_buffer@VImage@vips@@QEBAPEAU_VipsBlob@@PEAVVOption@2@@Z 0000000180016530 f   VImage.obj
 0001:00015640       ?pngsave@VImage@vips@@QEBAXPEADPEAVVOption@2@@Z 0000000180016640 f   VImage.obj
 0001:00015760       ?pngsave_buffer@VImage@vips@@QEBAPEAU_VipsBlob@@PEAVVOption@2@@Z 0000000180016760 f   VImage.obj
 0001:00015870       ?jpegsave@VImage@vips@@QEBAXPEADPEAVVOption@2@@Z 0000000180016870 f   VImage.obj
 0001:00015990       ?jpegsave_buffer@VImage@vips@@QEBAPEAU_VipsBlob@@PEAVVOption@2@@Z 0000000180016990 f   VImage.obj
 0001:00015aa0       ?jpegsave_mime@VImage@vips@@QEBAXPEAVVOption@2@@Z 0000000180016aa0 f   VImage.obj
 0001:00015b40       ?webpsave@VImage@vips@@QEBAXPEADPEAVVOption@2@@Z 0000000180016b40 f   VImage.obj
 0001:00015c60       ?webpsave_buffer@VImage@vips@@QEBAPEAU_VipsBlob@@PEAVVOption@2@@Z 0000000180016c60 f   VImage.obj
 0001:00015d70       ?tiffsave@VImage@vips@@QEBAXPEADPEAVVOption@2@@Z 0000000180016d70 f   VImage.obj
 0001:00015e90       ?tiffsave_buffer@VImage@vips@@QEBAPEAU_VipsBlob@@PEAVVOption@2@@Z 0000000180016e90 f   VImage.obj
 0001:00015fa0       ?magicksave@VImage@vips@@QEBAXPEADPEAVVOption@2@@Z 0000000180016fa0 f   VImage.obj
 0001:000160c0       ?magicksave_buffer@VImage@vips@@QEBAPEAU_VipsBlob@@PEAVVOption@2@@Z 00000001800170c0 f   VImage.obj
 0001:000161d0       ?fitssave@VImage@vips@@QEBAXPEADPEAVVOption@2@@Z 00000001800171d0 f   VImage.obj
 0001:000162f0       ?thumbnail@VImage@vips@@SA?AV12@PEADHPEAVVOption@2@@Z 00000001800172f0 f   VImage.obj
 0001:00016490       ?thumbnail_buffer@VImage@vips@@SA?AV12@PEAU_VipsBlob@@HPEAVVOption@2@@Z 0000000180017490 f   VImage.obj
 0001:00016630       ?thumbnail_image@VImage@vips@@QEBA?AV12@HPEAVVOption@2@@Z 0000000180017630 f   VImage.obj
 0001:000167e0       ?mapim@VImage@vips@@QEBA?AV12@V12@PEAVVOption@2@@Z 00000001800177e0 f   VImage.obj
 0001:000169e0       ?shrink@VImage@vips@@QEBA?AV12@NNPEAVVOption@2@@Z 00000001800179e0 f   VImage.obj
 0001:00016c20       ?shrinkh@VImage@vips@@QEBA?AV12@HPEAVVOption@2@@Z 0000000180017c20 f   VImage.obj
 0001:00016dd0       ?shrinkv@VImage@vips@@QEBA?AV12@HPEAVVOption@2@@Z 0000000180017dd0 f   VImage.obj
 0001:00016f80       ?reduceh@VImage@vips@@QEBA?AV12@NPEAVVOption@2@@Z 0000000180017f80 f   VImage.obj
 0001:00017130       ?reducev@VImage@vips@@QEBA?AV12@NPEAVVOption@2@@Z 0000000180018130 f   VImage.obj
 0001:000172e0       ?reduce@VImage@vips@@QEBA?AV12@NNPEAVVOption@2@@Z 00000001800182e0 f   VImage.obj
 0001:00017520       ?quadratic@VImage@vips@@QEBA?AV12@V12@PEAVVOption@2@@Z 0000000180018520 f   VImage.obj
 0001:00017720       ?affine@VImage@vips@@QEBA?AV12@V?$vector@NV?$allocator@N@std@@@std@@PEAVVOption@2@@Z 0000000180018720 f   VImage.obj
 0001:00017920       ?similarity@VImage@vips@@QEBA?AV12@PEAVVOption@2@@Z 0000000180018920 f   VImage.obj
 0001:00017a50       ?rotate@VImage@vips@@QEBA?AV12@NPEAVVOption@2@@Z 0000000180018a50 f   VImage.obj
 0001:00017c00       ?resize@VImage@vips@@QEBA?AV12@NPEAVVOption@2@@Z 0000000180018c00 f   VImage.obj
 0001:00017db0       ?colourspace@VImage@vips@@QEBA?AV12@W4VipsInterpretation@@PEAVVOption@2@@Z 0000000180018db0 f   VImage.obj
 0001:00017f60       ?Lab2XYZ@VImage@vips@@QEBA?AV12@PEAVVOption@2@@Z 0000000180018f60 f   VImage.obj
 0001:00018090       ?XYZ2Lab@VImage@vips@@QEBA?AV12@PEAVVOption@2@@Z 0000000180019090 f   VImage.obj
 0001:000181c0       ?Lab2LCh@VImage@vips@@QEBA?AV12@PEAVVOption@2@@Z 00000001800191c0 f   VImage.obj
 0001:000182f0       ?LCh2Lab@VImage@vips@@QEBA?AV12@PEAVVOption@2@@Z 00000001800192f0 f   VImage.obj
 0001:00018420       ?LCh2CMC@VImage@vips@@QEBA?AV12@PEAVVOption@2@@Z 0000000180019420 f   VImage.obj
 0001:00018550       ?CMC2LCh@VImage@vips@@QEBA?AV12@PEAVVOption@2@@Z 0000000180019550 f   VImage.obj
 0001:00018680       ?XYZ2Yxy@VImage@vips@@QEBA?AV12@PEAVVOption@2@@Z 0000000180019680 f   VImage.obj
 0001:000187b0       ?Yxy2XYZ@VImage@vips@@QEBA?AV12@PEAVVOption@2@@Z 00000001800197b0 f   VImage.obj
 0001:000188e0       ?scRGB2XYZ@VImage@vips@@QEBA?AV12@PEAVVOption@2@@Z 00000001800198e0 f   VImage.obj
 0001:00018a10       ?XYZ2scRGB@VImage@vips@@QEBA?AV12@PEAVVOption@2@@Z 0000000180019a10 f   VImage.obj
 0001:00018b40       ?LabQ2Lab@VImage@vips@@QEBA?AV12@PEAVVOption@2@@Z 0000000180019b40 f   VImage.obj
 0001:00018c70       ?Lab2LabQ@VImage@vips@@QEBA?AV12@PEAVVOption@2@@Z 0000000180019c70 f   VImage.obj
 0001:00018da0       ?LabQ2LabS@VImage@vips@@QEBA?AV12@PEAVVOption@2@@Z 0000000180019da0 f   VImage.obj
 0001:00018ed0       ?LabS2LabQ@VImage@vips@@QEBA?AV12@PEAVVOption@2@@Z 0000000180019ed0 f   VImage.obj
 0001:00019000       ?LabS2Lab@VImage@vips@@QEBA?AV12@PEAVVOption@2@@Z 000000018001a000 f   VImage.obj
 0001:00019130       ?Lab2LabS@VImage@vips@@QEBA?AV12@PEAVVOption@2@@Z 000000018001a130 f   VImage.obj
 0001:00019260       ?rad2float@VImage@vips@@QEBA?AV12@PEAVVOption@2@@Z 000000018001a260 f   VImage.obj
 0001:00019390       ?float2rad@VImage@vips@@QEBA?AV12@PEAVVOption@2@@Z 000000018001a390 f   VImage.obj
 0001:000194c0       ?LabQ2sRGB@VImage@vips@@QEBA?AV12@PEAVVOption@2@@Z 000000018001a4c0 f   VImage.obj
 0001:000195f0       ?sRGB2HSV@VImage@vips@@QEBA?AV12@PEAVVOption@2@@Z 000000018001a5f0 f   VImage.obj
 0001:00019720       ?HSV2sRGB@VImage@vips@@QEBA?AV12@PEAVVOption@2@@Z 000000018001a720 f   VImage.obj
 0001:00019850       ?icc_import@VImage@vips@@QEBA?AV12@PEAVVOption@2@@Z 000000018001a850 f   VImage.obj
 0001:00019980       ?icc_export@VImage@vips@@QEBA?AV12@PEAVVOption@2@@Z 000000018001a980 f   VImage.obj
 0001:00019ab0       ?icc_transform@VImage@vips@@QEBA?AV12@PEADPEAVVOption@2@@Z 000000018001aab0 f   VImage.obj
 0001:00019c60       ?dE76@VImage@vips@@QEBA?AV12@V12@PEAVVOption@2@@Z 000000018001ac60 f   VImage.obj
 0001:00019e60       ?dE00@VImage@vips@@QEBA?AV12@V12@PEAVVOption@2@@Z 000000018001ae60 f   VImage.obj
 0001:0001a060       ?dECMC@VImage@vips@@QEBA?AV12@V12@PEAVVOption@2@@Z 000000018001b060 f   VImage.obj
 0001:0001a260       ?sRGB2scRGB@VImage@vips@@QEBA?AV12@PEAVVOption@2@@Z 000000018001b260 f   VImage.obj
 0001:0001a390       ?scRGB2BW@VImage@vips@@QEBA?AV12@PEAVVOption@2@@Z 000000018001b390 f   VImage.obj
 0001:0001a4c0       ?scRGB2sRGB@VImage@vips@@QEBA?AV12@PEAVVOption@2@@Z 000000018001b4c0 f   VImage.obj
 0001:0001a5f0       ?maplut@VImage@vips@@QEBA?AV12@V12@PEAVVOption@2@@Z 000000018001b5f0 f   VImage.obj
 0001:0001a7f0       ?percent@VImage@vips@@QEBAHNPEAVVOption@2@@Z 000000018001b7f0 f   VImage.obj
 0001:0001a960       ?stdif@VImage@vips@@QEBA?AV12@HHPEAVVOption@2@@Z 000000018001b960 f   VImage.obj
 0001:0001ab90       ?hist_cum@VImage@vips@@QEBA?AV12@PEAVVOption@2@@Z 000000018001bb90 f   VImage.obj
 0001:0001acc0       ?hist_match@VImage@vips@@QEBA?AV12@V12@PEAVVOption@2@@Z 000000018001bcc0 f   VImage.obj
 0001:0001aec0       ?hist_norm@VImage@vips@@QEBA?AV12@PEAVVOption@2@@Z 000000018001bec0 f   VImage.obj
 0001:0001aff0       ?hist_equal@VImage@vips@@QEBA?AV12@PEAVVOption@2@@Z 000000018001bff0 f   VImage.obj
 0001:0001b120       ?hist_plot@VImage@vips@@QEBA?AV12@PEAVVOption@2@@Z 000000018001c120 f   VImage.obj
 0001:0001b250       ?hist_local@VImage@vips@@QEBA?AV12@HHPEAVVOption@2@@Z 000000018001c250 f   VImage.obj
 0001:0001b480       ?hist_ismonotonic@VImage@vips@@QEBA_NPEAVVOption@2@@Z 000000018001c480 f   VImage.obj
 0001:0001b590       ?hist_entropy@VImage@vips@@QEBANPEAVVOption@2@@Z 000000018001c590 f   VImage.obj
 0001:0001b6a0       ?conv@VImage@vips@@QEBA?AV12@V12@PEAVVOption@2@@Z 000000018001c6a0 f   VImage.obj
 0001:0001b8a0       ?conva@VImage@vips@@QEBA?AV12@V12@PEAVVOption@2@@Z 000000018001c8a0 f   VImage.obj
 0001:0001baa0       ?convf@VImage@vips@@QEBA?AV12@V12@PEAVVOption@2@@Z 000000018001caa0 f   VImage.obj
 0001:0001bca0       ?convi@VImage@vips@@QEBA?AV12@V12@PEAVVOption@2@@Z 000000018001cca0 f   VImage.obj
 0001:0001bea0       ?compass@VImage@vips@@QEBA?AV12@V12@PEAVVOption@2@@Z 000000018001cea0 f   VImage.obj
 0001:0001c0a0       ?convsep@VImage@vips@@QEBA?AV12@V12@PEAVVOption@2@@Z 000000018001d0a0 f   VImage.obj
 0001:0001c2a0       ?convasep@VImage@vips@@QEBA?AV12@V12@PEAVVOption@2@@Z 000000018001d2a0 f   VImage.obj
 0001:0001c4a0       ?fastcor@VImage@vips@@QEBA?AV12@V12@PEAVVOption@2@@Z 000000018001d4a0 f   VImage.obj
 0001:0001c6a0       ?spcor@VImage@vips@@QEBA?AV12@V12@PEAVVOption@2@@Z 000000018001d6a0 f   VImage.obj
 0001:0001c8a0       ?sharpen@VImage@vips@@QEBA?AV12@PEAVVOption@2@@Z 000000018001d8a0 f   VImage.obj
 0001:0001c9d0       ?gaussblur@VImage@vips@@QEBA?AV12@NPEAVVOption@2@@Z 000000018001d9d0 f   VImage.obj
 0001:0001cb80       ?canny@VImage@vips@@QEBA?AV12@PEAVVOption@2@@Z 000000018001db80 f   VImage.obj
 0001:0001ccb0       ?sobel@VImage@vips@@QEBA?AV12@PEAVVOption@2@@Z 000000018001dcb0 f   VImage.obj
 0001:0001cde0       ?fwfft@VImage@vips@@QEBA?AV12@PEAVVOption@2@@Z 000000018001dde0 f   VImage.obj
 0001:0001cf10       ?invfft@VImage@vips@@QEBA?AV12@PEAVVOption@2@@Z 000000018001df10 f   VImage.obj
 0001:0001d040       ?freqmult@VImage@vips@@QEBA?AV12@V12@PEAVVOption@2@@Z 000000018001e040 f   VImage.obj
 0001:0001d240       ?spectrum@VImage@vips@@QEBA?AV12@PEAVVOption@2@@Z 000000018001e240 f   VImage.obj
 0001:0001d370       ?phasecor@VImage@vips@@QEBA?AV12@V12@PEAVVOption@2@@Z 000000018001e370 f   VImage.obj
 0001:0001d570       ?morph@VImage@vips@@QEBA?AV12@V12@W4VipsOperationMorphology@@PEAVVOption@2@@Z 000000018001e570 f   VImage.obj
 0001:0001d7e0       ?rank@VImage@vips@@QEBA?AV12@HHHPEAVVOption@2@@Z 000000018001e7e0 f   VImage.obj
 0001:0001da80       ?countlines@VImage@vips@@QEBANW4VipsDirection@@PEAVVOption@2@@Z 000000018001ea80 f   VImage.obj
 0001:0001dbe0       ?labelregions@VImage@vips@@QEBA?AV12@PEAVVOption@2@@Z 000000018001ebe0 f   VImage.obj
 0001:0001dd10       ?fill_nearest@VImage@vips@@QEBA?AV12@PEAVVOption@2@@Z 000000018001ed10 f   VImage.obj
 0001:0001de40       ?draw_rect@VImage@vips@@QEBAXV?$vector@NV?$allocator@N@std@@@std@@HHHHPEAVVOption@2@@Z 000000018001ee40 f   VImage.obj
 0001:0001e190       ?draw_mask@VImage@vips@@QEBAXV?$vector@NV?$allocator@N@std@@@std@@V12@HHPEAVVOption@2@@Z 000000018001f190 f   VImage.obj
 0001:0001e4c0       ?draw_line@VImage@vips@@QEBAXV?$vector@NV?$allocator@N@std@@@std@@HHHHPEAVVOption@2@@Z 000000018001f4c0 f   VImage.obj
 0001:0001e810       ?draw_circle@VImage@vips@@QEBAXV?$vector@NV?$allocator@N@std@@@std@@HHHPEAVVOption@2@@Z 000000018001f810 f   VImage.obj
 0001:0001eaf0       ?draw_flood@VImage@vips@@QEBAXV?$vector@NV?$allocator@N@std@@@std@@HHPEAVVOption@2@@Z 000000018001faf0 f   VImage.obj
 0001:0001ed60       ?draw_image@VImage@vips@@QEBAXV12@HHPEAVVOption@2@@Z 000000018001fd60 f   VImage.obj
 0001:0001efc0       ?draw_smudge@VImage@vips@@QEBAXHHHHPEAVVOption@2@@Z 000000018001ffc0 f   VImage.obj
 0001:0001f230       ?merge@VImage@vips@@QEBA?AV12@V12@W4VipsDirection@@HHPEAVVOption@2@@Z 0000000180020230 f   VImage.obj
 0001:0001f580       ?mosaic@VImage@vips@@QEBA?AV12@V12@W4VipsDirection@@HHHHPEAVVOption@2@@Z 0000000180020580 f   VImage.obj
 0001:0001f990       ?mosaic1@VImage@vips@@QEBA?AV12@V12@W4VipsDirection@@HHHHHHHHPEAVVOption@2@@Z 0000000180020990 f   VImage.obj
 0001:0001ff50       ?match@VImage@vips@@QEBA?AV12@V12@HHHHHHHHPEAVVOption@2@@Z 0000000180020f50 f   VImage.obj
 0001:000204a0       ?globalbalance@VImage@vips@@QEBA?AV12@PEAVVOption@2@@Z 00000001800214a0 f   VImage.obj
 0001:000205d0       ?bandsplit@VImage@vips@@QEBA?AV?$vector@VVImage@vips@@V?$allocator@VVImage@vips@@@std@@@std@@PEAVVOption@2@@Z 00000001800215d0 f   VImage.obj
 0001:00020760       ?bandjoin@VImage@vips@@QEBA?AV12@V12@PEAVVOption@2@@Z 0000000180021760 f   VImage.obj
 0001:00020a10       ?composite@VImage@vips@@QEBA?AV12@V12@W4VipsBlendMode@@PEAVVOption@2@@Z 0000000180021a10 f   VImage.obj
 0001:00020d90       ?minpos@VImage@vips@@QEBA?AV?$complex@N@std@@PEAVVOption@2@@Z 0000000180021d90 f   VImage.obj
 0001:00020eb0       ?maxpos@VImage@vips@@QEBA?AV?$complex@N@std@@PEAVVOption@2@@Z 0000000180021eb0 f   VImage.obj
 0001:00020fd0       ??AVImage@vips@@QEBA?AV01@H@Z 0000000180021fd0 f   VImage.obj
 0001:00020ff0       ??RVImage@vips@@QEBA?AV?$vector@NV?$allocator@N@std@@@std@@HH@Z 0000000180021ff0 f   VImage.obj
 0001:00021010       ??Hvips@@YA?AVVImage@0@V10@0@Z 0000000180022010 f   VImage.obj
 0001:00021150       ??Hvips@@YA?AVVImage@0@NV10@@Z 0000000180022150 f   VImage.obj
 0001:000211f0       ??Hvips@@YA?AVVImage@0@V10@N@Z 00000001800221f0 f   VImage.obj
 0001:00021290       ??Hvips@@YA?AVVImage@0@V?$vector@NV?$allocator@N@std@@@std@@V10@@Z 0000000180022290 f   VImage.obj
 0001:000213e0       ??Hvips@@YA?AVVImage@0@V10@V?$vector@NV?$allocator@N@std@@@std@@@Z 00000001800223e0 f   VImage.obj
 0001:00021530       ??Yvips@@YAAEAVVImage@0@AEAV10@V10@@Z 0000000180022530 f   VImage.obj
 0001:000216a0       ??Yvips@@YAAEAVVImage@0@AEAV10@N@Z 00000001800226a0 f   VImage.obj
 0001:00021800       ??Yvips@@YAAEAVVImage@0@AEAV10@V?$vector@NV?$allocator@N@std@@@std@@@Z 0000000180022800 f   VImage.obj
 0001:000219a0       ??Gvips@@YA?AVVImage@0@V10@0@Z 00000001800229a0 f   VImage.obj
 0001:00021ae0       ??Gvips@@YA?AVVImage@0@NV10@@Z 0000000180022ae0 f   VImage.obj
 0001:00021b80       ??Gvips@@YA?AVVImage@0@V10@N@Z 0000000180022b80 f   VImage.obj
 0001:00021c30       ??Gvips@@YA?AVVImage@0@V?$vector@NV?$allocator@N@std@@@std@@V10@@Z 0000000180022c30 f   VImage.obj
 0001:00021d80       ??Gvips@@YA?AVVImage@0@V10@V?$vector@NV?$allocator@N@std@@@std@@@Z 0000000180022d80 f   VImage.obj
 0001:00021ed0       ??Zvips@@YAAEAVVImage@0@AEAV10@V10@@Z 0000000180022ed0 f   VImage.obj
 0001:00022040       ??Zvips@@YAAEAVVImage@0@AEAV10@N@Z 0000000180023040 f   VImage.obj
 0001:000221b0       ??Zvips@@YAAEAVVImage@0@AEAV10@V?$vector@NV?$allocator@N@std@@@std@@@Z 00000001800231b0 f   VImage.obj
 0001:00022350       ??Gvips@@YA?AVVImage@0@V10@@Z 0000000180023350 f   VImage.obj
 0001:00022440       ??Dvips@@YA?AVVImage@0@V10@0@Z 0000000180023440 f   VImage.obj
 0001:00022580       ??Dvips@@YA?AVVImage@0@NV10@@Z 0000000180023580 f   VImage.obj
 0001:00022620       ??Dvips@@YA?AVVImage@0@V10@N@Z 0000000180023620 f   VImage.obj
 0001:000226c0       ??Dvips@@YA?AVVImage@0@V?$vector@NV?$allocator@N@std@@@std@@V10@@Z 00000001800236c0 f   VImage.obj
 0001:00022810       ??Dvips@@YA?AVVImage@0@V10@V?$vector@NV?$allocator@N@std@@@std@@@Z 0000000180023810 f   VImage.obj
 0001:00022950       ??Xvips@@YAAEAVVImage@0@AEAV10@V10@@Z 0000000180023950 f   VImage.obj
 0001:00022ac0       ??Xvips@@YAAEAVVImage@0@AEAV10@N@Z 0000000180023ac0 f   VImage.obj
 0001:00022c20       ??Xvips@@YAAEAVVImage@0@AEAV10@V?$vector@NV?$allocator@N@std@@@std@@@Z 0000000180023c20 f   VImage.obj
 0001:00022dc0       ??Kvips@@YA?AVVImage@0@V10@0@Z 0000000180023dc0 f   VImage.obj
 0001:00022f00       ??Kvips@@YA?AVVImage@0@NV10@@Z 0000000180023f00 f   VImage.obj
 0001:00023040       ??Kvips@@YA?AVVImage@0@V10@N@Z 0000000180024040 f   VImage.obj
 0001:000230f0       ??Kvips@@YA?AVVImage@0@V?$vector@NV?$allocator@N@std@@@std@@V10@@Z 00000001800240f0 f   VImage.obj
 0001:000232e0       ??Kvips@@YA?AVVImage@0@V10@V?$vector@NV?$allocator@N@std@@@std@@@Z 00000001800242e0 f   VImage.obj
 0001:00023430       ??_0vips@@YAAEAVVImage@0@AEAV10@V10@@Z 0000000180024430 f   VImage.obj
 0001:000235a0       ??_0vips@@YAAEAVVImage@0@AEAV10@N@Z 00000001800245a0 f   VImage.obj
 0001:00023700       ??_0vips@@YAAEAVVImage@0@AEAV10@V?$vector@NV?$allocator@N@std@@@std@@@Z 0000000180024700 f   VImage.obj
 0001:000238a0       ??Lvips@@YA?AVVImage@0@V10@0@Z 00000001800248a0 f   VImage.obj
 0001:000239e0       ??Lvips@@YA?AVVImage@0@V10@N@Z 00000001800249e0 f   VImage.obj
 0001:00023a90       ??Lvips@@YA?AVVImage@0@V10@V?$vector@NV?$allocator@N@std@@@std@@@Z 0000000180024a90 f   VImage.obj
 0001:00023bd0       ??_1vips@@YAAEAVVImage@0@AEAV10@V10@@Z 0000000180024bd0 f   VImage.obj
 0001:00023d40       ??_1vips@@YAAEAVVImage@0@AEAV10@N@Z 0000000180024d40 f   VImage.obj
 0001:00023ed0       ??_1vips@@YAAEAVVImage@0@AEAV10@V?$vector@NV?$allocator@N@std@@@std@@@Z 0000000180024ed0 f   VImage.obj
 0001:00024070       ??Mvips@@YA?AVVImage@0@V10@0@Z 0000000180025070 f   VImage.obj
 0001:000241b0       ??Mvips@@YA?AVVImage@0@NV10@@Z 00000001800251b0 f   VImage.obj
 0001:00024270       ??Mvips@@YA?AVVImage@0@V10@N@Z 0000000180025270 f   VImage.obj
 0001:00024320       ??Mvips@@YA?AVVImage@0@V?$vector@NV?$allocator@N@std@@@std@@V10@@Z 0000000180025320 f   VImage.obj
 0001:00024470       ??Mvips@@YA?AVVImage@0@V10@V?$vector@NV?$allocator@N@std@@@std@@@Z 0000000180025470 f   VImage.obj
 0001:000245c0       ??Nvips@@YA?AVVImage@0@V10@0@Z 00000001800255c0 f   VImage.obj
 0001:00024700       ??Nvips@@YA?AVVImage@0@NV10@@Z 0000000180025700 f   VImage.obj
 0001:000247c0       ??Nvips@@YA?AVVImage@0@V10@N@Z 00000001800257c0 f   VImage.obj
 0001:00024870       ??Nvips@@YA?AVVImage@0@V?$vector@NV?$allocator@N@std@@@std@@V10@@Z 0000000180025870 f   VImage.obj
 0001:000249c0       ??Nvips@@YA?AVVImage@0@V10@V?$vector@NV?$allocator@N@std@@@std@@@Z 00000001800259c0 f   VImage.obj
 0001:00024b10       ??Ovips@@YA?AVVImage@0@V10@0@Z 0000000180025b10 f   VImage.obj
 0001:00024c50       ??Ovips@@YA?AVVImage@0@NV10@@Z 0000000180025c50 f   VImage.obj
 0001:00024d10       ??Ovips@@YA?AVVImage@0@V10@N@Z 0000000180025d10 f   VImage.obj
 0001:00024dc0       ??Ovips@@YA?AVVImage@0@V?$vector@NV?$allocator@N@std@@@std@@V10@@Z 0000000180025dc0 f   VImage.obj
 0001:00024f10       ??Ovips@@YA?AVVImage@0@V10@V?$vector@NV?$allocator@N@std@@@std@@@Z 0000000180025f10 f   VImage.obj
 0001:00025060       ??Pvips@@YA?AVVImage@0@V10@0@Z 0000000180026060 f   VImage.obj
 0001:000251a0       ??Pvips@@YA?AVVImage@0@NV10@@Z 00000001800261a0 f   VImage.obj
 0001:00025260       ??Pvips@@YA?AVVImage@0@V10@N@Z 0000000180026260 f   VImage.obj
 0001:00025310       ??Pvips@@YA?AVVImage@0@V?$vector@NV?$allocator@N@std@@@std@@V10@@Z 0000000180026310 f   VImage.obj
 0001:00025460       ??Pvips@@YA?AVVImage@0@V10@V?$vector@NV?$allocator@N@std@@@std@@@Z 0000000180026460 f   VImage.obj
 0001:000255b0       ??8vips@@YA?AVVImage@0@V10@0@Z 00000001800265b0 f   VImage.obj
 0001:000256f0       ??8vips@@YA?AVVImage@0@NV10@@Z 00000001800266f0 f   VImage.obj
 0001:000257a0       ??8vips@@YA?AVVImage@0@V10@N@Z 00000001800267a0 f   VImage.obj
 0001:00025850       ??8vips@@YA?AVVImage@0@V?$vector@NV?$allocator@N@std@@@std@@V10@@Z 0000000180026850 f   VImage.obj
 0001:000259a0       ??8vips@@YA?AVVImage@0@V10@V?$vector@NV?$allocator@N@std@@@std@@@Z 00000001800269a0 f   VImage.obj
 0001:00025ae0       ??9vips@@YA?AVVImage@0@V10@0@Z 0000000180026ae0 f   VImage.obj
 0001:00025c20       ??9vips@@YA?AVVImage@0@NV10@@Z 0000000180026c20 f   VImage.obj
 0001:00025ce0       ??9vips@@YA?AVVImage@0@V10@N@Z 0000000180026ce0 f   VImage.obj
 0001:00025d90       ??9vips@@YA?AVVImage@0@V?$vector@NV?$allocator@N@std@@@std@@V10@@Z 0000000180026d90 f   VImage.obj
 0001:00025ee0       ??9vips@@YA?AVVImage@0@V10@V?$vector@NV?$allocator@N@std@@@std@@@Z 0000000180026ee0 f   VImage.obj
 0001:00026030       ??Ivips@@YA?AVVImage@0@V10@0@Z 0000000180027030 f   VImage.obj
 0001:00026170       ??Ivips@@YA?AVVImage@0@NV10@@Z 0000000180027170 f   VImage.obj
 0001:00026220       ??Ivips@@YA?AVVImage@0@V10@N@Z 0000000180027220 f   VImage.obj
 0001:000262d0       ??Ivips@@YA?AVVImage@0@V?$vector@NV?$allocator@N@std@@@std@@V10@@Z 00000001800272d0 f   VImage.obj
 0001:00026420       ??Ivips@@YA?AVVImage@0@V10@V?$vector@NV?$allocator@N@std@@@std@@@Z 0000000180027420 f   VImage.obj
 0001:00026560       ??_4vips@@YAAEAVVImage@0@AEAV10@V10@@Z 0000000180027560 f   VImage.obj
 0001:000266d0       ??_4vips@@YAAEAVVImage@0@AEAV10@N@Z 00000001800276d0 f   VImage.obj
 0001:00026870       ??_4vips@@YAAEAVVImage@0@AEAV10@V?$vector@NV?$allocator@N@std@@@std@@@Z 0000000180027870 f   VImage.obj
 0001:00026a10       ??Uvips@@YA?AVVImage@0@V10@0@Z 0000000180027a10 f   VImage.obj
 0001:00026b50       ??Uvips@@YA?AVVImage@0@NV10@@Z 0000000180027b50 f   VImage.obj
 0001:00026c10       ??Uvips@@YA?AVVImage@0@V10@N@Z 0000000180027c10 f   VImage.obj
 0001:00026cc0       ??Uvips@@YA?AVVImage@0@V?$vector@NV?$allocator@N@std@@@std@@V10@@Z 0000000180027cc0 f   VImage.obj
 0001:00026e10       ??Uvips@@YA?AVVImage@0@V10@V?$vector@NV?$allocator@N@std@@@std@@@Z 0000000180027e10 f   VImage.obj
 0001:00026f60       ??_5vips@@YAAEAVVImage@0@AEAV10@V10@@Z 0000000180027f60 f   VImage.obj
 0001:000270d0       ??_5vips@@YAAEAVVImage@0@AEAV10@N@Z 00000001800280d0 f   VImage.obj
 0001:00027270       ??_5vips@@YAAEAVVImage@0@AEAV10@V?$vector@NV?$allocator@N@std@@@std@@@Z 0000000180028270 f   VImage.obj
 0001:00027410       ??Tvips@@YA?AVVImage@0@V10@0@Z 0000000180028410 f   VImage.obj
 0001:00027550       ??Tvips@@YA?AVVImage@0@NV10@@Z 0000000180028550 f   VImage.obj
 0001:00027610       ??Tvips@@YA?AVVImage@0@V10@N@Z 0000000180028610 f   VImage.obj
 0001:000276c0       ??Tvips@@YA?AVVImage@0@V?$vector@NV?$allocator@N@std@@@std@@V10@@Z 00000001800286c0 f   VImage.obj
 0001:00027810       ??Tvips@@YA?AVVImage@0@V10@V?$vector@NV?$allocator@N@std@@@std@@@Z 0000000180028810 f   VImage.obj
 0001:00027960       ??_6vips@@YAAEAVVImage@0@AEAV10@V10@@Z 0000000180028960 f   VImage.obj
 0001:00027ad0       ??_6vips@@YAAEAVVImage@0@AEAV10@N@Z 0000000180028ad0 f   VImage.obj
 0001:00027c70       ??_6vips@@YAAEAVVImage@0@AEAV10@V?$vector@NV?$allocator@N@std@@@std@@@Z 0000000180028c70 f   VImage.obj
 0001:00027e10       ??6vips@@YA?AVVImage@0@V10@0@Z 0000000180028e10 f   VImage.obj
 0001:00027f50       ??6vips@@YA?AVVImage@0@V10@N@Z 0000000180028f50 f   VImage.obj
 0001:00028000       ??6vips@@YA?AVVImage@0@V10@V?$vector@NV?$allocator@N@std@@@std@@@Z 0000000180029000 f   VImage.obj
 0001:00028150       ??_2vips@@YAAEAVVImage@0@AEAV10@V10@@Z 0000000180029150 f   VImage.obj
 0001:00028150       ??_3vips@@YAAEAVVImage@0@AEAV10@V10@@Z 0000000180029150 f   VImage.obj
 0001:000282c0       ??_3vips@@YAAEAVVImage@0@AEAV10@N@Z 00000001800292c0 f   VImage.obj
 0001:000282c0       ??_2vips@@YAAEAVVImage@0@AEAV10@N@Z 00000001800292c0 f   VImage.obj
 0001:00028460       ??_3vips@@YAAEAVVImage@0@AEAV10@V?$vector@NV?$allocator@N@std@@@std@@@Z 0000000180029460 f   VImage.obj
 0001:00028460       ??_2vips@@YAAEAVVImage@0@AEAV10@V?$vector@NV?$allocator@N@std@@@std@@@Z 0000000180029460 f   VImage.obj
 0001:00028600       ??5vips@@YA?AVVImage@0@V10@0@Z 0000000180029600 f   VImage.obj
 0001:00028740       ??5vips@@YA?AVVImage@0@V10@N@Z 0000000180029740 f   VImage.obj
 0001:000287f0       ??5vips@@YA?AVVImage@0@V10@V?$vector@NV?$allocator@N@std@@@std@@@Z 00000001800297f0 f   VImage.obj
 0001:00028940       ??1?$vector@HV?$allocator@H@std@@@std@@QEAA@XZ 0000000180029940 f i VImage.obj
 0001:000289a0       ??0?$vector@HV?$allocator@H@std@@@std@@QEAA@AEBV01@@Z 00000001800299a0 f i VImage.obj
 0001:00028a90       ??1?$vector@VVImage@vips@@V?$allocator@VVImage@vips@@@std@@@std@@QEAA@XZ 0000000180029a90 f i VImage.obj
 0001:00028b00       ??0?$vector@VVImage@vips@@V?$allocator@VVImage@vips@@@std@@@std@@QEAA@AEBV01@@Z 0000000180029b00 f i VImage.obj
 0001:00028be0       ??$_Emplace_reallocate@VVImage@vips@@@?$vector@VVImage@vips@@V?$allocator@VVImage@vips@@@std@@@std@@QEAAPEAVVImage@vips@@QEAV23@$$QEAV23@@Z 0000000180029be0 f i VImage.obj
 0001:00028f90       ??$_Destroy_range@V?$allocator@VVImage@vips@@@std@@@std@@YAXPEAVVImage@vips@@0AEAV?$allocator@VVImage@vips@@@0@@Z 0000000180029f90 f i VImage.obj
 0001:00029020       ?_Umove@?$vector@VVImage@vips@@V?$allocator@VVImage@vips@@@std@@@std@@AEAAPEAVVImage@vips@@PEAV34@00@Z 000000018002a020 f i VImage.obj
 0001:000290c0       ??$_Uninitialized_copy@PEAVVImage@vips@@PEAV12@V?$allocator@VVImage@vips@@@std@@@std@@YAPEAVVImage@vips@@QEAV12@0PEAV12@AEAV?$allocator@VVImage@vips@@@0@@Z 000000018002a0c0 f i VImage.obj
 0001:00029160       ??0exception@std@@QEAA@AEBV01@@Z 000000018002a160 f i libcpmt:xonce.obj
 0001:00029198       ??_Elength_error@std@@UEAAPEAXI@Z 000000018002a198 f i libcpmt:xthrow.obj
 0001:00029198       ??_Gbad_exception@std@@UEAAPEAXI@Z 000000018002a198 f i libvcruntime:frame.obj
 0001:00029198       ??_Glogic_error@std@@UEAAPEAXI@Z 000000018002a198 f i libcpmt:xthrow.obj
 0001:00029198       ??_Ebad_alloc@std@@UEAAPEAXI@Z 000000018002a198 f i libcpmt:xthrow.obj
 0001:00029198       ??_Gbad_array_new_length@std@@UEAAPEAXI@Z 000000018002a198 f i LIBCMT:throw_bad_alloc.obj
 0001:00029198       ??_Ebad_exception@std@@UEAAPEAXI@Z 000000018002a198 f i libvcruntime:frame.obj
 0001:00029198       ??_Gbad_alloc@std@@UEAAPEAXI@Z 000000018002a198 f i libcpmt:xthrow.obj
 0001:00029198       ??_Glength_error@std@@UEAAPEAXI@Z 000000018002a198 f i libcpmt:xthrow.obj
 0001:00029198       ??_Eexception@std@@UEAAPEAXI@Z 000000018002a198 f i libcpmt:xonce.obj
 0001:00029198       ??_Gexception@std@@UEAAPEAXI@Z 000000018002a198 f i libcpmt:xonce.obj
 0001:00029198       ??_Elogic_error@std@@UEAAPEAXI@Z 000000018002a198 f i libcpmt:xthrow.obj
 0001:00029198       ??_Ebad_array_new_length@std@@UEAAPEAXI@Z 000000018002a198 f i LIBCMT:throw_bad_alloc.obj
 0001:000291dc       ?_Execute_once@std@@YAHAEAUonce_flag@1@P6AHPEAX1PEAPEAX@Z1@Z 000000018002a1dc f   libcpmt:xonce.obj
 0001:000291e4       ?what@exception@std@@UEBAPEBDXZ 000000018002a1e4 f i libcpmt:xonce.obj
 0001:000291f8       ??0bad_alloc@std@@QEAA@AEBV01@@Z 000000018002a1f8 f i libcpmt:xthrow.obj
 0001:00029238       ??0bad_alloc@std@@QEAA@XZ  000000018002a238 f i libcpmt:xthrow.obj
 0001:00029258       ??0length_error@std@@QEAA@AEBV01@@Z 000000018002a258 f i libcpmt:xthrow.obj
 0001:00029298       ??0length_error@std@@QEAA@PEBD@Z 000000018002a298 f i libcpmt:xthrow.obj
 0001:000292e4       ??0logic_error@std@@QEAA@AEBV01@@Z 000000018002a2e4 f i libcpmt:xthrow.obj
 0001:00029324       ??1bad_array_new_length@std@@UEAA@XZ 000000018002a324 f i LIBCMT:throw_bad_alloc.obj
 0001:00029324       ??1bad_exception@std@@UEAA@XZ 000000018002a324 f i libvcruntime:frame.obj
 0001:00029324       ??1length_error@std@@UEAA@XZ 000000018002a324 f i libcpmt:xthrow.obj
 0001:00029324       ??1bad_alloc@std@@UEAA@XZ  000000018002a324 f i libcpmt:xthrow.obj
 0001:00029338       ?_Xlength_error@std@@YAXPEBD@Z 000000018002a338 f   libcpmt:xthrow.obj
 0001:0002935c       ?_Syserror_map@std@@YAPEBDH@Z 000000018002a35c f   libcpmt:syserror.obj
 0001:00029854       __crtInitOnceExecuteOnce   000000018002a854 f   libcpmt:winapisupp.obj
 0001:00029930       __security_check_cookie    000000018002a930 f   LIBCMT:_amdsecgs_.obj
 0001:00029954       ??_V@YAXPEAX_K@Z           000000018002a954 f   LIBCMT:delete_array_size.obj
 0001:0002995c       ??2@YAPEAX_K@Z             000000018002a95c f   LIBCMT:new_scalar.obj
 0001:00029998       ??_M@YAXPEAX_K1P6AX0@Z@Z   000000018002a998 f   LIBCMT:ehvecdtr.obj
 0001:00029a04       ?__ArrayUnwind@@YAXPEAX_K1P6AX0@Z@Z 000000018002aa04 f   LIBCMT:ehvecdtr.obj
 0001:00029a68       ??_V@YAXPEAX@Z             000000018002aa68 f   LIBCMT:delete_array.obj
 0001:00029a68       ??3@YAXPEAX_K@Z            000000018002aa68 f   LIBCMT:delete_scalar_size.obj
 0001:00029a70       ??_Etype_info@@UEAAPEAXI@Z 000000018002aa70 f i LIBCMT:std_type_info_static.obj
 0001:00029a70       ??_Gtype_info@@UEAAPEAXI@Z 000000018002aa70 f i LIBCMT:std_type_info_static.obj
 0001:00029dcc       _DllMainCRTStartup         000000018002adcc f   LIBCMT:dll_dllmain.obj
 0001:00029e0c       __GSHandlerCheck           000000018002ae0c f   LIBCMT:_gshandler_.obj
 0001:00029e2c       __GSHandlerCheckCommon     000000018002ae2c f   LIBCMT:_gshandler_.obj
 0001:00029e88       __GSHandlerCheck_EH        000000018002ae88 f   LIBCMT:gshandlereh.obj
 0001:00029f08       __raise_securityfailure    000000018002af08 f   LIBCMT:gs_report.obj
 0001:00029f3c       __report_gsfailure         000000018002af3c f   LIBCMT:gs_report.obj
 0001:0002a010       __report_rangecheckfailure 000000018002b010 f   LIBCMT:gs_report.obj
 0001:0002a024       __report_securityfailure   000000018002b024 f   LIBCMT:gs_report.obj
 0001:0002a1a4       ??0bad_array_new_length@std@@QEAA@AEBV01@@Z 000000018002b1a4 f i LIBCMT:throw_bad_alloc.obj
 0001:0002a1e4       ??0bad_array_new_length@std@@QEAA@XZ 000000018002b1e4 f i LIBCMT:throw_bad_alloc.obj
 0001:0002a204       ?__scrt_throw_std_bad_alloc@@YAXXZ 000000018002b204 f   LIBCMT:throw_bad_alloc.obj
 0001:0002a224       ?__scrt_throw_std_bad_array_new_length@@YAXXZ 000000018002b224 f   LIBCMT:throw_bad_alloc.obj
 0001:0002a244       ??3@YAXPEAX@Z              000000018002b244 f   LIBCMT:delete_scalar.obj
 0001:0002a24c       __security_init_cookie     000000018002b24c f   LIBCMT:gs_support.obj
 0001:0002a2f8       DllMain                    000000018002b2f8 f   LIBCMT:dll_dllmain_stub.obj
 0001:0002a2f8       _get_startup_argv_mode     000000018002b2f8 f   LIBCMT:argv_mode.obj
 0001:0002a300       ?__scrt_initialize_type_info@@YAXXZ 000000018002b300 f   LIBCMT:tncleanup.obj
 0001:0002a310       ?__scrt_uninitialize_type_info@@YAXXZ 000000018002b310 f   LIBCMT:tncleanup.obj
 0001:0002a31c       __local_stdio_printf_options 000000018002b31c f i LIBCMT:default_local_stdio_options.obj
 0001:0002a324       __local_stdio_scanf_options 000000018002b324 f i LIBCMT:default_local_stdio_options.obj
 0001:0002a32c       __scrt_initialize_default_local_stdio_options 000000018002b32c f   LIBCMT:default_local_stdio_options.obj
 0001:0002a348       __scrt_acquire_startup_lock 000000018002b348 f   LIBCMT:utility.obj
 0001:0002a384       __scrt_dllmain_after_initialize_c 000000018002b384 f   LIBCMT:utility.obj
 0001:0002a3b8       __scrt_dllmain_before_initialize_c 000000018002b3b8 f   LIBCMT:utility.obj
 0001:0002a3d0       __scrt_dllmain_crt_thread_attach 000000018002b3d0 f   LIBCMT:utility.obj
 0001:0002a3f8       __scrt_dllmain_crt_thread_detach 000000018002b3f8 f   LIBCMT:utility.obj
 0001:0002a410       __scrt_dllmain_exception_filter 000000018002b410 f   LIBCMT:utility.obj
 0001:0002a470       __scrt_dllmain_uninitialize_c 000000018002b470 f   LIBCMT:utility.obj
 0001:0002a4a0       __scrt_dllmain_uninitialize_critical 000000018002b4a0 f   LIBCMT:utility.obj
 0001:0002a4b4       __scrt_initialize_crt      000000018002b4b4 f   LIBCMT:utility.obj
 0001:0002a500       __scrt_initialize_onexit_tables 000000018002b500 f   LIBCMT:utility.obj
 0001:0002a5d8       __scrt_is_nonwritable_in_current_image 000000018002b5d8 f   LIBCMT:utility.obj
 0001:0002a674       __scrt_release_startup_lock 000000018002b674 f   LIBCMT:utility.obj
 0001:0002a698       __scrt_uninitialize_crt    000000018002b698 f   LIBCMT:utility.obj
 0001:0002a6c4       __scrt_get_dyn_tls_init_callback 000000018002b6c4 f   LIBCMT:dyn_tls_init.obj
 0001:0002a6cc       __crt_debugger_hook        000000018002b6cc f   LIBCMT:utility_desktop.obj
 0001:0002a6d4       __scrt_fastfail            000000018002b6d4 f   LIBCMT:utility_desktop.obj
 0001:0002a820       _RTC_Initialize            000000018002b820 f   LIBCMT:_initsect_.obj
 0001:0002a85c       _RTC_Terminate             000000018002b85c f   LIBCMT:_initsect_.obj
 0001:0002a8a0       __isa_available_init       000000018002b8a0 f   LIBCMT:_cpu_disp_.obj
 0001:0002aa5c       __scrt_is_ucrt_dll_in_use  000000018002ba5c f   LIBCMT:ucrt_detection.obj
 0001:0002aa68       ??$_CallSETranslator@V__FrameHandler3@@@@YAHPEAUEHExceptionRecord@@PEA_KPEAU_CONTEXT@@PEAU_xDISPATCHER_CONTEXT@@PEBU_s_FuncInfo@@K1@Z 000000018002ba68 f i libvcruntime:risctrnsctrl.obj
 0001:0002aabc       ?CatchTryBlock@__FrameHandler3@@SAPEBU_s_TryBlockMapEntry@@PEBU_s_FuncInfo@@H@Z 000000018002babc f   libvcruntime:risctrnsctrl.obj
 0001:0002ab14       ?ExecutionInCatch@__FrameHandler3@@SA_NPEAU_xDISPATCHER_CONTEXT@@PEBU_s_FuncInfo@@@Z 000000018002bb14 f   libvcruntime:risctrnsctrl.obj
 0001:0002ab40       ?FrameUnwindToEmptyState@__FrameHandler3@@SAXPEA_KPEAU_xDISPATCHER_CONTEXT@@PEBU_s_FuncInfo@@@Z 000000018002bb40 f   libvcruntime:risctrnsctrl.obj
 0001:0002aba4       ?GetEstablisherFrame@__FrameHandler3@@SAPEA_KPEA_KPEAU_xDISPATCHER_CONTEXT@@PEBU_s_FuncInfo@@0@Z 000000018002bba4 f   libvcruntime:risctrnsctrl.obj
 0001:0002ac70       ?GetRangeOfTrysToCheck@__FrameHandler3@@SA?AU?$pair@Viterator@TryBlockMap@__FrameHandler3@@V123@@std@@AEAVTryBlockMap@1@HH@Z 000000018002bc70 f   libvcruntime:risctrnsctrl.obj
 0001:0002adcc       ?UnwindNestedFrames@__FrameHandler3@@SAXPEA_KPEAUEHExceptionRecord@@PEAU_CONTEXT@@0PEAXPEBU_s_FuncInfo@@HHPEBU_s_HandlerType@@PEAU_xDISPATCHER_CONTEXT@@E@Z 000000018002bdcc f   libvcruntime:risctrnsctrl.obj
 0001:0002aef0       _CreateFrameInfo           000000018002bef0 f   libvcruntime:risctrnsctrl.obj
 0001:0002af2c       _FindAndUnlinkFrame        000000018002bf2c f   libvcruntime:risctrnsctrl.obj
 0001:0002af80       _GetImageBase              000000018002bf80 f   libvcruntime:risctrnsctrl.obj
 0001:0002af94       _GetThrowImageBase         000000018002bf94 f   libvcruntime:risctrnsctrl.obj
 0001:0002afa8       _SetImageBase              000000018002bfa8 f   libvcruntime:risctrnsctrl.obj
 0001:0002afc0       _SetThrowImageBase         000000018002bfc0 f   libvcruntime:risctrnsctrl.obj
 0001:0002afd8       __CxxFrameHandler3         000000018002bfd8 f   libvcruntime:risctrnsctrl.obj
 0001:0002b058       __DestructExceptionObject  000000018002c058 f   libvcruntime:ehhelpers.obj
 0001:0002b0cc       ?_CallMemberFunction0@@YAXQEAX0@Z 000000018002c0cc f i libvcruntime:ehhelpers.obj
 0001:0002b0d0       _IsExceptionObjectToBeDestroyed 000000018002c0d0 f   libvcruntime:ehhelpers.obj
 0001:0002b100       __AdjustPointer            000000018002c100 f   libvcruntime:ehhelpers.obj
 0001:0002b124       __FrameUnwindFilter        000000018002c124 f   libvcruntime:ehhelpers.obj
 0001:0002b170       __std_terminate            000000018002c170 f   libvcruntime:ehhelpers.obj
 0001:0002b17c       __std_exception_copy       000000018002c17c f   libvcruntime:std_exception.obj
 0001:0002b20c       __std_exception_destroy    000000018002c20c f   libvcruntime:std_exception.obj
 0001:0002b234       _CxxThrowException         000000018002c234 f   libvcruntime:throw.obj
 0001:0002b310       memcpy_repmovs             000000018002c310 f   libvcruntime:memcpy.obj
 0001:0002b330       memmove                    000000018002c330 f   libvcruntime:memcpy.obj
 0001:0002b330       memcpy                     000000018002c330 f   libvcruntime:memcpy.obj
 0001:0002b780       memset_repmovs             000000018002c780 f   libvcruntime:memset.obj
 0001:0002b7a0       memset                     000000018002c7a0 f   libvcruntime:memset.obj
 0001:0002b930       __C_specific_handler       000000018002c930 f   libvcruntime:_riscchandler_.obj
 0001:0002bb3c       __std_type_info_compare    000000018002cb3c f   libvcruntime:std_type_info.obj
 0001:0002bb64       __std_type_info_destroy_list 000000018002cb64 f   libvcruntime:std_type_info.obj
 0001:0002bb90       __vcrt_initialize          000000018002cb90 f   libvcruntime:initialization.obj
 0001:0002bbc4       __vcrt_thread_attach       000000018002cbc4 f   libvcruntime:initialization.obj
 0001:0002bbd8       __vcrt_thread_detach       000000018002cbd8 f   libvcruntime:initialization.obj
 0001:0002bbec       __vcrt_uninitialize        000000018002cbec f   libvcruntime:initialization.obj
 0001:0002bc0c       __vcrt_uninitialize_critical 000000018002cc0c f   libvcruntime:initialization.obj
 0001:0002bc1c       __vcrt_freefls             000000018002cc1c f   libvcruntime:per_thread_data.obj
 0001:0002bc3c       __vcrt_freeptd             000000018002cc3c f   libvcruntime:per_thread_data.obj
 0001:0002bc8c       __vcrt_getptd              000000018002cc8c f   libvcruntime:per_thread_data.obj
 0001:0002bca8       __vcrt_getptd_noexit       000000018002cca8 f   libvcruntime:per_thread_data.obj
 0001:0002bd74       __vcrt_initialize_ptd      000000018002cd74 f   libvcruntime:per_thread_data.obj
 0001:0002bdc8       __vcrt_uninitialize_ptd    000000018002cdc8 f   libvcruntime:per_thread_data.obj
 0001:0002bdec       ?GetCurrentState@__FrameHandler3@@SAHPEA_KPEAU_xDISPATCHER_CONTEXT@@PEBU_s_FuncInfo@@@Z 000000018002cdec f   libvcruntime:ehstate.obj
 0001:0002be14       ?GetUnwindTryBlock@__FrameHandler3@@SAHPEA_KPEAU_xDISPATCHER_CONTEXT@@PEBU_s_FuncInfo@@@Z 000000018002ce14 f   libvcruntime:ehstate.obj
 0001:0002be40       ?SetState@__FrameHandler3@@SAXPEA_KPEBU_s_FuncInfo@@H@Z 000000018002ce40 f   libvcruntime:ehstate.obj
 0001:0002be4c       ?SetUnwindTryBlock@__FrameHandler3@@SAXPEA_KPEAU_xDISPATCHER_CONTEXT@@PEBU_s_FuncInfo@@H@Z 000000018002ce4c f   libvcruntime:ehstate.obj
 0001:0002be88       ?StateFromControlPc@__FrameHandler3@@SAHPEBU_s_FuncInfo@@PEAU_xDISPATCHER_CONTEXT@@@Z 000000018002ce88 f   libvcruntime:ehstate.obj
 0001:0002be90       ?StateFromIp@__FrameHandler3@@SAHPEBU_s_FuncInfo@@PEAU_xDISPATCHER_CONTEXT@@_K@Z 000000018002ce90 f   libvcruntime:ehstate.obj
 0001:0002c91c       ??$TypeMatchHelper@$$CBU_s_HandlerType@@@@YAHPEBU_s_HandlerType@@PEBU_s_CatchableType@@PEBU_s_ThrowInfo@@@Z 000000018002d91c f i libvcruntime:frame.obj
 0001:0002ca60       ??$__InternalCxxFrameHandler@V__FrameHandler3@@@@YA?AW4_EXCEPTION_DISPOSITION@@PEAUEHExceptionRecord@@PEA_KPEAU_CONTEXT@@PEAU_xDISPATCHER_CONTEXT@@PEBU_s_FuncInfo@@H1E@Z 000000018002da60 f i libvcruntime:frame.obj
 0001:0002cca8       ??0bad_exception@std@@QEAA@AEBV01@@Z 000000018002dca8 f i libvcruntime:frame.obj
 0001:0002cce8       ??0bad_exception@std@@QEAA@XZ 000000018002dce8 f i libvcruntime:frame.obj
 0001:0002cd08       ?CxxCallCatchBlock@__FrameHandler3@@SAPEAXPEAU_EXCEPTION_RECORD@@@Z 000000018002dd08 f   libvcruntime:frame.obj
 0001:0002cf7c       ?FrameUnwindToState@__FrameHandler3@@SAXPEA_KPEAU_xDISPATCHER_CONTEXT@@PEBU_s_FuncInfo@@H@Z 000000018002df7c f   libvcruntime:frame.obj
 0001:0002d110       ?GetHandlerSearchState@__FrameHandler3@@SAHPEA_KPEAU_xDISPATCHER_CONTEXT@@PEBU_s_FuncInfo@@@Z 000000018002e110 f i libvcruntime:frame.obj
 0001:0002d314       ?_CallMemberFunction1@@YAXQEAX00@Z 000000018002e314 f i libvcruntime:frame.obj
 0001:0002d320       ?_CallMemberFunction2@@YAXQEAX00H@Z 000000018002e320 f i libvcruntime:frame.obj
 0001:0002d340       _NLG_Notify                000000018002e340 f   libvcruntime:_notify_.obj
 0001:0002d360       __NLG_Dispatch2            000000018002e360 f   libvcruntime:_notify_.obj
 0001:0002d370       __NLG_Return2              000000018002e370 f   libvcruntime:_notify_.obj
 0001:0002d374       __except_validate_context_record 000000018002e374 f   libvcruntime:jbcxrval.obj
 0001:0002d3ac       __vcrt_initialize_locks    000000018002e3ac f   libvcruntime:locks.obj
 0001:0002d3f4       __vcrt_uninitialize_locks  000000018002e3f4 f   libvcruntime:locks.obj
 0001:0002d604       __vcrt_FlsAlloc            000000018002e604 f   libvcruntime:winapi_downlevel.obj
 0001:0002d64c       __vcrt_FlsFree             000000018002e64c f   libvcruntime:winapi_downlevel.obj
 0001:0002d694       __vcrt_FlsGetValue         000000018002e694 f   libvcruntime:winapi_downlevel.obj
 0001:0002d6dc       __vcrt_FlsSetValue         000000018002e6dc f   libvcruntime:winapi_downlevel.obj
 0001:0002d730       __vcrt_InitializeCriticalSectionEx 000000018002e730 f   libvcruntime:winapi_downlevel.obj
 0001:0002d794       __vcrt_initialize_winapi_thunks 000000018002e794 f   libvcruntime:winapi_downlevel.obj
 0001:0002d7c4       __vcrt_uninitialize_winapi_thunks 000000018002e7c4 f   libvcruntime:winapi_downlevel.obj
 0001:0002d804       __vcrt_initialize_pure_virtual_call_handler 000000018002e804 f   libvcruntime:purevirt_data.obj
 0001:0002d830       _CallSettingFrame          000000018002e830 f   libvcruntime:handlers.obj
 0001:0002d880       _CallSettingFrameEncoded   000000018002e880 f   libvcruntime:handlers.obj
 0001:0002d8c8       __acrt_call_reportfault    000000018002e8c8 f   libucrt:invalid_parameter.obj
 0001:0002da24       __acrt_initialize_invalid_parameter_handler 000000018002ea24 f   libucrt:invalid_parameter.obj
 0001:0002da2c       _invalid_parameter         000000018002ea2c f   libucrt:invalid_parameter.obj
 0001:0002dadc       _invalid_parameter_noinfo  000000018002eadc f   libucrt:invalid_parameter.obj
 0001:0002dafc       _invalid_parameter_noinfo_noreturn 000000018002eafc f   libucrt:invalid_parameter.obj
 0001:0002db2c       _invoke_watson             000000018002eb2c f   libucrt:invalid_parameter.obj
 0001:0002db74       ??0_LocaleUpdate@@QEAA@QEAU__crt_locale_pointers@@@Z 000000018002eb74 f i libucrt:stricmp.obj
 0001:0002dc10       ??1_LocaleUpdate@@QEAA@XZ  000000018002ec10 f i libucrt:stricmp.obj
 0001:0002dc24       terminate                  000000018002ec24 f   libucrt:terminate.obj
 0001:0002dc44       __acrt_initialize_new_handler 000000018002ec44 f   libucrt:new_handler.obj
 0001:0002dc4c       _callnewh                  000000018002ec4c f   libucrt:new_handler.obj
 0001:0002dc7c       _query_new_handler         000000018002ec7c f   libucrt:new_handler.obj
 0001:0002dcb0       malloc                     000000018002ecb0 f   libucrt:malloc.obj
 0001:0002dcb8       _initterm                  000000018002ecb8 f   libucrt:initterm.obj
 0001:0002dd1c       _initterm_e                000000018002ed1c f   libucrt:initterm.obj
 0001:0002dd5c       free                       000000018002ed5c f   libucrt:free.obj
 0001:0002dd70       _seh_filter_dll            000000018002ed70 f   libucrt:exception_filter.obj
 0001:0002dd84       _seh_filter_exe            000000018002ed84 f   libucrt:exception_filter.obj
 0001:0002e17c       __acrt_initialize_thread_local_exit_callback 000000018002f17c f   libucrt:exit.obj
 0001:0002e184       _cexit                     000000018002f184 f   libucrt:exit.obj
 0001:0002e194       _exit                      000000018002f194 f   libucrt:exit.obj
 0001:0002e1a0       _is_c_termination_complete 000000018002f1a0 f   libucrt:exit.obj
 0001:0002e36c       __acrt_allocate_buffer_for_argv 000000018002f36c f   libucrt:argv_parsing.obj
 0001:0002e3cc       _configure_narrow_argv     000000018002f3cc f   libucrt:argv_parsing.obj
 0001:0002e744       __dcrt_uninitialize_environments_nolock 000000018002f744 f   libucrt:environment_initialization.obj
 0001:0002e77c       _initialize_narrow_environment 000000018002f77c f   libucrt:environment_initialization.obj
 0001:0002e90c       _execute_onexit_table      000000018002f90c f   libucrt:onexit.obj
 0001:0002e948       _initialize_onexit_table   000000018002f948 f   libucrt:onexit.obj
 0001:0002e9c0       __acrt_uninitialize_command_line 000000018002f9c0 f   libucrt:argv_data.obj
 0001:0002eacc       __acrt_initialize          000000018002facc f   libucrt:initialization.obj
 0001:0002eae0       __acrt_thread_attach       000000018002fae0 f   libucrt:initialization.obj
 0001:0002eaf4       __acrt_thread_detach       000000018002faf4 f   libucrt:initialization.obj
 0001:0002eb04       __acrt_uninitialize        000000018002fb04 f   libucrt:initialization.obj
 0001:0002eb3c       __acrt_uninitialize_critical 000000018002fb3c f   libucrt:initialization.obj
 0001:0002eb4c       strcpy_s                   000000018002fb4c f   libucrt:strcpy_s.obj
 0001:0002ebbc       abort                      000000018002fbbc f   libucrt:abort.obj
 0001:0002ec14       calloc                     000000018002fc14 f   libucrt:calloc.obj
 0001:0002ec30       strncmp                    000000018002fc30 f   libucrt:strncmp.obj
 0001:0002ecb0       wcsncmp                    000000018002fcb0 f   libucrt:wcsncmp.obj
 0001:0002f054       __acrt_freeptd             0000000180030054 f   libucrt:per_thread_data.obj
 0001:0002f098       __acrt_getptd              0000000180030098 f   libucrt:per_thread_data.obj
 0001:0002f15c       __acrt_getptd_head         000000018003015c f   libucrt:per_thread_data.obj
 0001:0002f204       __acrt_getptd_noexit       0000000180030204 f   libucrt:per_thread_data.obj
 0001:0002f2bc       __acrt_initialize_ptd      00000001800302bc f   libucrt:per_thread_data.obj
 0001:0002f2f8       __acrt_uninitialize_ptd    00000001800302f8 f   libucrt:per_thread_data.obj
 0001:0002f31c       __acrt_errno_from_os_error 000000018003031c f   libucrt:errno.obj
 0001:0002f364       __acrt_errno_map_os_error  0000000180030364 f   libucrt:errno.obj
 0001:0002f3b4       __doserrno                 00000001800303b4 f   libucrt:errno.obj
 0001:0002f3d4       _errno                     00000001800303d4 f   libucrt:errno.obj
 0001:0002f3f4       __acrt_update_locale_info  00000001800303f4 f   libucrt:locale_update.obj
 0001:0002f428       __acrt_update_multibyte_info 0000000180030428 f   libucrt:locale_update.obj
 0001:0002f4cc       __acrt_set_locale_changed  00000001800304cc f   libucrt:wsetlocale.obj
 0001:0002f4d8       __acrt_uninitialize_locale 00000001800304d8 f   libucrt:wsetlocale.obj
 0001:0002f508       __acrt_initialize_locks    0000000180030508 f   libucrt:locks.obj
 0001:0002f550       __acrt_lock                0000000180030550 f   libucrt:locks.obj
 0001:0002f56c       __acrt_uninitialize_locks  000000018003056c f   libucrt:locks.obj
 0001:0002f5a4       __acrt_unlock              00000001800305a4 f   libucrt:locks.obj
 0001:0002f5c0       _malloc_base               00000001800305c0 f   libucrt:malloc_base.obj
 0001:0002f620       _free_base                 0000000180030620 f   libucrt:free_base.obj
 0001:0002f660       __acrt_get_process_end_policy 0000000180030660 f   libucrt:win_policies.obj
 0001:0002f69c       _calloc_base               000000018003069c f   libucrt:calloc_base.obj
 0001:0002fc7c       __acrt_expand_narrow_argv_wildcards 0000000180030c7c f   libucrt:argv_wildcards.obj
 0001:0002fc84       __acrt_GetModuleFileNameA  0000000180030c84 f   libucrt:getmodulefilenamea.obj
 0001:0003042c       __acrt_initialize_multibyte 000000018003142c f   libucrt:mbctype.obj
 0001:0003048c       __acrt_update_thread_multibyte_data 000000018003148c f   libucrt:mbctype.obj
 0001:000304a8       _setmbcp_nolock            00000001800314a8 f   libucrt:mbctype.obj
 0001:000307d8       _ismbblead                 00000001800317d8 f   libucrt:ismbbyte.obj
 0001:000307ec       __acrt_initialize_command_line 00000001800317ec f   libucrt:argv_data.obj
 0001:00030814       __acrt_MultiByteToWideChar 0000000180031814 f   libucrt:multibytetowidechar.obj
 0001:00030870       __acrt_WideCharToMultiByte 0000000180031870 f   libucrt:widechartomultibyte.obj
 0001:00030908       __dcrt_get_narrow_environment_from_os 0000000180031908 f   libucrt:get_environment_from_os.obj
 0001:00030a0c       _recalloc                  0000000180031a0c f   libucrt:recalloc.obj
 0001:00030a14       _recalloc_base             0000000180031a14 f   libucrt:recalloc.obj
 0001:00030c84       __acrt_AppPolicyGetProcessTerminationMethodInternal 0000000180031c84 f   libucrt:winapi_thunks.obj
 0001:00030cd4       __acrt_FlsAlloc            0000000180031cd4 f   libucrt:winapi_thunks.obj
 0001:00030d1c       __acrt_FlsFree             0000000180031d1c f   libucrt:winapi_thunks.obj
 0001:00030d64       __acrt_FlsGetValue         0000000180031d64 f   libucrt:winapi_thunks.obj
 0001:00030dac       __acrt_FlsSetValue         0000000180031dac f   libucrt:winapi_thunks.obj
 0001:00030e00       __acrt_InitializeCriticalSectionEx 0000000180031e00 f   libucrt:winapi_thunks.obj
 0001:00030e64       __acrt_LCMapStringEx       0000000180031e64 f   libucrt:winapi_thunks.obj
 0001:00030f40       __acrt_LocaleNameToLCID    0000000180031f40 f   libucrt:winapi_thunks.obj
 0001:00030f90       __acrt_initialize_winapi_thunks 0000000180031f90 f   libucrt:winapi_thunks.obj
 0001:00030fd8       __acrt_uninitialize_winapi_thunks 0000000180031fd8 f   libucrt:winapi_thunks.obj
 0001:0003101c       __acrt_initialize_heap     000000018003201c f   libucrt:heap_handle.obj
 0001:00031038       __acrt_uninitialize_heap   0000000180032038 f   libucrt:heap_handle.obj
 0001:0003122c       __acrt_initialize_lowio    000000018003222c f   libucrt:ioinit.obj
 0001:00031268       __acrt_uninitialize_lowio  0000000180032268 f   libucrt:ioinit.obj
 0001:000312a8       __acrt_execute_initializers 00000001800322a8 f   libucrt:shared_initialization.obj
 0001:00031328       __acrt_execute_uninitializers 0000000180032328 f   libucrt:shared_initialization.obj
 0001:000313ac       __acrt_get_sigabrt_handler 00000001800323ac f   libucrt:signal.obj
 0001:000313dc       __acrt_initialize_signal_handlers 00000001800323dc f   libucrt:signal.obj
 0001:000313fc       raise                      00000001800323fc f   libucrt:signal.obj
 0001:0003167c       __acrt_has_user_matherr    000000018003267c f   libucrt:matherr.obj
 0001:0003169c       __acrt_initialize_user_matherr 000000018003269c f   libucrt:matherr.obj
 0001:000316a4       __acrt_invoke_user_matherr 00000001800326a4 f   libucrt:matherr.obj
 0001:000318b0       __acrt_stdio_flush_nolock  00000001800328b0 f   libucrt:fflush.obj
 0001:0003192c       _fflush_nolock             000000018003292c f   libucrt:fflush.obj
 0001:00031978       _flushall                  0000000180032978 f   libucrt:fflush.obj
 0001:00031980       __acrt_initialize_stdio    0000000180032980 f   libucrt:_file.obj
 0001:00031aa0       __acrt_uninitialize_stdio  0000000180032aa0 f   libucrt:_file.obj
 0001:00031afc       _lock_file                 0000000180032afc f   libucrt:_file.obj
 0001:00031b08       _unlock_file               0000000180032b08 f   libucrt:_file.obj
 0001:00031b14       _mbtowc_l                  0000000180032b14 f   libucrt:mbtowc.obj
 0001:00031c90       mbtowc                     0000000180032c90 f   libucrt:mbtowc.obj
 0001:00031c98       _fileno                    0000000180032c98 f   libucrt:fileno.obj
 0001:00031cc0       __pctype_func              0000000180032cc0 f   libucrt:ctype.obj
 0001:00031cf0       __acrt_add_locale_ref      0000000180032cf0 f   libucrt:locale_refcounting.obj
 0001:00031d7c       __acrt_free_locale         0000000180032d7c f   libucrt:locale_refcounting.obj
 0001:00031ef4       __acrt_locale_add_lc_time_reference 0000000180032ef4 f   libucrt:locale_refcounting.obj
 0001:00031f1c       __acrt_locale_free_lc_time_if_unreferenced 0000000180032f1c f   libucrt:locale_refcounting.obj
 0001:00031f54       __acrt_locale_release_lc_time_reference 0000000180032f54 f   libucrt:locale_refcounting.obj
 0001:00031f7c       __acrt_release_locale_ref  0000000180032f7c f   libucrt:locale_refcounting.obj
 0001:00032024       __acrt_update_thread_locale_data 0000000180033024 f   libucrt:locale_refcounting.obj
 0001:00032094       _updatetlocinfoEx_nolock   0000000180033094 f   libucrt:locale_refcounting.obj
 0001:000320fc       _isleadbyte_l              00000001800330fc f i libucrt:_wctype.obj
 0001:00032454       __acrt_LCMapStringA        0000000180033454 f   libucrt:lcmapstringa.obj
 0001:000324ec       __acrt_locale_free_monetary 00000001800334ec f   libucrt:initmon.obj
 0001:000325f8       __acrt_locale_free_numeric 00000001800335f8 f   libucrt:initnum.obj
 0001:000326b8       __acrt_locale_free_time    00000001800336b8 f   libucrt:inittime.obj
 0001:000327c0       __acrt_GetStringTypeA      00000001800337c0 f   libucrt:getstringtypea.obj
 0001:00032950       _query_new_mode            0000000180033950 f   libucrt:new_mode.obj
 0001:00032960       qsort                      0000000180033960 f   libucrt:qsort.obj
 0001:00032d10       strncpy_s                  0000000180033d10 f   libucrt:strncpy_s.obj
 0001:00032ea0       strpbrk                    0000000180033ea0 f   libucrt:strpbrk.obj
 0001:00033280       ??$__acrt_convert_wcs_mbs@D_W$$A6A_KPEA_WPEBD_KPEAU__crt_locale_pointers@@@ZU__crt_win32_buffer_internal_dynamic_resizing@@@@YAHQEBDAEAV?$__crt_win32_buffer@_WU__crt_win32_buffer_internal_dynamic_resizing@@@@A6A_KPEA_WPEBD_KPEAU__crt_locale_pointers@@@Z5@Z 0000000180034280 f i libucrt:findfirstfileexa.obj
 0001:00033388       __acrt_FindFirstFileExA    0000000180034388 f   libucrt:findfirstfileexa.obj
 0001:0003342c       ??$__acrt_convert_wcs_mbs@_WD$$A6A_KPEADPEB_W_KPEAU__crt_locale_pointers@@@ZU__crt_win32_buffer_no_resizing@@@@YAHQEB_WAEAV?$__crt_win32_buffer@DU__crt_win32_buffer_no_resizing@@@@A6A_KPEADPEB_W_KPEAU__crt_locale_pointers@@@Z5@Z 000000018003442c f i libucrt:findnextfilea.obj
 0001:000334f8       __acrt_FindNextFileA       00000001800344f8 f   libucrt:findnextfilea.obj
 0001:0003362c       _mbsdec                    000000018003462c f   libucrt:mbsdec.obj
 0001:00033634       _mbsdec_l                  0000000180034634 f   libucrt:mbsdec.obj
 0001:000338cc       _mbstowcs_l                00000001800348cc f   libucrt:mbstowcs.obj
 0001:000338d4       mbstowcs                   00000001800348d4 f   libucrt:mbstowcs.obj
 0001:00033908       _msize                     0000000180034908 f   libucrt:msize.obj
 0001:00033910       _msize_base                0000000180034910 f   libucrt:msize.obj
 0001:0003394c       _realloc_base              000000018003494c f   libucrt:realloc_base.obj
 0001:00033ab0       __acrt_DownlevelLocaleNameToLCID 0000000180034ab0 f   libucrt:lcidtoname_downlevel.obj
 0001:00033ae4       __acrt_lowio_create_handle_array 0000000180034ae4 f   libucrt:osfinfo.obj
 0001:00033b7c       __acrt_lowio_destroy_handle_array 0000000180034b7c f   libucrt:osfinfo.obj
 0001:00033bcc       __acrt_lowio_ensure_fh_exists 0000000180034bcc f   libucrt:osfinfo.obj
 0001:00033c74       __acrt_lowio_lock_fh       0000000180034c74 f   libucrt:osfinfo.obj
 0001:00033c98       __acrt_lowio_unlock_fh     0000000180034c98 f   libucrt:osfinfo.obj
 0001:00033cbc       _free_osfhnd               0000000180034cbc f   libucrt:osfinfo.obj
 0001:00033d78       _get_osfhandle             0000000180034d78 f   libucrt:osfinfo.obj
 0001:00033e7c       _commit                    0000000180034e7c f   libucrt:commit.obj
 0001:000344b8       _write                     00000001800354b8 f   libucrt:write.obj
 0001:000345a4       _write_nolock              00000001800355a4 f   libucrt:write.obj
 0001:00034884       _fcloseall                 0000000180035884 f   libucrt:closeall.obj
 0001:00034938       __acrt_stdio_free_buffer_nolock 0000000180035938 f   libucrt:_freebuf.obj
 0001:00034978       _isatty                    0000000180035978 f   libucrt:isatty.obj
 0001:000349d8       ?__mbrtowc_utf8@__crt_mbstring@@YA_KPEA_WPEBD_KPEAU_Mbstatet@@@Z 00000001800359d8 f   libucrt:mbrtowc.obj
 0001:00034a14       ?__mbsrtowcs_utf8@__crt_mbstring@@YA_KPEA_WPEAPEBD_KPEAU_Mbstatet@@@Z 0000000180035a14 f   libucrt:mbrtowc.obj
 0001:00034b8c       __strncnt                  0000000180035b8c f   libucrt:strncnt.obj
 0001:00034f0c       _wcstombs_l                0000000180035f0c f   libucrt:wcstombs.obj
 0001:00034f14       _query_app_type            0000000180035f14 f   libucrt:report_runtime_error.obj
 0001:00034fb8       _lseeki64_nolock           0000000180035fb8 f   libucrt:lseek.obj
 0001:00034fc0       _putwch_nolock             0000000180035fc0 f   libucrt:putwch.obj
 0001:00034ffc       _fclose_nolock             0000000180035ffc f   libucrt:fclose.obj
 0001:00035080       fclose                     0000000180036080 f   libucrt:fclose.obj
 0001:000350e4       ?__mbrtoc32_utf8@__crt_mbstring@@YA_KPEA_UPEBD_KPEAU_Mbstatet@@@Z 00000001800360e4 f   libucrt:mbrtoc32.obj
 0001:000352c0       log10                      00000001800362c0 f   libucrt:log10.obj
 0001:0003586c       ?__wcsrtombs_utf8@__crt_mbstring@@YA_KPEADPEAPEB_W_KPEAU_Mbstatet@@@Z 000000018003686c f   libucrt:wcrtomb.obj
 0001:00035988       __dcrt_lowio_ensure_console_output_initialized 0000000180036988 f   libucrt:initcon.obj
 0001:000359dc       __dcrt_terminate_console_output 00000001800369dc f   libucrt:initcon.obj
 0001:000359f8       __dcrt_write_console       00000001800369f8 f   libucrt:initcon.obj
 0001:00035b2c       _close                     0000000180036b2c f   libucrt:close.obj
 0001:00035bd0       _close_nolock              0000000180036bd0 f   libucrt:close.obj
 0001:00035c8c       ?__acrt_stdio_free_stream@@YAXV__crt_stdio_stream@@@Z 0000000180036c8c f   libucrt:stream.obj
 0001:00035dcc       _handle_error              0000000180036dcc f   libucrt:libm_error.obj
 0001:00035f00       __acrt_initialize_fma3     0000000180036f00 f   libucrt:fma3_available.obj
 0001:00035f70       _log10_special             0000000180036f70 f   libucrt:log_special.obj
 0001:00036028       ?__c16rtomb_utf8@__crt_mbstring@@YA_KPEAD_SPEAU_Mbstatet@@@Z 0000000180037028 f   libucrt:c16rtomb.obj
 0001:000360e0       _get_fpsr                  00000001800370e0 f   libucrt:fpsr.obj
 0001:000360f0       _set_fpsr                  00000001800370f0 f   libucrt:fpsr.obj
 0001:000360fa       _fclrf                     00000001800370fa f   libucrt:fpsr.obj
 0001:0003610e       _frnd                      000000018003710e f   libucrt:fpsr.obj
 0001:00036130       _raise_exc                 0000000180037130 f   libucrt:fpexcept.obj
 0001:00036158       _raise_exc_ex              0000000180037158 f   libucrt:fpexcept.obj
 0001:00036468       _set_errno_from_matherr    0000000180037468 f   libucrt:fpexcept.obj
 0001:00036498       _clrfp                     0000000180037498 f   libucrt:fpctrl.obj
 0001:000364b8       _ctrlfp                    00000001800374b8 f   libucrt:fpctrl.obj
 0001:00036534       _set_statfp                0000000180037534 f   libucrt:fpctrl.obj
 0001:00036554       _statfp                    0000000180037554 f   libucrt:fpctrl.obj
 0001:00036568       ?__c32rtomb_utf8@__crt_mbstring@@YA_KPEAD_UPEAU_Mbstatet@@@Z 0000000180037568 f   libucrt:c32rtomb.obj
 0001:00036620       c32rtomb                   0000000180037620 f   libucrt:c32rtomb.obj
 0001:00036625       IsProcessorFeaturePresent  0000000180037625 f   kernel32:KERNEL32.dll
 0001:00036630       _FindPESection             0000000180037630 f   LIBCMT:pesect.obj
 0001:00036680       _IsNonwritableInCurrentImage 0000000180037680 f   LIBCMT:pesect.obj
 0001:000366d0       _ValidateImageBase         00000001800376d0 f   LIBCMT:pesect.obj
 0001:00036710       __chkstk                   0000000180037710 f   LIBCMT:_chkstk_.obj
 0001:00036710       _alloca_probe              0000000180037710 f   LIBCMT:_chkstk_.obj
 0001:00036780       memcmp                     0000000180037780 f   libvcruntime:memcmp.obj
 0001:00036860       _guard_dispatch_icall_nop  0000000180037860 f   LIBCMT:_guard_dispatch_.obj
 0002:00000000       __imp_WriteConsoleW        0000000180039000     kernel32:KERNEL32.dll
 0002:00000008       __imp_CloseHandle          0000000180039008     kernel32:KERNEL32.dll
 0002:00000010       __imp_CreateFileW          0000000180039010     kernel32:KERNEL32.dll
 0002:00000018       __imp_SetFilePointerEx     0000000180039018     kernel32:KERNEL32.dll
 0002:00000020       __imp_GetConsoleMode       0000000180039020     kernel32:KERNEL32.dll
 0002:00000028       __imp_GetConsoleCP         0000000180039028     kernel32:KERNEL32.dll
 0002:00000030       __imp_WriteFile            0000000180039030     kernel32:KERNEL32.dll
 0002:00000038       __imp_FlushFileBuffers     0000000180039038     kernel32:KERNEL32.dll
 0002:00000040       __imp_SetStdHandle         0000000180039040     kernel32:KERNEL32.dll
 0002:00000048       __imp_HeapReAlloc          0000000180039048     kernel32:KERNEL32.dll
 0002:00000050       __imp_HeapSize             0000000180039050     kernel32:KERNEL32.dll
 0002:00000058       __imp_GetStringTypeW       0000000180039058     kernel32:KERNEL32.dll
 0002:00000060       __imp_GetFileType          0000000180039060     kernel32:KERNEL32.dll
 0002:00000068       __imp_GetStdHandle         0000000180039068     kernel32:KERNEL32.dll
 0002:00000070       __imp_GetProcessHeap       0000000180039070     kernel32:KERNEL32.dll
 0002:00000078       __imp_LCMapStringW         0000000180039078     kernel32:KERNEL32.dll
 0002:00000080       __imp_FreeEnvironmentStringsW 0000000180039080     kernel32:KERNEL32.dll
 0002:00000088       __imp_GetEnvironmentStringsW 0000000180039088     kernel32:KERNEL32.dll
 0002:00000090       __imp_MultiByteToWideChar  0000000180039090     kernel32:KERNEL32.dll
 0002:00000098       __imp_GetCommandLineW      0000000180039098     kernel32:KERNEL32.dll
 0002:000000a0       __imp_GetCommandLineA      00000001800390a0     kernel32:KERNEL32.dll
 0002:000000a8       __imp_GetCPInfo            00000001800390a8     kernel32:KERNEL32.dll
 0002:000000b0       __imp_GetOEMCP             00000001800390b0     kernel32:KERNEL32.dll
 0002:000000b8       __imp_GetACP               00000001800390b8     kernel32:KERNEL32.dll
 0002:000000c0       __imp_IsValidCodePage      00000001800390c0     kernel32:KERNEL32.dll
 0002:000000c8       __imp_FindNextFileW        00000001800390c8     kernel32:KERNEL32.dll
 0002:000000d0       __imp_FindFirstFileExW     00000001800390d0     kernel32:KERNEL32.dll
 0002:000000d8       __imp_FindClose            00000001800390d8     kernel32:KERNEL32.dll
 0002:000000e0       __imp_HeapFree             00000001800390e0     kernel32:KERNEL32.dll
 0002:000000e8       __imp_HeapAlloc            00000001800390e8     kernel32:KERNEL32.dll
 0002:000000f0       __imp_GetModuleFileNameW   00000001800390f0     kernel32:KERNEL32.dll
 0002:000000f8       __imp_GetModuleHandleExW   00000001800390f8     kernel32:KERNEL32.dll
 0002:00000100       __imp_ExitProcess          0000000180039100     kernel32:KERNEL32.dll
 0002:00000108       __imp_LoadLibraryExW       0000000180039108     kernel32:KERNEL32.dll
 0002:00000110       __imp_FreeLibrary          0000000180039110     kernel32:KERNEL32.dll
 0002:00000118       __imp_DeleteCriticalSection 0000000180039118     kernel32:KERNEL32.dll
 0002:00000120       __imp_LeaveCriticalSection 0000000180039120     kernel32:KERNEL32.dll
 0002:00000128       __imp_EnterCriticalSection 0000000180039128     kernel32:KERNEL32.dll
 0002:00000130       __imp_EncodePointer        0000000180039130     kernel32:KERNEL32.dll
 0002:00000138       __imp_InterlockedFlushSList 0000000180039138     kernel32:KERNEL32.dll
 0002:00000140       __imp_RaiseException       0000000180039140     kernel32:KERNEL32.dll
 0002:00000148       __imp_RtlPcToFileHeader    0000000180039148     kernel32:KERNEL32.dll
 0002:00000150       __imp_RtlUnwindEx          0000000180039150     kernel32:KERNEL32.dll
 0002:00000158       __imp_GetStartupInfoW      0000000180039158     kernel32:KERNEL32.dll
 0002:00000160       __imp_IsDebuggerPresent    0000000180039160     kernel32:KERNEL32.dll
 0002:00000168       __imp_InitializeSListHead  0000000180039168     kernel32:KERNEL32.dll
 0002:00000170       __imp_GetCurrentThreadId   0000000180039170     kernel32:KERNEL32.dll
 0002:00000178       __imp_GetCurrentProcessId  0000000180039178     kernel32:KERNEL32.dll
 0002:00000180       __imp_QueryPerformanceCounter 0000000180039180     kernel32:KERNEL32.dll
 0002:00000188       __imp_IsProcessorFeaturePresent 0000000180039188     kernel32:KERNEL32.dll
 0002:00000190       __imp_TerminateProcess     0000000180039190     kernel32:KERNEL32.dll
 0002:00000198       __imp_GetCurrentProcess    0000000180039198     kernel32:KERNEL32.dll
 0002:000001a0       __imp_SetUnhandledExceptionFilter 00000001800391a0     kernel32:KERNEL32.dll
 0002:000001a8       __imp_UnhandledExceptionFilter 00000001800391a8     kernel32:KERNEL32.dll
 0002:000001b0       __imp_RtlVirtualUnwind     00000001800391b0     kernel32:KERNEL32.dll
 0002:000001b8       __imp_RtlLookupFunctionEntry 00000001800391b8     kernel32:KERNEL32.dll
 0002:000001c0       __imp_RtlCaptureContext    00000001800391c0     kernel32:KERNEL32.dll
 0002:000001c8       __imp_GetProcAddress       00000001800391c8     kernel32:KERNEL32.dll
 0002:000001d0       __imp_GetModuleHandleW     00000001800391d0     kernel32:KERNEL32.dll
 0002:000001d8       __imp_GetSystemTimeAsFileTime 00000001800391d8     kernel32:KERNEL32.dll
 0002:000001e0       __imp_TlsFree              00000001800391e0     kernel32:KERNEL32.dll
 0002:000001e8       __imp_TlsSetValue          00000001800391e8     kernel32:KERNEL32.dll
 0002:000001f0       __imp_TlsGetValue          00000001800391f0     kernel32:KERNEL32.dll
 0002:000001f8       __imp_TlsAlloc             00000001800391f8     kernel32:KERNEL32.dll
 0002:00000200       __imp_SwitchToThread       0000000180039200     kernel32:KERNEL32.dll
 0002:00000208       __imp_InitializeCriticalSectionAndSpinCount 0000000180039208     kernel32:KERNEL32.dll
 0002:00000210       __imp_SetLastError         0000000180039210     kernel32:KERNEL32.dll
 0002:00000218       __imp_WideCharToMultiByte  0000000180039218     kernel32:KERNEL32.dll
 0002:00000220       __imp_GetLastError         0000000180039220     kernel32:KERNEL32.dll
 0002:00000228       \177KERNEL32_NULL_THUNK_DATA 0000000180039228     kernel32:KERNEL32.dll
 0002:00000230       __imp_vips__filename_split8 0000000180039230     libvips:dfijs00702.o
 0002:00000238       __imp_vips_area_unref      0000000180039238     libvips:dfijs00891.o
 0002:00000240       __imp_vips_array_double_get_type 0000000180039240     libvips:dfijs00905.o
 0002:00000248       __imp_vips_array_image_get_type 0000000180039248     libvips:dfijs00911.o
 0002:00000250       __imp_vips_array_int_get_type 0000000180039250     libvips:dfijs00916.o
 0002:00000258       __imp_vips_blob_get_type   0000000180039258     libvips:dfijs00962.o
 0002:00000260       __imp_vips_blob_new        0000000180039260     libvips:dfijs00963.o
 0002:00000268       __imp_vips_cache_operation_buildp 0000000180039268     libvips:dfijs01015.o
 0002:00000270       __imp_vips_enum_from_nick  0000000180039270     libvips:dfijs01224.o
 0002:00000278       __imp_vips_error_buffer    0000000180039278     libvips:dfijs01234.o
 0002:00000280       __imp_vips_error_clear     0000000180039280     libvips:dfijs01235.o
 0002:00000288       __imp_vips_foreign_find_load 0000000180039288     libvips:dfijs01282.o
 0002:00000290       __imp_vips_foreign_find_load_buffer 0000000180039290     libvips:dfijs01283.o
 0002:00000298       __imp_vips_foreign_find_save 0000000180039298     libvips:dfijs01284.o
 0002:000002a0       __imp_vips_foreign_find_save_buffer 00000001800392a0     libvips:dfijs01285.o
 0002:000002a8       __imp_vips_format_sizeof_unsafe 00000001800392a8     libvips:dfijs01367.o
 0002:000002b0       __imp_vips_image_get_bands 00000001800392b0     libvips:dfijs01468.o
 0002:000002b8       __imp_vips_image_get_blob  00000001800392b8     libvips:dfijs01469.o
 0002:000002c0       __imp_vips_image_get_coding 00000001800392c0     libvips:dfijs01470.o
 0002:000002c8       __imp_vips_image_get_data  00000001800392c8     libvips:dfijs01471.o
 0002:000002d0       __imp_vips_image_get_double 00000001800392d0     libvips:dfijs01472.o
 0002:000002d8       __imp_vips_image_get_filename 00000001800392d8     libvips:dfijs01474.o
 0002:000002e0       __imp_vips_image_get_format 00000001800392e0     libvips:dfijs01475.o
 0002:000002e8       __imp_vips_image_get_height 00000001800392e8     libvips:dfijs01476.o
 0002:000002f0       __imp_vips_image_get_int   00000001800392f0     libvips:dfijs01478.o
 0002:000002f8       __imp_vips_image_get_interpretation 00000001800392f8     libvips:dfijs01479.o
 0002:00000300       __imp_vips_image_get_string 0000000180039300     libvips:dfijs01483.o
 0002:00000308       __imp_vips_image_get_type  0000000180039308     libvips:dfijs01484.o
 0002:00000310       __imp_vips_image_get_typeof 0000000180039310     libvips:dfijs01485.o
 0002:00000318       __imp_vips_image_get_width 0000000180039318     libvips:dfijs01486.o
 0002:00000320       __imp_vips_image_get_xoffset 0000000180039320     libvips:dfijs01487.o
 0002:00000328       __imp_vips_image_get_xres  0000000180039328     libvips:dfijs01488.o
 0002:00000330       __imp_vips_image_get_yoffset 0000000180039330     libvips:dfijs01489.o
 0002:00000338       __imp_vips_image_get_yres  0000000180039338     libvips:dfijs01490.o
 0002:00000340       __imp_vips_image_guess_interpretation 0000000180039340     libvips:dfijs01492.o
 0002:00000348       __imp_vips_image_new_from_image 0000000180039348     libvips:dfijs01514.o
 0002:00000350       __imp_vips_image_new_from_memory 0000000180039350     libvips:dfijs01516.o
 0002:00000358       __imp_vips_image_new_matrix 0000000180039358     libvips:dfijs01518.o
 0002:00000360       __imp_vips_image_new_matrix_from_array 0000000180039360     libvips:dfijs01519.o
 0002:00000368       __imp_vips_image_new_memory 0000000180039368     libvips:dfijs01521.o
 0002:00000370       __imp_vips_image_new_temp_file 0000000180039370     libvips:dfijs01523.o
 0002:00000378       __imp_vips_image_set_blob  0000000180039378     libvips:dfijs01536.o
 0002:00000380       __imp_vips_image_set_double 0000000180039380     libvips:dfijs01538.o
 0002:00000388       __imp_vips_image_set_int   0000000180039388     libvips:dfijs01539.o
 0002:00000390       __imp_vips_image_set_string 0000000180039390     libvips:dfijs01542.o
 0002:00000398       __imp_vips_image_write     0000000180039398     libvips:dfijs01545.o
 0002:000003a0       __imp_vips_image_write_to_memory 00000001800393a0     libvips:dfijs01550.o
 0002:000003a8       __imp_vips_interpolate_get_type 00000001800393a8     libvips:dfijs01565.o
 0002:000003b0       __imp_vips_interpolate_new 00000001800393b0     libvips:dfijs01572.o
 0002:000003b8       __imp_vips_object_get_argument 00000001800393b8     libvips:dfijs01701.o
 0002:000003c0       __imp_vips_object_get_type 00000001800393c0     libvips:dfijs01707.o
 0002:000003c8       __imp_vips_object_set_from_string 00000001800393c8     libvips:dfijs01724.o
 0002:000003d0       __imp_vips_object_unref_outputs 00000001800393d0     libvips:dfijs01731.o
 0002:000003d8       __imp_vips_operation_new   00000001800393d8     libvips:dfijs01746.o
 0002:000003e0       __imp_vips_value_get_array_double 00000001800393e0     libvips:dfijs02017.o
 0002:000003e8       __imp_vips_value_get_array_image 00000001800393e8     libvips:dfijs02018.o
 0002:000003f0       __imp_vips_value_get_array_int 00000001800393f0     libvips:dfijs02019.o
 0002:000003f8       __imp_vips_value_set_array_double 00000001800393f8     libvips:dfijs02027.o
 0002:00000400       __imp_vips_value_set_array_image 0000000180039400     libvips:dfijs02028.o
 0002:00000408       __imp_vips_value_set_array_int 0000000180039408     libvips:dfijs02029.o
 0002:00000418       __imp_g_object_get_property 0000000180039418     libgobject-2.0:djejs00127.o
 0002:00000420       __imp_g_object_ref         0000000180039420     libgobject-2.0:djejs00142.o
 0002:00000428       __imp_g_object_set_property 0000000180039428     libgobject-2.0:djejs00152.o
 0002:00000430       __imp_g_object_unref       0000000180039430     libgobject-2.0:djejs00160.o
 0002:00000438       __imp_g_param_spec_types   0000000180039438     libgobject-2.0:djejs00201.o
 0002:00000440       __imp_g_type_check_instance_cast 0000000180039440     libgobject-2.0:djejs00276.o
 0002:00000448       __imp_g_type_check_instance_is_a 0000000180039448     libgobject-2.0:djejs00277.o
 0002:00000450       __imp_g_value_dup_boxed    0000000180039450     libgobject-2.0:djejs00358.o
 0002:00000458       __imp_g_value_get_boolean  0000000180039458     libgobject-2.0:djejs00364.o
 0002:00000460       __imp_g_value_get_double   0000000180039460     libgobject-2.0:djejs00367.o
 0002:00000468       __imp_g_value_get_int      0000000180039468     libgobject-2.0:djejs00372.o
 0002:00000470       __imp_g_value_get_object   0000000180039470     libgobject-2.0:djejs00375.o
 0002:00000478       __imp_g_value_get_string   0000000180039478     libgobject-2.0:djejs00379.o
 0002:00000480       __imp_g_value_init         0000000180039480     libgobject-2.0:djejs00386.o
 0002:00000488       __imp_g_value_set_boolean  0000000180039488     libgobject-2.0:djejs00391.o
 0002:00000490       __imp_g_value_set_boxed    0000000180039490     libgobject-2.0:djejs00392.o
 0002:00000498       __imp_g_value_set_double   0000000180039498     libgobject-2.0:djejs00395.o
 0002:000004a0       __imp_g_value_set_enum     00000001800394a0     libgobject-2.0:djejs00396.o
 0002:000004a8       __imp_g_value_set_int      00000001800394a8     libgobject-2.0:djejs00401.o
 0002:000004b0       __imp_g_value_set_object   00000001800394b0     libgobject-2.0:djejs00404.o
 0002:000004b8       __imp_g_value_set_string   00000001800394b8     libgobject-2.0:djejs00412.o
 0002:000004c0       __imp_g_value_unset        00000001800394c0     libgobject-2.0:djejs00427.o
 0002:000004d0       __imp_g_assertion_message_expr 00000001800394d0     libglib-2.0:dzdjs00043.o
 0002:000004d8       __imp_g_log                00000001800394d8     libglib-2.0:dzdjs00631.o
 0002:000004e8       __guard_check_icall_fptr   00000001800394e8     LIBCMT:guard_support.obj
 0002:000004f0       __guard_dispatch_icall_fptr 00000001800394f0     LIBCMT:guard_support.obj
 0002:000004f8       __xc_a                     00000001800394f8     LIBCMT:initializers.obj
 0002:00000500       __xc_z                     0000000180039500     LIBCMT:initializers.obj
 0002:00000508       __xi_a                     0000000180039508     LIBCMT:initializers.obj
 0002:00000518       __acrt_multibyte_initializer 0000000180039518     libucrt:multibyte_initializer.obj
 0002:00000520       __acrt_stdio_initializer   0000000180039520     libucrt:stdio_initializer.obj
 0002:00000528       __acrt_tran_fma3_initializer 0000000180039528     libucrt:fma3_initializer.obj
 0002:00000530       __xi_z                     0000000180039530     LIBCMT:initializers.obj
 0002:00000538       __xp_a                     0000000180039538     LIBCMT:initializers.obj
 0002:00000540       __acrt_locale_terminator   0000000180039540     libucrt:locale_initializer.obj
 0002:00000548       __dcrt_console_output_terminator 0000000180039548     libucrt:console_output_initializer.obj
 0002:00000550       __acrt_stdio_terminator    0000000180039550     libucrt:stdio_initializer.obj
 0002:00000558       __xp_z                     0000000180039558     LIBCMT:initializers.obj
 0002:00000560       __xt_a                     0000000180039560     LIBCMT:initializers.obj
 0002:00000568       __xt_z                     0000000180039568     LIBCMT:initializers.obj
 0002:00000578       ??_7exception@std@@6B@     0000000180039578     libcpmt:xonce.obj
 0002:00000588       ??_C@_0BC@EOODALEL@Unknown?5exception@ 0000000180039588     libcpmt:xonce.obj
 0002:000005a8       ??_7runtime_error@std@@6B@ 00000001800395a8     libcpmt:xonce.obj
 0002:000005c0       ??_7_System_error@std@@6B@ 00000001800395c0     libcpmt:xonce.obj
 0002:000005d0       ??_C@_0O@BFJCFAAK@unknown?5error@ 00000001800395d0     libcpmt:xonce.obj
 0002:000005e8       ??_7bad_alloc@std@@6B@     00000001800395e8     libcpmt:xthrow.obj
 0002:000005f8       ??_C@_0P@GHFPNOJB@bad?5allocation@ 00000001800395f8     libcpmt:xthrow.obj
 0002:00000610       ??_7logic_error@std@@6B@   0000000180039610     libcpmt:xthrow.obj
 0002:00000628       ??_7length_error@std@@6B@  0000000180039628     libcpmt:xthrow.obj
 0002:00000d90       ??_C@_0BN@LKKBCCDB@address?5family?5not?5supported@ 0000000180039d90     libcpmt:syserror.obj
 0002:00000db0       ??_C@_0P@LDMLAFHI@address?5in?5use@ 0000000180039db0     libcpmt:syserror.obj
 0002:00000dc0       ??_C@_0BG@DHPCNBJB@address?5not?5available@ 0000000180039dc0     libcpmt:syserror.obj
 0002:00000dd8       ??_C@_0BC@DFIBIBIL@already?5connected@ 0000000180039dd8     libcpmt:syserror.obj
 0002:00000df0       ??_C@_0BH@CAKOHOMI@argument?5list?5too?5long@ 0000000180039df0     libcpmt:syserror.obj
 0002:00000e08       ??_C@_0BH@CGIMPKIM@argument?5out?5of?5domain@ 0000000180039e08     libcpmt:syserror.obj
 0002:00000e20       ??_C@_0M@KGHGGJGL@bad?5address@ 0000000180039e20     libcpmt:syserror.obj
 0002:00000e30       ??_C@_0BE@MPJPGCEO@bad?5file?5descriptor@ 0000000180039e30     libcpmt:syserror.obj
 0002:00000e48       ??_C@_0M@PMMIEFCP@bad?5message@ 0000000180039e48     libcpmt:syserror.obj
 0002:00000e58       ??_C@_0M@KPHOFDBE@broken?5pipe@ 0000000180039e58     libcpmt:syserror.obj
 0002:00000e68       ??_C@_0BD@MGNDDEGM@connection?5aborted@ 0000000180039e68     libcpmt:syserror.obj
 0002:00000e80       ??_C@_0BP@KAIHPOGN@connection?5already?5in?5progress@ 0000000180039e80     libcpmt:syserror.obj
 0002:00000ea0       ??_C@_0BD@PJLIIJEL@connection?5refused@ 0000000180039ea0     libcpmt:syserror.obj
 0002:00000eb8       ??_C@_0BB@IECNJNOI@connection?5reset@ 0000000180039eb8     libcpmt:syserror.obj
 0002:00000ed0       ??_C@_0BC@PPHBOELF@cross?5device?5link@ 0000000180039ed0     libcpmt:syserror.obj
 0002:00000ee8       ??_C@_0BN@KDMIFEIP@destination?5address?5required@ 0000000180039ee8     libcpmt:syserror.obj
 0002:00000f08       ??_C@_0BI@NGCEHDD@device?5or?5resource?5busy@ 0000000180039f08     libcpmt:syserror.obj
 0002:00000f20       ??_C@_0BE@JIDOCPHM@directory?5not?5empty@ 0000000180039f20     libcpmt:syserror.obj
 0002:00000f38       ??_C@_0BI@BNCLIGPB@executable?5format?5error@ 0000000180039f38     libcpmt:syserror.obj
 0002:00000f50       ??_C@_0M@MIDIAGJP@file?5exists@ 0000000180039f50     libcpmt:syserror.obj
 0002:00000f60       ??_C@_0P@DNAJLBJK@file?5too?5large@ 0000000180039f60     libcpmt:syserror.obj
 0002:00000f70       ??_C@_0BC@EJHOMAAK@filename?5too?5long@ 0000000180039f70     libcpmt:syserror.obj
 0002:00000f88       ??_C@_0BH@KEFGLDAF@function?5not?5supported@ 0000000180039f88     libcpmt:syserror.obj
 0002:00000fa0       ??_C@_0BB@DHFDFGDM@host?5unreachable@ 0000000180039fa0     libcpmt:syserror.obj
 0002:00000fb8       ??_C@_0BD@JPHBMONG@identifier?5removed@ 0000000180039fb8     libcpmt:syserror.obj
 0002:00000fd0       ??_C@_0BG@CDNPAGJK@illegal?5byte?5sequence@ 0000000180039fd0     libcpmt:syserror.obj
 0002:00000fe8       ??_C@_0CD@BNPLBMNA@inappropriate?5io?5control?5operat@ 0000000180039fe8     libcpmt:syserror.obj
 0002:00001010       ??_C@_0M@EGEKIIMP@interrupted@ 000000018003a010     libcpmt:syserror.obj
 0002:00001020       ??_C@_0BB@FCMFBGOM@invalid?5argument@ 000000018003a020     libcpmt:syserror.obj
 0002:00001038       ??_C@_0N@OHAFKDEK@invalid?5seek@ 000000018003a038     libcpmt:syserror.obj
 0002:00001048       ??_C@_08GLNPIFBN@io?5error@ 000000018003a048     libcpmt:syserror.obj
 0002:00001058       ??_C@_0P@FLLDBIDK@is?5a?5directory@ 000000018003a058     libcpmt:syserror.obj
 0002:00001068       ??_C@_0N@IFLPBIOP@message?5size@ 000000018003a068     libcpmt:syserror.obj
 0002:00001078       ??_C@_0N@KIIEAAIO@network?5down@ 000000018003a078     libcpmt:syserror.obj
 0002:00001088       ??_C@_0O@FNPDBHEE@network?5reset@ 000000018003a088     libcpmt:syserror.obj
 0002:00001098       ??_C@_0BE@IFNCKGE@network?5unreachable@ 000000018003a098     libcpmt:syserror.obj
 0002:000010b0       ??_C@_0BA@PFFCAOFK@no?5buffer?5space@ 000000018003a0b0     libcpmt:syserror.obj
 0002:000010c0       ??_C@_0BB@IEPBLJHK@no?5child?5process@ 000000018003a0c0     libcpmt:syserror.obj
 0002:000010d8       ??_C@_07PLECNNKG@no?5link@ 000000018003a0d8     libcpmt:syserror.obj
 0002:000010e0       ??_C@_0BC@NJECKMKE@no?5lock?5available@ 000000018003a0e0     libcpmt:syserror.obj
 0002:000010f8       ??_C@_0BF@PBGGPKKE@no?5message?5available@ 000000018003a0f8     libcpmt:syserror.obj
 0002:00001110       ??_C@_0L@EDOLMPAK@no?5message@ 000000018003a110     libcpmt:syserror.obj
 0002:00001120       ??_C@_0BD@EAMBFIDF@no?5protocol?5option@ 000000018003a120     libcpmt:syserror.obj
 0002:00001138       ??_C@_0BD@IJDJKDEA@no?5space?5on?5device@ 000000018003a138     libcpmt:syserror.obj
 0002:00001150       ??_C@_0BE@MKFDAFMP@no?5stream?5resources@ 000000018003a150     libcpmt:syserror.obj
 0002:00001168       ??_C@_0BK@IMCPHCBI@no?5such?5device?5or?5address@ 000000018003a168     libcpmt:syserror.obj
 0002:00001188       ??_C@_0P@FDINDDOK@no?5such?5device@ 000000018003a188     libcpmt:syserror.obj
 0002:00001198       ??_C@_0BK@NDOCBPGE@no?5such?5file?5or?5directory@ 000000018003a198     libcpmt:syserror.obj
 0002:000011b8       ??_C@_0BA@ENLPPKBN@no?5such?5process@ 000000018003a1b8     libcpmt:syserror.obj
 0002:000011c8       ??_C@_0BA@DOCPFFJG@not?5a?5directory@ 000000018003a1c8     libcpmt:syserror.obj
 0002:000011d8       ??_C@_0N@POEIPGGF@not?5a?5socket@ 000000018003a1d8     libcpmt:syserror.obj
 0002:000011e8       ??_C@_0N@LGAPMMPI@not?5a?5stream@ 000000018003a1e8     libcpmt:syserror.obj
 0002:000011f8       ??_C@_0O@GLMIBBEG@not?5connected@ 000000018003a1f8     libcpmt:syserror.obj
 0002:00001208       ??_C@_0BC@ENOOLCNF@not?5enough?5memory@ 000000018003a208     libcpmt:syserror.obj
 0002:00001220       ??_C@_0O@NHEDABJP@not?5supported@ 000000018003a220     libcpmt:syserror.obj
 0002:00001230       ??_C@_0BD@MOLBPMEA@operation?5canceled@ 000000018003a230     libcpmt:syserror.obj
 0002:00001248       ??_C@_0BG@KDKHOPCO@operation?5in?5progress@ 000000018003a248     libcpmt:syserror.obj
 0002:00001260       ??_C@_0BI@OHIEJAAB@operation?5not?5permitted@ 000000018003a260     libcpmt:syserror.obj
 0002:00001278       ??_C@_0BI@LNEGIFLN@operation?5not?5supported@ 000000018003a278     libcpmt:syserror.obj
 0002:00001290       ??_C@_0BG@OEMDKMEE@operation?5would?5block@ 000000018003a290     libcpmt:syserror.obj
 0002:000012a8       ??_C@_0L@BLPOFLNJ@owner?5dead@ 000000018003a2a8     libcpmt:syserror.obj
 0002:000012b8       ??_C@_0BC@CIJDGCDI@permission?5denied@ 000000018003a2b8     libcpmt:syserror.obj
 0002:000012d0       ??_C@_0P@FNPOCJBE@protocol?5error@ 000000018003a2d0     libcpmt:syserror.obj
 0002:000012e0       ??_C@_0BH@JPPPLHJB@protocol?5not?5supported@ 000000018003a2e0     libcpmt:syserror.obj
 0002:000012f8       ??_C@_0BG@EICBIHDP@read?5only?5file?5system@ 000000018003a2f8     libcpmt:syserror.obj
 0002:00001310       ??_C@_0BO@BJBOMOEJ@resource?5deadlock?5would?5occur@ 000000018003a310     libcpmt:syserror.obj
 0002:00001330       ??_C@_0BP@LKNGHENJ@resource?5unavailable?5try?5again@ 000000018003a330     libcpmt:syserror.obj
 0002:00001350       ??_C@_0BE@GOIPJJHG@result?5out?5of?5range@ 000000018003a350     libcpmt:syserror.obj
 0002:00001368       ??_C@_0BG@MPLKFPAE@state?5not?5recoverable@ 000000018003a368     libcpmt:syserror.obj
 0002:00001380       ??_C@_0P@DIIFGFCG@stream?5timeout@ 000000018003a380     libcpmt:syserror.obj
 0002:00001390       ??_C@_0P@IPFDMIFL@text?5file?5busy@ 000000018003a390     libcpmt:syserror.obj
 0002:000013a0       ??_C@_09KJPPMAOI@timed?5out@ 000000018003a3a0     libcpmt:syserror.obj
 0002:000013b0       ??_C@_0BO@HACHBEKI@too?5many?5files?5open?5in?5system@ 000000018003a3b0     libcpmt:syserror.obj
 0002:000013d0       ??_C@_0BE@GHAFMPAH@too?5many?5files?5open@ 000000018003a3d0     libcpmt:syserror.obj
 0002:000013e8       ??_C@_0P@HCOMKFCC@too?5many?5links@ 000000018003a3e8     libcpmt:syserror.obj
 0002:000013f8       ??_C@_0BO@EFGOJEF@too?5many?5symbolic?5link?5levels@ 000000018003a3f8     libcpmt:syserror.obj
 0002:00001418       ??_C@_0BA@KGKGOOJA@value?5too?5large@ 000000018003a418     libcpmt:syserror.obj
 0002:00001428       ??_C@_0BE@MIEJDDNH@wrong?5protocol?5type@ 000000018003a428     libcpmt:syserror.obj
 0002:00001440       ??_C@_1BK@MGMFAEKH@?$AAk?$AAe?$AAr?$AAn?$AAe?$AAl?$AA3?$AA2?$AA?4?$AAd?$AAl?$AAl@ 000000018003a440     libcpmt:winapisupp.obj
 0002:00001460       ??_C@_08KNHFBNJ@FlsAlloc@  000000018003a460     libcpmt:winapisupp.obj
 0002:00001470       ??_C@_07PEJMOBNF@FlsFree@  000000018003a470     libcpmt:winapisupp.obj
 0002:00001478       ??_C@_0M@GDNOONDI@FlsGetValue@ 000000018003a478     libcpmt:winapisupp.obj
 0002:00001488       ??_C@_0M@JCPCPOEF@FlsSetValue@ 000000018003a488     libcpmt:winapisupp.obj
 0002:00001498       ??_C@_0BM@HCFOFFN@InitializeCriticalSectionEx@ 000000018003a498     libcpmt:winapisupp.obj
 0002:000014b8       ??_C@_0BE@GPLMMCMH@InitOnceExecuteOnce@ 000000018003a4b8     libcpmt:winapisupp.obj
 0002:000014d0       ??_C@_0P@DLHPPCNH@CreateEventExW@ 000000018003a4d0     libcpmt:winapisupp.obj
 0002:000014e0       ??_C@_0BB@MEFPJLHN@CreateSemaphoreW@ 000000018003a4e0     libcpmt:winapisupp.obj
 0002:000014f8       ??_C@_0BD@KIEEOEEH@CreateSemaphoreExW@ 000000018003a4f8     libcpmt:winapisupp.obj
 0002:00001510       ??_C@_0BG@OGFAJCKC@CreateThreadpoolTimer@ 000000018003a510     libcpmt:winapisupp.obj
 0002:00001528       ??_C@_0BD@LPLEMMDI@SetThreadpoolTimer@ 000000018003a528     libcpmt:winapisupp.obj
 0002:00001540       ??_C@_0CA@FMNJENH@WaitForThreadpoolTimerCallbacks@ 000000018003a540     libcpmt:winapisupp.obj
 0002:00001560       ??_C@_0BF@DCFCCNOC@CloseThreadpoolTimer@ 000000018003a560     libcpmt:winapisupp.obj
 0002:00001578       ??_C@_0BF@FLABGKKM@CreateThreadpoolWait@ 000000018003a578     libcpmt:winapisupp.obj
 0002:00001590       ??_C@_0BC@MGCOHNA@SetThreadpoolWait@ 000000018003a590     libcpmt:winapisupp.obj
 0002:000015a8       ??_C@_0BE@OCIOMIMP@CloseThreadpoolWait@ 000000018003a5a8     libcpmt:winapisupp.obj
 0002:000015c0       ??_C@_0BJ@LKGHFHBO@FlushProcessWriteBuffers@ 000000018003a5c0     libcpmt:winapisupp.obj
 0002:000015e0       ??_C@_0BP@KALKKPMO@FreeLibraryWhenCallbackReturns@ 000000018003a5e0     libcpmt:winapisupp.obj
 0002:00001600       ??_C@_0BK@DFNBACLA@GetCurrentProcessorNumber@ 000000018003a600     libcpmt:winapisupp.obj
 0002:00001620       ??_C@_0BE@FKKLLFLM@CreateSymbolicLinkW@ 000000018003a620     libcpmt:winapisupp.obj
 0002:00001638       ??_C@_0BE@JOGNEJCI@GetCurrentPackageId@ 000000018003a638     libcpmt:winapisupp.obj
 0002:00001650       ??_C@_0P@CDHHOHKP@GetTickCount64@ 000000018003a650     libcpmt:winapisupp.obj
 0002:00001660       ??_C@_0BN@NEEHBBPO@GetFileInformationByHandleEx@ 000000018003a660     libcpmt:winapisupp.obj
 0002:00001680       ??_C@_0BL@KBBHGKCM@SetFileInformationByHandle@ 000000018003a680     libcpmt:winapisupp.obj
 0002:000016a0       ??_C@_0BP@FPNJPEJC@GetSystemTimePreciseAsFileTime@ 000000018003a6a0     libcpmt:winapisupp.obj
 0002:000016c0       ??_C@_0BM@HLJJNPAH@InitializeConditionVariable@ 000000018003a6c0     libcpmt:winapisupp.obj
 0002:000016e0       ??_C@_0BG@BFNILBLN@WakeConditionVariable@ 000000018003a6e0     libcpmt:winapisupp.obj
 0002:000016f8       ??_C@_0BJ@PGPPEPCC@WakeAllConditionVariable@ 000000018003a6f8     libcpmt:winapisupp.obj
 0002:00001718       ??_C@_0BJ@JEBJOJFJ@SleepConditionVariableCS@ 000000018003a718     libcpmt:winapisupp.obj
 0002:00001738       ??_C@_0BC@MMLHEBPB@InitializeSRWLock@ 000000018003a738     libcpmt:winapisupp.obj
 0002:00001750       ??_C@_0BI@OMNLIJDB@AcquireSRWLockExclusive@ 000000018003a750     libcpmt:winapisupp.obj
 0002:00001768       ??_C@_0BL@OGHFEMNA@TryAcquireSRWLockExclusive@ 000000018003a768     libcpmt:winapisupp.obj
 0002:00001788       ??_C@_0BI@HMIEPCNJ@ReleaseSRWLockExclusive@ 000000018003a788     libcpmt:winapisupp.obj
 0002:000017a0       ??_C@_0BK@LGACAGIC@SleepConditionVariableSRW@ 000000018003a7a0     libcpmt:winapisupp.obj
 0002:000017c0       ??_C@_0BF@GGPHFPJA@CreateThreadpoolWork@ 000000018003a7c0     libcpmt:winapisupp.obj
 0002:000017d8       ??_C@_0BF@NHDAIMMO@SubmitThreadpoolWork@ 000000018003a7d8     libcpmt:winapisupp.obj
 0002:000017f0       ??_C@_0BE@NPHIPNPD@CloseThreadpoolWork@ 000000018003a7f0     libcpmt:winapisupp.obj
 0002:00001808       ??_C@_0BA@IHGNDAEB@CompareStringEx@ 000000018003a808     libcpmt:winapisupp.obj
 0002:00001818       ??_C@_0BA@ONOKGCMP@GetLocaleInfoEx@ 000000018003a818     libcpmt:winapisupp.obj
 0002:00001828       ??_C@_0O@KKBNKAPF@LCMapStringEx@ 000000018003a828     libcpmt:winapisupp.obj
 0002:00001840       ??_7type_info@@6B@         000000018003a840     LIBCMT:std_type_info_static.obj
 0002:00001848       _pRawDllMain               000000018003a848     LIBCMT:dll_dllmain.obj
 0002:00001848       _pDefaultRawDllMain        000000018003a848     LIBCMT:dll_dllmain.obj
 0002:00001868       ??_7bad_array_new_length@std@@6B@ 000000018003a868     LIBCMT:throw_bad_alloc.obj
 0002:00001878       ??_C@_0BF@KINCDENJ@bad?5array?5new?5length@ 000000018003a878     LIBCMT:throw_bad_alloc.obj
 0002:00001928       _pDestructExceptionObject  000000018003a928     libvcruntime:ehhelpers.obj
 0002:00001978       ??_7bad_exception@std@@6B@ 000000018003a978     libvcruntime:frame.obj
 0002:00001988       ??_C@_0O@DPKOEFFH@bad?5exception@ 000000018003a988     libvcruntime:frame.obj
 0002:00001cd8       ??_C@_08EHJDFFNH@__based?$CI@ 000000018003acd8     libvcruntime:undname.obj
 0002:00001ce8       ??_C@_07KOLFKCDI@__cdecl@  000000018003ace8     libvcruntime:undname.obj
 0002:00001cf0       ??_C@_08GHMPAG@__pascal@   000000018003acf0     libvcruntime:undname.obj
 0002:00001d00       ??_C@_09IFJBGAPI@__stdcall@ 000000018003ad00     libvcruntime:undname.obj
 0002:00001d10       ??_C@_0L@NPHFGOKO@__thiscall@ 000000018003ad10     libvcruntime:undname.obj
 0002:00001d20       ??_C@_0L@JMKHOMEK@__fastcall@ 000000018003ad20     libvcruntime:undname.obj
 0002:00001d30       ??_C@_0N@BCKKPABJ@__vectorcall@ 000000018003ad30     libvcruntime:undname.obj
 0002:00001d40       ??_C@_09HIJEGCPM@__clrcall@ 000000018003ad40     libvcruntime:undname.obj
 0002:00001d4c       ??_C@_06GHPCKEAG@__eabi@   000000018003ad4c     libvcruntime:undname.obj
 0002:00001d58       ??_C@_09IOPIDJLG@__swift_1@ 000000018003ad58     libvcruntime:undname.obj
 0002:00001d68       ??_C@_09KFNFGKHF@__swift_2@ 000000018003ad68     libvcruntime:undname.obj
 0002:00001d78       ??_C@_07JOMMBBKO@__ptr64@  000000018003ad78     libvcruntime:undname.obj
 0002:00001d80       ??_C@_0L@PILCLIHE@__restrict@ 000000018003ad80     libvcruntime:undname.obj
 0002:00001d90       ??_C@_0M@GFIIJFMG@__unaligned@ 000000018003ad90     libvcruntime:undname.obj
 0002:00001da0       ??_C@_09DHDLOLLB@restrict?$CI@ 000000018003ada0     libvcruntime:undname.obj
 0002:00001daa       ??_C@_00CNPNBAHC@@         000000018003adaa     libvcruntime:undname.obj
 0002:00001dac       ??_C@_04NIHEBCM@?5new@     000000018003adac     libvcruntime:undname.obj
 0002:00001db8       ??_C@_07FPCDHGMM@?5delete@ 000000018003adb8     libvcruntime:undname.obj
 0002:00001dc0       ??_C@_01NEMOKFLO@?$DN@     000000018003adc0     libvcruntime:undname.obj
 0002:00001dc4       ??_C@_02GPIOPFAK@?$DO?$DO@ 000000018003adc4     libvcruntime:undname.obj
 0002:00001dc8       ??_C@_02FODMEDOG@?$DM?$DM@ 000000018003adc8     libvcruntime:undname.obj
 0002:00001dcc       ??_C@_01DCLJPIOD@?$CB@     000000018003adcc     libvcruntime:undname.obj
 0002:00001dd0       ??_C@_02EGOFBIJA@?$DN?$DN@ 000000018003add0     libvcruntime:undname.obj
 0002:00001dd4       ??_C@_02FDNJECIE@?$CB?$DN@ 000000018003add4     libvcruntime:undname.obj
 0002:00001dd8       ??_C@_02GPECMEKF@?$FL?$FN@ 000000018003add8     libvcruntime:undname.obj
 0002:00001de0       ??_C@_08LHJFAFGD@operator@ 000000018003ade0     libvcruntime:undname.obj
 0002:00001dec       ??_C@_02HBOOOICD@?9?$DO@   000000018003adec     libvcruntime:undname.obj
 0002:00001df0       ??_C@_01NBENCBCI@?$CK@     000000018003adf0     libvcruntime:undname.obj
 0002:00001df4       ??_C@_02ECNGHCIF@?$CL?$CL@ 000000018003adf4     libvcruntime:undname.obj
 0002:00001df8       ??_C@_02BAABKJLB@?9?9@     000000018003adf8     libvcruntime:undname.obj
 0002:00001dfc       ??_C@_01JOAMLHOP@?9@       000000018003adfc     libvcruntime:undname.obj
 0002:00001e00       ??_C@_01MIFGBAGJ@?$CL@     000000018003ae00     libvcruntime:undname.obj
 0002:00001e04       ??_C@_01HNPIGOCE@?$CG@     000000018003ae04     libvcruntime:undname.obj
 0002:00001e08       ??_C@_03MNHNFDLC@?9?$DO?$CK@ 000000018003ae08     libvcruntime:undname.obj
 0002:00001e0c       ??_C@_01KMDKNFGN@?1@       000000018003ae0c     libvcruntime:undname.obj
 0002:00001e10       ??_C@_01FGNFDNOH@?$CF@     000000018003ae10     libvcruntime:undname.obj
 0002:00001e14       ??_C@_01MNNFJEPP@?$DM@     000000018003ae14     libvcruntime:undname.obj
 0002:00001e18       ??_C@_02EHCHHCKH@?$DM?$DN@ 000000018003ae18     libvcruntime:undname.obj
 0002:00001e1c       ??_C@_01PPODPGHN@?$DO@     000000018003ae1c     libvcruntime:undname.obj
 0002:00001e20       ??_C@_02EEKDKGMJ@?$DO?$DN@ 000000018003ae20     libvcruntime:undname.obj
 0002:00001e24       ??_C@_01IHBHIGKO@?0@       000000018003ae24     libvcruntime:undname.obj
 0002:00001e28       ??_C@_02HCKGKOFO@?$CI?$CJ@ 000000018003ae28     libvcruntime:undname.obj
 0002:00001e2c       ??_C@_01PJKLJHI@?$HO@      000000018003ae2c     libvcruntime:undname.obj
 0002:00001e30       ??_C@_01JKBOJNNK@?$FO@     000000018003ae30     libvcruntime:undname.obj
 0002:00001e34       ??_C@_01DNKMNLPK@?$HM@     000000018003ae34     libvcruntime:undname.obj
 0002:00001e38       ??_C@_02PPKAJPJL@?$CG?$CG@ 000000018003ae38     libvcruntime:undname.obj
 0002:00001e3c       ??_C@_02NONPIBCD@?$HM?$HM@ 000000018003ae3c     libvcruntime:undname.obj
 0002:00001e40       ??_C@_02FPIMKNGF@?$CK?$DN@ 000000018003ae40     libvcruntime:undname.obj
 0002:00001e44       ??_C@_02FOEOMHFC@?$CL?$DN@ 000000018003ae44     libvcruntime:undname.obj
 0002:00001e48       ??_C@_02FKMDLLOA@?9?$DN@   000000018003ae48     libvcruntime:undname.obj
 0002:00001e4c       ??_C@_02FJEHGPIO@?1?$DN@   000000018003ae4c     libvcruntime:undname.obj
 0002:00001e50       ??_C@_02FENAOKFI@?$CF?$DN@ 000000018003ae50     libvcruntime:undname.obj
 0002:00001e54       ??_C@_03IKFCCPFF@?$DO?$DO?$DN@ 000000018003ae54     libvcruntime:undname.obj
 0002:00001e58       ??_C@_03CDNPDDLA@?$DM?$DM?$DN@ 000000018003ae58     libvcruntime:undname.obj
 0002:00001e5c       ??_C@_02FGJGFEAB@?$CG?$DN@ 000000018003ae5c     libvcruntime:undname.obj
 0002:00001e60       ??_C@_02DHLNPPGH@?$HM?$DN@ 000000018003ae60     libvcruntime:undname.obj
 0002:00001e64       ??_C@_02MHEGNOJ@?$FO?$DN@  000000018003ae64     libvcruntime:undname.obj
 0002:00001e68       ??_C@_09IFPLHPGF@?$GAvftable?8@ 000000018003ae68     libvcruntime:undname.obj
 0002:00001e78       ??_C@_09BLBHBJP@?$GAvbtable?8@ 000000018003ae78     libvcruntime:undname.obj
 0002:00001e88       ??_C@_07FEEIOKP@?$GAvcall?8@ 000000018003ae88     libvcruntime:undname.obj
 0002:00001e90       ??_C@_08LLFFHHDJ@?$GAtypeof?8@ 000000018003ae90     libvcruntime:undname.obj
 0002:00001ea0       ??_C@_0BF@KDPPACIK@?$GAlocal?5static?5guard?8@ 000000018003aea0     libvcruntime:undname.obj
 0002:00001eb8       ??_C@_08OBABFOLI@?$GAstring?8@ 000000018003aeb8     libvcruntime:undname.obj
 0002:00001ec8       ??_C@_0BD@JDLKDPAB@?$GAvbase?5destructor?8@ 000000018003aec8     libvcruntime:undname.obj
 0002:00001ee0       ??_C@_0BN@DEGPLNFK@?$GAvector?5deleting?5destructor?8@ 000000018003aee0     libvcruntime:undname.obj
 0002:00001f00       ??_C@_0BO@OBMKPJIG@?$GAdefault?5constructor?5closure?8@ 000000018003af00     libvcruntime:undname.obj
 0002:00001f20       ??_C@_0BN@IMDCHIKM@?$GAscalar?5deleting?5destructor?8@ 000000018003af20     libvcruntime:undname.obj
 0002:00001f40       ??_C@_0BO@PFGOCPJJ@?$GAvector?5constructor?5iterator?8@ 000000018003af40     libvcruntime:undname.obj
 0002:00001f60       ??_C@_0BN@LFPFMEDL@?$GAvector?5destructor?5iterator?8@ 000000018003af60     libvcruntime:undname.obj
 0002:00001f80       ??_C@_0CE@IKBNEHA@?$GAvector?5vbase?5constructor?5itera@ 000000018003af80     libvcruntime:undname.obj
 0002:00001fa8       ??_C@_0BL@NILFHHPC@?$GAvirtual?5displacement?5map?8@ 000000018003afa8     libvcruntime:undname.obj
 0002:00001fc8       ??_C@_0CB@JONCMFFK@?$GAeh?5vector?5constructor?5iterator@ 000000018003afc8     libvcruntime:undname.obj
 0002:00001ff0       ??_C@_0CA@GCEOPDGL@?$GAeh?5vector?5destructor?5iterator?8@ 000000018003aff0     libvcruntime:undname.obj
 0002:00002010       ??_C@_0CH@OOJPLCPH@?$GAeh?5vector?5vbase?5constructor?5it@ 000000018003b010     libvcruntime:undname.obj
 0002:00002038       ??_C@_0BL@LLKPOHJI@?$GAcopy?5constructor?5closure?8@ 000000018003b038     libvcruntime:undname.obj
 0002:00002058       ??_C@_0BA@KBCDOMBN@?$GAudt?5returning?8@ 000000018003b058     libvcruntime:undname.obj
 0002:00002068       ??_C@_03KLGMFNMG@?$GAEH@   000000018003b068     libvcruntime:undname.obj
 0002:0000206c       ??_C@_05KHLCHHI@?$GARTTI@  000000018003b06c     libvcruntime:undname.obj
 0002:00002078       ??_C@_0BA@KKLDJDLB@?$GAlocal?5vftable?8@ 000000018003b078     libvcruntime:undname.obj
 0002:00002088       ??_C@_0CE@IIHCMGGL@?$GAlocal?5vftable?5constructor?5clos@ 000000018003b088     libvcruntime:undname.obj
 0002:000020ac       ??_C@_06FHBGPFGH@?5new?$FL?$FN@ 000000018003b0ac     libvcruntime:undname.obj
 0002:000020b8       ??_C@_09LBNFPBCA@?5delete?$FL?$FN@ 000000018003b0b8     libvcruntime:undname.obj
 0002:000020c8       ??_C@_0P@HJKNJFNN@?$GAomni?5callsig?8@ 000000018003b0c8     libvcruntime:undname.obj
 0002:000020d8       ??_C@_0BL@CNOONJFP@?$GAplacement?5delete?5closure?8@ 000000018003b0d8     libvcruntime:undname.obj
 0002:000020f8       ??_C@_0BN@CKNJLHMB@?$GAplacement?5delete?$FL?$FN?5closure?8@ 000000018003b0f8     libvcruntime:undname.obj
 0002:00002118       ??_C@_0CG@CFDHKGGD@?$GAmanaged?5vector?5constructor?5ite@ 000000018003b118     libvcruntime:undname.obj
 0002:00002140       ??_C@_0CF@IMGKMJNO@?$GAmanaged?5vector?5destructor?5iter@ 000000018003b140     libvcruntime:undname.obj
 0002:00002168       ??_C@_0CG@HLDDJMAG@?$GAeh?5vector?5copy?5constructor?5ite@ 000000018003b168     libvcruntime:undname.obj
 0002:00002190       ??_C@_0CM@FCBBDIGB@?$GAeh?5vector?5vbase?5copy?5construct@ 000000018003b190     libvcruntime:undname.obj
 0002:000021c0       ??_C@_0BL@CLIPGLGB@?$GAdynamic?5initializer?5for?5?8@ 000000018003b1c0     libvcruntime:undname.obj
 0002:000021e0       ??_C@_0CB@PDBIFEP@?$GAdynamic?5atexit?5destructor?5for?5@ 000000018003b1e0     libvcruntime:undname.obj
 0002:00002208       ??_C@_0CD@CGAJBKEJ@?$GAvector?5copy?5constructor?5iterat@ 000000018003b208     libvcruntime:undname.obj
 0002:00002230       ??_C@_0CJ@GJELGAMM@?$GAvector?5vbase?5copy?5constructor?5@ 000000018003b230     libvcruntime:undname.obj
 0002:00002260       ??_C@_0CL@FGIJHLCE@?$GAmanaged?5vector?5copy?5constructo@ 000000018003b260     libvcruntime:undname.obj
 0002:00002290       ??_C@_0BM@PMGGMLDN@?$GAlocal?5static?5thread?5guard?8@ 000000018003b290     libvcruntime:undname.obj
 0002:000022b0       ??_C@_0N@BDNMDMOL@operator?5?$CC?$CC?5@ 000000018003b2b0     libvcruntime:undname.obj
 0002:000022c0       ??_C@_0BC@GGEBGALA@operator?5co_await@ 000000018003b2c0     libvcruntime:undname.obj
 0002:000022d8       ??_C@_0BC@DAFEJGAK@?5Type?5Descriptor?8@ 000000018003b2d8     libvcruntime:undname.obj
 0002:000022f0       ??_C@_0BM@LDKODKLH@?5Base?5Class?5Descriptor?5at?5?$CI@ 000000018003b2f0     libvcruntime:undname.obj
 0002:00002310       ??_C@_0BD@LGICGFMM@?5Base?5Class?5Array?8@ 000000018003b310     libvcruntime:undname.obj
 0002:00002328       ??_C@_0BN@MECKDCOJ@?5Class?5Hierarchy?5Descriptor?8@ 000000018003b328     libvcruntime:undname.obj
 0002:00002348       ??_C@_0BK@CFCOFLF@?5Complete?5Object?5Locator?8@ 000000018003b348     libvcruntime:undname.obj
 0002:00002380       ??_C@_1DM@KHCHBNEB@?$AAa?$AAp?$AAi?$AA?9?$AAm?$AAs?$AA?9?$AAw?$AAi?$AAn?$AA?9?$AAc?$AAo?$AAr?$AAe@ 000000018003b380     libvcruntime:winapi_downlevel.obj
 0002:000023c0       ??_C@_1DK@LPPGFMPP@?$AAa?$AAp?$AAi?$AA?9?$AAm?$AAs?$AA?9?$AAw?$AAi?$AAn?$AA?9?$AAc?$AAo?$AAr?$AAe@ 000000018003b3c0     libvcruntime:winapi_downlevel.obj
 0002:00002400       ??_C@_1BC@GDMECMAK@?$AAk?$AAe?$AAr?$AAn?$AAe?$AAl?$AA3?$AA2@ 000000018003b400     libvcruntime:winapi_downlevel.obj
 0002:00002418       ??_C@_1BA@PFFKHIOG@?$AAa?$AAp?$AAi?$AA?9?$AAm?$AAs?$AA?9@ 000000018003b418     libvcruntime:winapi_downlevel.obj
 0002:00002428       ??_C@_1BA@IAIFMGEF@?$AAe?$AAx?$AAt?$AA?9?$AAm?$AAs?$AA?9@ 000000018003b428     libvcruntime:winapi_downlevel.obj
 0002:00002460       __acrt_exception_action_table 000000018003b460     libucrt:exception_filter.obj
 0002:00002520       __acrt_signal_action_table_count 000000018003b520     libucrt:exception_filter.obj
 0002:00002528       __acrt_signal_action_first_fpe_index 000000018003b528     libucrt:exception_filter.obj
 0002:00002530       __acrt_signal_action_fpe_count 000000018003b530     libucrt:exception_filter.obj
 0002:00002538       ??_C@_1BI@BGOHAHKC@?$AAm?$AAs?$AAc?$AAo?$AAr?$AAe?$AAe?$AA?4?$AAd?$AAl?$AAl?$AA?$AA@ 000000018003b538     libucrt:exit.obj
 0002:00002550       ??_C@_0P@MIGLKIOC@CorExitProcess?$AA@ 000000018003b550     libucrt:exit.obj
 0002:000027c0       __lc_time_c                000000018003b7c0     libucrt:nlsdata.obj
 0002:00002a80       ??_C@_03KOEHGMDN@Sun?$AA@  000000018003ba80     libucrt:nlsdata.obj
 0002:00002a84       ??_C@_03PDAGKDH@Mon?$AA@   000000018003ba84     libucrt:nlsdata.obj
 0002:00002a88       ??_C@_03NAGEINEP@Tue?$AA@  000000018003ba88     libucrt:nlsdata.obj
 0002:00002a8c       ??_C@_03MHOMLAJA@Wed?$AA@  000000018003ba8c     libucrt:nlsdata.obj
 0002:00002a90       ??_C@_03IOFIKPDN@Thu?$AA@  000000018003ba90     libucrt:nlsdata.obj
 0002:00002a94       ??_C@_03IDIOELNC@Fri?$AA@  000000018003ba94     libucrt:nlsdata.obj
 0002:00002a98       ??_C@_03FEFJNEK@Sat?$AA@   000000018003ba98     libucrt:nlsdata.obj
 0002:00002a9c       ??_C@_06OOPIFAJ@Sunday?$AA@ 000000018003ba9c     libucrt:nlsdata.obj
 0002:00002aa4       ??_C@_06JLEDEDGH@Monday?$AA@ 000000018003baa4     libucrt:nlsdata.obj
 0002:00002ab0       ??_C@_07BAAGCFCM@Tuesday?$AA@ 000000018003bab0     libucrt:nlsdata.obj
 0002:00002ab8       ??_C@_09DLIGFAKA@Wednesday?$AA@ 000000018003bab8     libucrt:nlsdata.obj
 0002:00002ac8       ??_C@_08HACCIKIA@Thursday?$AA@ 000000018003bac8     libucrt:nlsdata.obj
 0002:00002ad4       ??_C@_06JECMNKMI@Friday?$AA@ 000000018003bad4     libucrt:nlsdata.obj
 0002:00002ae0       ??_C@_08INBOOONO@Saturday?$AA@ 000000018003bae0     libucrt:nlsdata.obj
 0002:00002aec       ??_C@_03JIHJHPIE@Jan?$AA@  000000018003baec     libucrt:nlsdata.obj
 0002:00002af0       ??_C@_03HJBDCHOM@Feb?$AA@  000000018003baf0     libucrt:nlsdata.obj
 0002:00002af4       ??_C@_03ODNJBKGA@Mar?$AA@  000000018003baf4     libucrt:nlsdata.obj
 0002:00002af8       ??_C@_03LEOLGMJP@Apr?$AA@  000000018003baf8     libucrt:nlsdata.obj
 0002:00002afc       ??_C@_03CNMDKL@May?$AA@    000000018003bafc     libucrt:nlsdata.obj
 0002:00002b00       ??_C@_03IDFGHECI@Jun?$AA@  000000018003bb00     libucrt:nlsdata.obj
 0002:00002b04       ??_C@_03LBGABGKK@Jul?$AA@  000000018003bb04     libucrt:nlsdata.obj
 0002:00002b08       ??_C@_03IFJFEIGA@Aug?$AA@  000000018003bb08     libucrt:nlsdata.obj
 0002:00002b0c       ??_C@_03GGCAPAJC@Sep?$AA@  000000018003bb0c     libucrt:nlsdata.obj
 0002:00002b10       ??_C@_03BMAOKBAD@Oct?$AA@  000000018003bb10     libucrt:nlsdata.obj
 0002:00002b14       ??_C@_03JPJOFNIA@Nov?$AA@  000000018003bb14     libucrt:nlsdata.obj
 0002:00002b18       ??_C@_03MKABNOCG@Dec?$AA@  000000018003bb18     libucrt:nlsdata.obj
 0002:00002b20       ??_C@_07CGJPFGJA@January?$AA@ 000000018003bb20     libucrt:nlsdata.obj
 0002:00002b28       ??_C@_08GNJGEPFN@February?$AA@ 000000018003bb28     libucrt:nlsdata.obj
 0002:00002b34       ??_C@_05HPCKOFNC@March?$AA@ 000000018003bb34     libucrt:nlsdata.obj
 0002:00002b3c       ??_C@_05DMJDNLEJ@April?$AA@ 000000018003bb3c     libucrt:nlsdata.obj
 0002:00002b44       ??_C@_04CNLMGBGM@June?$AA@ 000000018003bb44     libucrt:nlsdata.obj
 0002:00002b4c       ??_C@_04MIEPOIFP@July?$AA@ 000000018003bb4c     libucrt:nlsdata.obj
 0002:00002b54       ??_C@_06LBBHFDDG@August?$AA@ 000000018003bb54     libucrt:nlsdata.obj
 0002:00002b60       ??_C@_09BHHEALKD@September?$AA@ 000000018003bb60     libucrt:nlsdata.obj
 0002:00002b70       ??_C@_07JJNFCEND@October?$AA@ 000000018003bb70     libucrt:nlsdata.obj
 0002:00002b78       ??_C@_08HCHEGEOA@November?$AA@ 000000018003bb78     libucrt:nlsdata.obj
 0002:00002b88       ??_C@_08EDHMEBNP@December?$AA@ 000000018003bb88     libucrt:nlsdata.obj
 0002:00002b94       ??_C@_02DEDBPAFC@AM?$AA@   000000018003bb94     libucrt:nlsdata.obj
 0002:00002b98       ??_C@_02CJNFDJBF@PM?$AA@   000000018003bb98     libucrt:nlsdata.obj
 0002:00002ba0       ??_C@_08BPBNCDIB@MM?1dd?1yy?$AA@ 000000018003bba0     libucrt:nlsdata.obj
 0002:00002bb0       ??_C@_0BE@CKGJFCPC@dddd?0?5MMMM?5dd?0?5yyyy?$AA@ 000000018003bbb0     libucrt:nlsdata.obj
 0002:00002bc8       ??_C@_08JCCMCCIL@HH?3mm?3ss?$AA@ 000000018003bbc8     libucrt:nlsdata.obj
 0002:00002bd8       ??_C@_17MBGCMIPB@?$AAS?$AAu?$AAn?$AA?$AA@ 000000018003bbd8     libucrt:nlsdata.obj
 0002:00002be0       ??_C@_17KBOMKBF@?$AAM?$AAo?$AAn?$AA?$AA@ 000000018003bbe0     libucrt:nlsdata.obj
 0002:00002be8       ??_C@_17BMKGEGOJ@?$AAT?$AAu?$AAe?$AA?$AA@ 000000018003bbe8     libucrt:nlsdata.obj
 0002:00002bf0       ??_C@_17CJEDCEPE@?$AAW?$AAe?$AAd?$AA?$AA@ 000000018003bbf0     libucrt:nlsdata.obj
 0002:00002bf8       ??_C@_17PDPHAADD@?$AAT?$AAh?$AAu?$AA?$AA@ 000000018003bbf8     libucrt:nlsdata.obj
 0002:00002c00       ??_C@_17HFOLPPLP@?$AAF?$AAr?$AAi?$AA?$AA@ 000000018003bc00     libucrt:nlsdata.obj
 0002:00002c08       ??_C@_17GGIBDPIH@?$AAS?$AAa?$AAt?$AA?$AA@ 000000018003bc08     libucrt:nlsdata.obj
 0002:00002c10       ??_C@_1O@IHNHDHPB@?$AAS?$AAu?$AAn?$AAd?$AAa?$AAy?$AA?$AA@ 000000018003bc10     libucrt:nlsdata.obj
 0002:00002c20       ??_C@_1O@MMNBFLIA@?$AAM?$AAo?$AAn?$AAd?$AAa?$AAy?$AA?$AA@ 000000018003bc20     libucrt:nlsdata.obj
 0002:00002c30       ??_C@_1BA@ENFBFFEK@?$AAT?$AAu?$AAe?$AAs?$AAd?$AAa?$AAy?$AA?$AA@ 000000018003bc30     libucrt:nlsdata.obj
 0002:00002c40       ??_C@_1BE@EBOGMDOH@?$AAW?$AAe?$AAd?$AAn?$AAe?$AAs?$AAd?$AAa?$AAy?$AA?$AA@ 000000018003bc40     libucrt:nlsdata.obj
 0002:00002c58       ??_C@_1BC@HHMNLIHE@?$AAT?$AAh?$AAu?$AAr?$AAs?$AAd?$AAa?$AAy?$AA?$AA@ 000000018003bc58     libucrt:nlsdata.obj
 0002:00002c70       ??_C@_1O@PDICJHAG@?$AAF?$AAr?$AAi?$AAd?$AAa?$AAy?$AA?$AA@ 000000018003bc70     libucrt:nlsdata.obj
 0002:00002c80       ??_C@_1BC@ENMNNPAJ@?$AAS?$AAa?$AAt?$AAu?$AAr?$AAd?$AAa?$AAy?$AA?$AA@ 000000018003bc80     libucrt:nlsdata.obj
 0002:00002c98       ??_C@_17DKNBKCHM@?$AAJ?$AAa?$AAn?$AA?$AA@ 000000018003bc98     libucrt:nlsdata.obj
 0002:00002ca0       ??_C@_17LMDJEKJN@?$AAF?$AAe?$AAb?$AA?$AA@ 000000018003bca0     libucrt:nlsdata.obj
 0002:00002ca8       ??_C@_17CKNLEDEC@?$AAM?$AAa?$AAr?$AA?$AA@ 000000018003bca8     libucrt:nlsdata.obj
 0002:00002cb0       ??_C@_17LFPOIHDD@?$AAA?$AAp?$AAr?$AA?$AA@ 000000018003bcb0     libucrt:nlsdata.obj
 0002:00002cb8       ??_C@_17PNNKMEED@?$AAM?$AAa?$AAy?$AA?$AA@ 000000018003bcb8     libucrt:nlsdata.obj
 0002:00002cc0       ??_C@_17KCJGOCPB@?$AAJ?$AAu?$AAn?$AA?$AA@ 000000018003bcc0     libucrt:nlsdata.obj
 0002:00002cc8       ??_C@_17IJPCKHK@?$AAJ?$AAu?$AAl?$AA?$AA@ 000000018003bcc8     libucrt:nlsdata.obj
 0002:00002cd0       ??_C@_17ICPELBCN@?$AAA?$AAu?$AAg?$AA?$AA@ 000000018003bcd0     libucrt:nlsdata.obj
 0002:00002cd8       ??_C@_17HCHCOKMG@?$AAS?$AAe?$AAp?$AA?$AA@ 000000018003bcd8     libucrt:nlsdata.obj
 0002:00002ce0       ??_C@_17FNLKOI@?$AAO?$AAc?$AAt?$AA?$AA@ 000000018003bce0     libucrt:nlsdata.obj
 0002:00002ce8       ??_C@_17BBDMLCIG@?$AAN?$AAo?$AAv?$AA?$AA@ 000000018003bce8     libucrt:nlsdata.obj
 0002:00002cf0       ??_C@_17EGKACKIF@?$AAD?$AAe?$AAc?$AA?$AA@ 000000018003bcf0     libucrt:nlsdata.obj
 0002:00002cf8       ??_C@_1BA@EFMEIEBA@?$AAJ?$AAa?$AAn?$AAu?$AAa?$AAr?$AAy?$AA?$AA@ 000000018003bcf8     libucrt:nlsdata.obj
 0002:00002d08       ??_C@_1BC@JGDDFFAM@?$AAF?$AAe?$AAb?$AAr?$AAu?$AAa?$AAr?$AAy?$AA?$AA@ 000000018003bd08     libucrt:nlsdata.obj
 0002:00002d20       ??_C@_1M@IKEENEDF@?$AAM?$AAa?$AAr?$AAc?$AAh?$AA?$AA@ 000000018003bd20     libucrt:nlsdata.obj
 0002:00002d30       ??_C@_1M@GJNLMHFD@?$AAA?$AAp?$AAr?$AAi?$AAl?$AA?$AA@ 000000018003bd30     libucrt:nlsdata.obj
 0002:00002d40       ??_C@_19EPFLPGAP@?$AAJ?$AAu?$AAn?$AAe?$AA?$AA@ 000000018003bd40     libucrt:nlsdata.obj
 0002:00002d50       ??_C@_19BIFMLPCD@?$AAJ?$AAu?$AAl?$AAy?$AA?$AA@ 000000018003bd50     libucrt:nlsdata.obj
 0002:00002d60       ??_C@_1O@PAHLKOAC@?$AAA?$AAu?$AAg?$AAu?$AAs?$AAt?$AA?$AA@ 000000018003bd60     libucrt:nlsdata.obj
 0002:00002d70       ??_C@_1BE@DKAAMBJL@?$AAS?$AAe?$AAp?$AAt?$AAe?$AAm?$AAb?$AAe?$AAr?$AA?$AA@ 000000018003bd70     libucrt:nlsdata.obj
 0002:00002d88       ??_C@_1BA@EPANDLNG@?$AAO?$AAc?$AAt?$AAo?$AAb?$AAe?$AAr?$AA?$AA@ 000000018003bd88     libucrt:nlsdata.obj
 0002:00002d98       ??_C@_1BC@BGLIFPF@?$AAN?$AAo?$AAv?$AAe?$AAm?$AAb?$AAe?$AAr?$AA?$AA@ 000000018003bd98     libucrt:nlsdata.obj
 0002:00002db0       ??_C@_1BC@FEMKIFH@?$AAD?$AAe?$AAc?$AAe?$AAm?$AAb?$AAe?$AAr?$AA?$AA@ 000000018003bdb0     libucrt:nlsdata.obj
 0002:00002dc4       ??_C@_15ODEHAHHF@?$AAA?$AAM?$AA?$AA@ 000000018003bdc4     libucrt:nlsdata.obj
 0002:00002dcc       ??_C@_15CLMNNGEL@?$AAP?$AAM?$AA?$AA@ 000000018003bdcc     libucrt:nlsdata.obj
 0002:00002dd8       ??_C@_1BC@IEBCMHCM@?$AAM?$AAM?$AA?1?$AAd?$AAd?$AA?1?$AAy?$AAy?$AA?$AA@ 000000018003bdd8     libucrt:nlsdata.obj
 0002:00002df0       ??_C@_1CI@KNAKOEBC@?$AAd?$AAd?$AAd?$AAd?$AA?0?$AA?5?$AAM?$AAM?$AAM?$AAM?$AA?5?$AAd?$AAd?$AA?0?$AA?5?$AAy?$AAy?$AAy?$AAy?$AA?$AA@ 000000018003bdf0     libucrt:nlsdata.obj
 0002:00002e18       ??_C@_1BC@GDGBMEMK@?$AAH?$AAH?$AA?3?$AAm?$AAm?$AA?3?$AAs?$AAs?$AA?$AA@ 000000018003be18     libucrt:nlsdata.obj
 0002:00002e30       ??_C@_1M@BMHNFIME@?$AAe?$AAn?$AA?9?$AAU?$AAS?$AA?$AA@ 000000018003be30     libucrt:nlsdata.obj
 0002:00002e60       ??_C@_1M@HPNHIDJI@?$AAj?$AAa?$AA?9?$AAJ?$AAP?$AA?$AA@ 000000018003be60     libucrt:mbctype.obj
 0002:00002e70       ??_C@_1M@BIBDDEMK@?$AAz?$AAh?$AA?9?$AAC?$AAN?$AA?$AA@ 000000018003be70     libucrt:mbctype.obj
 0002:00002e80       ??_C@_1M@JLOOOEGK@?$AAk?$AAo?$AA?9?$AAK?$AAR?$AA?$AA@ 000000018003be80     libucrt:mbctype.obj
 0002:00002e90       ??_C@_1M@CLNBBOPM@?$AAz?$AAh?$AA?9?$AAT?$AAW?$AA?$AA@ 000000018003be90     libucrt:mbctype.obj
 0002:00002f40       ??_C@_1EA@JGEFHKEI@?$AAa?$AAp?$AAi?$AA?9?$AAm?$AAs?$AA?9?$AAw?$AAi?$AAn?$AA?9?$AAc?$AAo?$AAr?$AAe?$AA?9?$AAd?$AAa?$AAt?$AAe?$AAt?$AAi?$AAm?$AAe?$AA?9?$AAl?$AA1?$AA?9?$AA1?$AA?9?$AA1?$AA?$AA@ 000000018003bf40     libucrt:winapi_thunks.obj
 0002:00002f80       ??_C@_1DM@KHCHBNEB@?$AAa?$AAp?$AAi?$AA?9?$AAm?$AAs?$AA?9?$AAw?$AAi?$AAn?$AA?9?$AAc?$AAo?$AAr?$AAe?$AA?9?$AAf?$AAi?$AAb?$AAe?$AAr?$AAs?$AA?9?$AAl?$AA1?$AA?9?$AA1?$AA?9?$AA1?$AA?$AA@ 000000018003bf80     libucrt:winapi_thunks.obj
 0002:00002fc0       ??_C@_1DI@IJCEHOCB@?$AAa?$AAp?$AAi?$AA?9?$AAm?$AAs?$AA?9?$AAw?$AAi?$AAn?$AA?9?$AAc?$AAo?$AAr?$AAe?$AA?9?$AAf?$AAi?$AAl?$AAe?$AA?9?$AAl?$AA1?$AA?9?$AA2?$AA?9?$AA2?$AA?$AA@ 000000018003bfc0     libucrt:winapi_thunks.obj
 0002:00003000       ??_C@_1EI@MPIAOHOC@?$AAa?$AAp?$AAi?$AA?9?$AAm?$AAs?$AA?9?$AAw?$AAi?$AAn?$AA?9?$AAc?$AAo?$AAr?$AAe?$AA?9?$AAl?$AAo?$AAc?$AAa?$AAl?$AAi?$AAz?$AAa?$AAt?$AAi?$AAo?$AAn?$AA?9?$AAl?$AA1?$AA?9@ 000000018003c000     libucrt:winapi_thunks.obj
 0002:00003050       ??_C@_1FK@FPHCKFIE@?$AAa?$AAp?$AAi?$AA?9?$AAm?$AAs?$AA?9?$AAw?$AAi?$AAn?$AA?9?$AAc?$AAo?$AAr?$AAe?$AA?9?$AAl?$AAo?$AAc?$AAa?$AAl?$AAi?$AAz?$AAa?$AAt?$AAi?$AAo?$AAn?$AA?9?$AAo?$AAb?$AAs@ 000000018003c050     libucrt:winapi_thunks.obj
 0002:000030b0       ??_C@_1EM@DILCGIIO@?$AAa?$AAp?$AAi?$AA?9?$AAm?$AAs?$AA?9?$AAw?$AAi?$AAn?$AA?9?$AAc?$AAo?$AAr?$AAe?$AA?9?$AAp?$AAr?$AAo?$AAc?$AAe?$AAs?$AAs?$AAt?$AAh?$AAr?$AAe?$AAa?$AAd?$AAs?$AA?9?$AAl@ 000000018003c0b0     libucrt:winapi_thunks.obj
 0002:00003100       ??_C@_1DM@LNCGDDPN@?$AAa?$AAp?$AAi?$AA?9?$AAm?$AAs?$AA?9?$AAw?$AAi?$AAn?$AA?9?$AAc?$AAo?$AAr?$AAe?$AA?9?$AAs?$AAt?$AAr?$AAi?$AAn?$AAg?$AA?9?$AAl?$AA1?$AA?9?$AA1?$AA?9?$AA0?$AA?$AA@ 000000018003c100     libucrt:winapi_thunks.obj
 0002:00003140       ??_C@_1DK@LPPGFMPP@?$AAa?$AAp?$AAi?$AA?9?$AAm?$AAs?$AA?9?$AAw?$AAi?$AAn?$AA?9?$AAc?$AAo?$AAr?$AAe?$AA?9?$AAs?$AAy?$AAn?$AAc?$AAh?$AA?9?$AAl?$AA1?$AA?9?$AA2?$AA?9?$AA0?$AA?$AA@ 000000018003c140     libucrt:winapi_thunks.obj
 0002:00003180       ??_C@_1DO@FPAPJEMD@?$AAa?$AAp?$AAi?$AA?9?$AAm?$AAs?$AA?9?$AAw?$AAi?$AAn?$AA?9?$AAc?$AAo?$AAr?$AAe?$AA?9?$AAs?$AAy?$AAs?$AAi?$AAn?$AAf?$AAo?$AA?9?$AAl?$AA1?$AA?9?$AA2?$AA?9?$AA1?$AA?$AA@ 000000018003c180     libucrt:winapi_thunks.obj
 0002:000031c0       ??_C@_1DK@NDHNAHIO@?$AAa?$AAp?$AAi?$AA?9?$AAm?$AAs?$AA?9?$AAw?$AAi?$AAn?$AA?9?$AAc?$AAo?$AAr?$AAe?$AA?9?$AAw?$AAi?$AAn?$AAr?$AAt?$AA?9?$AAl?$AA1?$AA?9?$AA1?$AA?9?$AA0?$AA?$AA@ 000000018003c1c0     libucrt:winapi_thunks.obj
 0002:00003200       ??_C@_1DM@KGHDGBCM@?$AAa?$AAp?$AAi?$AA?9?$AAm?$AAs?$AA?9?$AAw?$AAi?$AAn?$AA?9?$AAc?$AAo?$AAr?$AAe?$AA?9?$AAx?$AAs?$AAt?$AAa?$AAt?$AAe?$AA?9?$AAl?$AA2?$AA?9?$AA1?$AA?9?$AA0?$AA?$AA@ 000000018003c200     libucrt:winapi_thunks.obj
 0002:00003240       ??_C@_1EO@IJIOEFOH@?$AAa?$AAp?$AAi?$AA?9?$AAm?$AAs?$AA?9?$AAw?$AAi?$AAn?$AA?9?$AAr?$AAt?$AAc?$AAo?$AAr?$AAe?$AA?9?$AAn?$AAt?$AAu?$AAs?$AAe?$AAr?$AA?9?$AAw?$AAi?$AAn?$AAd?$AAo?$AAw?$AA?9@ 000000018003c240     libucrt:winapi_thunks.obj
 0002:00003290       ??_C@_1FG@HHGEKANL@?$AAa?$AAp?$AAi?$AA?9?$AAm?$AAs?$AA?9?$AAw?$AAi?$AAn?$AA?9?$AAs?$AAe?$AAc?$AAu?$AAr?$AAi?$AAt?$AAy?$AA?9?$AAs?$AAy?$AAs?$AAt?$AAe?$AAm?$AAf?$AAu?$AAn?$AAc?$AAt?$AAi@ 000000018003c290     libucrt:winapi_thunks.obj
 0002:000032f0       ??_C@_1EG@DBIOJECG@?$AAe?$AAx?$AAt?$AA?9?$AAm?$AAs?$AA?9?$AAw?$AAi?$AAn?$AA?9?$AAn?$AAt?$AAu?$AAs?$AAe?$AAr?$AA?9?$AAd?$AAi?$AAa?$AAl?$AAo?$AAg?$AAb?$AAo?$AAx?$AA?9?$AAl?$AA1?$AA?9?$AA1@ 000000018003c2f0     libucrt:winapi_thunks.obj
 0002:00003340       ??_C@_1EO@FIHMJCLF@?$AAe?$AAx?$AAt?$AA?9?$AAm?$AAs?$AA?9?$AAw?$AAi?$AAn?$AA?9?$AAn?$AAt?$AAu?$AAs?$AAe?$AAr?$AA?9?$AAw?$AAi?$AAn?$AAd?$AAo?$AAw?$AAs?$AAt?$AAa?$AAt?$AAi?$AAo?$AAn?$AA?9@ 000000018003c340     libucrt:winapi_thunks.obj
 0002:00003390       ??_C@_1BC@DNHGCMLG@?$AAa?$AAd?$AAv?$AAa?$AAp?$AAi?$AA3?$AA2?$AA?$AA@ 000000018003c390     libucrt:winapi_thunks.obj
 0002:000033a8       ??_C@_1BC@GDMECMAK@?$AAk?$AAe?$AAr?$AAn?$AAe?$AAl?$AA3?$AA2?$AA?$AA@ 000000018003c3a8     libucrt:winapi_thunks.obj
 0002:000033c0       ??_C@_1M@OAIMIKLP@?$AAn?$AAt?$AAd?$AAl?$AAl?$AA?$AA@ 000000018003c3c0     libucrt:winapi_thunks.obj
 0002:000033d0       ??_C@_1EG@DPGNFKGC@?$AAa?$AAp?$AAi?$AA?9?$AAm?$AAs?$AA?9?$AAw?$AAi?$AAn?$AA?9?$AAa?$AAp?$AAp?$AAm?$AAo?$AAd?$AAe?$AAl?$AA?9?$AAr?$AAu?$AAn?$AAt?$AAi?$AAm?$AAe?$AA?9?$AAl?$AA1?$AA?9?$AA1@ 000000018003c3d0     libucrt:winapi_thunks.obj
 0002:00003418       ??_C@_1O@BCCLBEOE@?$AAu?$AAs?$AAe?$AAr?$AA3?$AA2?$AA?$AA@ 000000018003c418     libucrt:winapi_thunks.obj
 0002:00003428       ??_C@_1BA@PFFKHIOG@?$AAa?$AAp?$AAi?$AA?9?$AAm?$AAs?$AA?9?$AA?$AA@ 000000018003c428     libucrt:winapi_thunks.obj
 0002:00003438       ??_C@_1BA@IAIFMGEF@?$AAe?$AAx?$AAt?$AA?9?$AAm?$AAs?$AA?9?$AA?$AA@ 000000018003c438     libucrt:winapi_thunks.obj
 0002:00003450       ??_C@_08KNHFBNJ@FlsAlloc?$AA@ 000000018003c450     libucrt:winapi_thunks.obj
 0002:00003468       ??_C@_07PEJMOBNF@FlsFree?$AA@ 000000018003c468     libucrt:winapi_thunks.obj
 0002:00003478       ??_C@_0M@GDNOONDI@FlsGetValue?$AA@ 000000018003c478     libucrt:winapi_thunks.obj
 0002:00003490       ??_C@_0M@JCPCPOEF@FlsSetValue?$AA@ 000000018003c490     libucrt:winapi_thunks.obj
 0002:000034a8       ??_C@_0BM@HCFOFFN@InitializeCriticalSectionEx?$AA@ 000000018003c4a8     libucrt:winapi_thunks.obj
 0002:000034d0       ??_C@_0O@KKBNKAPF@LCMapStringEx?$AA@ 000000018003c4d0     libucrt:winapi_thunks.obj
 0002:000034e8       ??_C@_0BB@HBDEELFH@LocaleNameToLCID?$AA@ 000000018003c4e8     libucrt:winapi_thunks.obj
 0002:00003500       ??_C@_0CF@OJOFEIGO@AppPolicyGetProcessTerminationMe@ 000000018003c500     libucrt:winapi_thunks.obj
 0002:00003530       __newctype                 000000018003c530     libucrt:ctype.obj
 0002:00003830       __newclmap                 000000018003c830     libucrt:ctype.obj
 0002:000039b0       __newcumap                 000000018003c9b0     libucrt:ctype.obj
 0002:00003b30       ??_C@_15PJPFLCCM@?$AAu?$AAk?$AA?$AA@ 000000018003cb30     libucrt:get_qualified_locale.obj
 0002:00004980       ??_C@_15EMKDOKLE@?$AAa?$AAr?$AA?$AA@ 000000018003d980     libucrt:lcidtoname_downlevel.obj
 0002:00004988       ??_C@_15KNPADPLH@?$AAb?$AAg?$AA?$AA@ 000000018003d988     libucrt:lcidtoname_downlevel.obj
 0002:00004990       ??_C@_15EDMHLDMO@?$AAc?$AAa?$AA?$AA@ 000000018003d990     libucrt:lcidtoname_downlevel.obj
 0002:00004998       ??_C@_1O@BPEAJADD@?$AAz?$AAh?$AA?9?$AAC?$AAH?$AAS?$AA?$AA@ 000000018003d998     libucrt:lcidtoname_downlevel.obj
 0002:000049a8       ??_C@_15LJNHCMNK@?$AAc?$AAs?$AA?$AA@ 000000018003d9a8     libucrt:lcidtoname_downlevel.obj
 0002:000049b0       ??_C@_15FOMCIDHG@?$AAd?$AAa?$AA?$AA@ 000000018003d9b0     libucrt:lcidtoname_downlevel.obj
 0002:000049b8       ??_C@_15NBKABECB@?$AAd?$AAe?$AA?$AA@ 000000018003d9b8     libucrt:lcidtoname_downlevel.obj
 0002:000049c0       ??_C@_15GHPEIIAO@?$AAe?$AAl?$AA?$AA@ 000000018003d9c0     libucrt:lcidtoname_downlevel.obj
 0002:000049c8       ??_C@_15MNPNEAIF@?$AAe?$AAn?$AA?$AA@ 000000018003d9c8     libucrt:lcidtoname_downlevel.obj
 0002:000049d0       ??_C@_15GPIOMPMH@?$AAe?$AAs?$AA?$AA@ 000000018003d9d0     libucrt:lcidtoname_downlevel.obj
 0002:000049d8       ??_C@_15NGLOAKJC@?$AAf?$AAi?$AA?$AA@ 000000018003d9d8     libucrt:lcidtoname_downlevel.obj
 0002:000049e0       ??_C@_15FBKGNKAM@?$AAf?$AAr?$AA?$AA@ 000000018003d9e0     libucrt:lcidtoname_downlevel.obj
 0002:000049e8       ??_C@_15KGGCNEFK@?$AAh?$AAe?$AA?$AA@ 000000018003d9e8     libucrt:lcidtoname_downlevel.obj
 0002:000049f0       ??_C@_15PGHLIDMF@?$AAh?$AAu?$AA?$AA@ 000000018003d9f0     libucrt:lcidtoname_downlevel.obj
 0002:000049f8       ??_C@_15BIEMAPLM@?$AAi?$AAs?$AA?$AA@ 000000018003d9f8     libucrt:lcidtoname_downlevel.obj
 0002:00004a00       ??_C@_15IFJLDHAF@?$AAi?$AAt?$AA?$AA@ 000000018003da00     libucrt:lcidtoname_downlevel.obj
 0002:00004a08       ??_C@_15GEMIOCAG@?$AAj?$AAa?$AA?$AA@ 000000018003da08     libucrt:lcidtoname_downlevel.obj
 0002:00004a10       ??_C@_15EPELEGJA@?$AAk?$AAo?$AA?$AA@ 000000018003da10     libucrt:lcidtoname_downlevel.obj
 0002:00004a18       ??_C@_15NDDHIMN@?$AAn?$AAl?$AA?$AA@ 000000018003da18     libucrt:lcidtoname_downlevel.obj
 0002:00004a20       ??_C@_15BPIGNHCD@?$AAn?$AAo?$AA?$AA@ 000000018003da20     libucrt:lcidtoname_downlevel.obj
 0002:00004a28       ??_C@_15DEOPBLCG@?$AAp?$AAl?$AA?$AA@ 000000018003da28     libucrt:lcidtoname_downlevel.obj
 0002:00004a30       ??_C@_15KBECGEFG@?$AAp?$AAt?$AA?$AA@ 000000018003da30     libucrt:lcidtoname_downlevel.obj
 0002:00004a38       ??_C@_15GLJCBFMD@?$AAr?$AAo?$AA?$AA@ 000000018003da38     libucrt:lcidtoname_downlevel.obj
 0002:00004a40       ??_C@_15FEDGKCDI@?$AAr?$AAu?$AA?$AA@ 000000018003da40     libucrt:lcidtoname_downlevel.obj
 0002:00004a48       ??_C@_15GLKMLLHM@?$AAh?$AAr?$AA?$AA@ 000000018003da48     libucrt:lcidtoname_downlevel.obj
 0002:00004a50       ??_C@_15CPKMFBDB@?$AAs?$AAk?$AA?$AA@ 000000018003da50     libucrt:lcidtoname_downlevel.obj
 0002:00004a58       ??_C@_15BAAIOGMK@?$AAs?$AAq?$AA?$AA@ 000000018003da58     libucrt:lcidtoname_downlevel.obj
 0002:00004a60       ??_C@_15INNPNOHD@?$AAs?$AAv?$AA?$AA@ 000000018003da60     libucrt:lcidtoname_downlevel.obj
 0002:00004a68       ??_C@_15CABMMOGH@?$AAt?$AAh?$AA?$AA@ 000000018003da68     libucrt:lcidtoname_downlevel.obj
 0002:00004a70       ??_C@_15BPLIHJJM@?$AAt?$AAr?$AA?$AA@ 000000018003da70     libucrt:lcidtoname_downlevel.obj
 0002:00004a78       ??_C@_15NEOEKKDJ@?$AAu?$AAr?$AA?$AA@ 000000018003da78     libucrt:lcidtoname_downlevel.obj
 0002:00004a80       ??_C@_15NFICGAJK@?$AAi?$AAd?$AA?$AA@ 000000018003da80     libucrt:lcidtoname_downlevel.obj
 0002:00004a88       ??_C@_15HPJPHDM@?$AAb?$AAe?$AA?$AA@ 000000018003da88     libucrt:lcidtoname_downlevel.obj
 0002:00004a90       ??_C@_15LCHLGJII@?$AAs?$AAl?$AA?$AA@ 000000018003da90     libucrt:lcidtoname_downlevel.obj
 0002:00004a98       ??_C@_15PCFJPHHO@?$AAe?$AAt?$AA?$AA@ 000000018003da98     libucrt:lcidtoname_downlevel.obj
 0002:00004aa0       ??_C@_15HPFPGODN@?$AAl?$AAv?$AA?$AA@ 000000018003daa0     libucrt:lcidtoname_downlevel.obj
 0002:00004aa8       ??_C@_15NFFGKGLG@?$AAl?$AAt?$AA?$AA@ 000000018003daa8     libucrt:lcidtoname_downlevel.obj
 0002:00004ab0       ??_C@_15BDAKCCHN@?$AAf?$AAa?$AA?$AA@ 000000018003dab0     libucrt:lcidtoname_downlevel.obj
 0002:00004ab8       ??_C@_15NFGIAIAJ@?$AAv?$AAi?$AA?$AA@ 000000018003dab8     libucrt:lcidtoname_downlevel.obj
 0002:00004ac0       ??_C@_15LMKNDMHN@?$AAh?$AAy?$AA?$AA@ 000000018003dac0     libucrt:lcidtoname_downlevel.obj
 0002:00004ac8       ??_C@_15IJBHMCFL@?$AAa?$AAz?$AA?$AA@ 000000018003dac8     libucrt:lcidtoname_downlevel.obj
 0002:00004ad0       ??_C@_15EKOFJABL@?$AAe?$AAu?$AA?$AA@ 000000018003dad0     libucrt:lcidtoname_downlevel.obj
 0002:00004ad8       ??_C@_15BGHADCNK@?$AAm?$AAk?$AA?$AA@ 000000018003dad8     libucrt:lcidtoname_downlevel.obj
 0002:00004ae0       ??_C@_15JDNICKHM@?$AAa?$AAf?$AA?$AA@ 000000018003dae0     libucrt:lcidtoname_downlevel.obj
 0002:00004ae8       ??_C@_15KPJEDBKD@?$AAk?$AAa?$AA?$AA@ 000000018003dae8     libucrt:lcidtoname_downlevel.obj
 0002:00004af0       ??_C@_15PDNFFFEO@?$AAf?$AAo?$AA?$AA@ 000000018003daf0     libucrt:lcidtoname_downlevel.obj
 0002:00004af8       ??_C@_15OMLEGLOC@?$AAh?$AAi?$AA?$AA@ 000000018003daf8     libucrt:lcidtoname_downlevel.obj
 0002:00004b00       ??_C@_15IDNNENKK@?$AAm?$AAs?$AA?$AA@ 000000018003db00     libucrt:lcidtoname_downlevel.obj
 0002:00004b08       ??_C@_15MACJNBMH@?$AAk?$AAk?$AA?$AA@ 000000018003db08     libucrt:lcidtoname_downlevel.obj
 0002:00004b10       ??_C@_15DKDJEOND@?$AAk?$AAy?$AA?$AA@ 000000018003db10     libucrt:lcidtoname_downlevel.obj
 0002:00004b18       ??_C@_15DFGDLJBG@?$AAs?$AAw?$AA?$AA@ 000000018003db18     libucrt:lcidtoname_downlevel.obj
 0002:00004b20       ??_C@_15BBFAICNG@?$AAu?$AAz?$AA?$AA@ 000000018003db20     libucrt:lcidtoname_downlevel.obj
 0002:00004b28       ??_C@_15DKNDCGEA@?$AAt?$AAt?$AA?$AA@ 000000018003db28     libucrt:lcidtoname_downlevel.obj
 0002:00004b30       ??_C@_15MGIFMDPL@?$AAp?$AAa?$AA?$AA@ 000000018003db30     libucrt:lcidtoname_downlevel.obj
 0002:00004b38       ??_C@_15HCNDBBA@?$AAg?$AAu?$AA?$AA@ 000000018003db38     libucrt:lcidtoname_downlevel.obj
 0002:00004b40       ??_C@_15FNBEIBON@?$AAt?$AAa?$AA?$AA@ 000000018003db40     libucrt:lcidtoname_downlevel.obj
 0002:00004b48       ??_C@_15NCHGBGLK@?$AAt?$AAe?$AA?$AA@ 000000018003db48     libucrt:lcidtoname_downlevel.obj
 0002:00004b50       ??_C@_15PHPHCBPF@?$AAk?$AAn?$AA?$AA@ 000000018003db50     libucrt:lcidtoname_downlevel.obj
 0002:00004b58       ??_C@_15DLGBCKMP@?$AAm?$AAr?$AA?$AA@ 000000018003db58     libucrt:lcidtoname_downlevel.obj
 0002:00004b60       ??_C@_15EABBLBFF@?$AAs?$AAa?$AA?$AA@ 000000018003db60     libucrt:lcidtoname_downlevel.obj
 0002:00004b68       ??_C@_15CBKOMCOI@?$AAm?$AAn?$AA?$AA@ 000000018003db68     libucrt:lcidtoname_downlevel.obj
 0002:00004b70       ??_C@_15CKDMCJAF@?$AAg?$AAl?$AA?$AA@ 000000018003db70     libucrt:lcidtoname_downlevel.obj
 0002:00004b78       ??_C@_17CNJFBPG@?$AAk?$AAo?$AAk?$AA?$AA@ 000000018003db78     libucrt:lcidtoname_downlevel.obj
 0002:00004b80       ??_C@_17FFBJICPL@?$AAs?$AAy?$AAr?$AA?$AA@ 000000018003db80     libucrt:lcidtoname_downlevel.obj
 0002:00004b88       ??_C@_17KPNDCPAF@?$AAd?$AAi?$AAv?$AA?$AA@ 000000018003db88     libucrt:lcidtoname_downlevel.obj
 0002:00004b90       ??_C@_11LOCGONAA@?$AA?$AA@ 000000018003db90     libucrt:lcidtoname_downlevel.obj
 0002:00004b98       ??_C@_1M@OKAHONE@?$AAa?$AAr?$AA?9?$AAS?$AAA?$AA?$AA@ 000000018003db98     libucrt:lcidtoname_downlevel.obj
 0002:00004ba8       ??_C@_1M@FFFIGIGK@?$AAb?$AAg?$AA?9?$AAB?$AAG?$AA?$AA@ 000000018003dba8     libucrt:lcidtoname_downlevel.obj
 0002:00004bb8       ??_C@_1M@BJNKEDC@?$AAc?$AAa?$AA?9?$AAE?$AAS?$AA?$AA@ 000000018003dbb8     libucrt:lcidtoname_downlevel.obj
 0002:00004bc8       ??_C@_1M@IJJHFJHA@?$AAc?$AAs?$AA?9?$AAC?$AAZ?$AA?$AA@ 000000018003dbc8     libucrt:lcidtoname_downlevel.obj
 0002:00004bd8       ??_C@_1M@CLPEOBGI@?$AAd?$AAa?$AA?9?$AAD?$AAK?$AA?$AA@ 000000018003dbd8     libucrt:lcidtoname_downlevel.obj
 0002:00004be8       ??_C@_1M@MCMADGCB@?$AAd?$AAe?$AA?9?$AAD?$AAE?$AA?$AA@ 000000018003dbe8     libucrt:lcidtoname_downlevel.obj
 0002:00004bf8       ??_C@_1M@OOCKEMAM@?$AAe?$AAl?$AA?9?$AAG?$AAR?$AA?$AA@ 000000018003dbf8     libucrt:lcidtoname_downlevel.obj
 0002:00004c08       ??_C@_1M@DDNJFGID@?$AAf?$AAi?$AA?9?$AAF?$AAI?$AA?$AA@ 000000018003dc08     libucrt:lcidtoname_downlevel.obj
 0002:00004c18       ??_C@_1M@GLIPPMAC@?$AAf?$AAr?$AA?9?$AAF?$AAR?$AA?$AA@ 000000018003dc18     libucrt:lcidtoname_downlevel.obj
 0002:00004c28       ??_C@_1M@GFMCHPE@?$AAh?$AAe?$AA?9?$AAI?$AAL?$AA?$AA@ 000000018003dc28     libucrt:lcidtoname_downlevel.obj
 0002:00004c38       ??_C@_1M@MHLPGNKM@?$AAh?$AAu?$AA?9?$AAH?$AAU?$AA?$AA@ 000000018003dc38     libucrt:lcidtoname_downlevel.obj
 0002:00004c48       ??_C@_1M@LPDDNNPN@?$AAi?$AAs?$AA?9?$AAI?$AAS?$AA?$AA@ 000000018003dc48     libucrt:lcidtoname_downlevel.obj
 0002:00004c58       ??_C@_1M@MADIPODN@?$AAi?$AAt?$AA?9?$AAI?$AAT?$AA?$AA@ 000000018003dc58     libucrt:lcidtoname_downlevel.obj
 0002:00004c68       ??_C@_1M@IHBJJGG@?$AAn?$AAl?$AA?9?$AAN?$AAL?$AA?$AA@ 000000018003dc68     libucrt:lcidtoname_downlevel.obj
 0002:00004c78       ??_C@_1M@EANAGDL@?$AAn?$AAb?$AA?9?$AAN?$AAO?$AA?$AA@ 000000018003dc78     libucrt:lcidtoname_downlevel.obj
 0002:00004c88       ??_C@_1M@NEIEMEGP@?$AAp?$AAl?$AA?9?$AAP?$AAL?$AA?$AA@ 000000018003dc88     libucrt:lcidtoname_downlevel.obj
 0002:00004c98       ??_C@_1M@BOCFIGEP@?$AAp?$AAt?$AA?9?$AAB?$AAR?$AA?$AA@ 000000018003dc98     libucrt:lcidtoname_downlevel.obj
 0002:00004ca8       ??_C@_1M@IMPFOPBG@?$AAr?$AAo?$AA?9?$AAR?$AAO?$AA?$AA@ 000000018003dca8     libucrt:lcidtoname_downlevel.obj
 0002:00004cb8       ??_C@_1M@IDNNEJMM@?$AAr?$AAu?$AA?9?$AAR?$AAU?$AA?$AA@ 000000018003dcb8     libucrt:lcidtoname_downlevel.obj
 0002:00004cc8       ??_C@_1M@LILEEOGM@?$AAh?$AAr?$AA?9?$AAH?$AAR?$AA?$AA@ 000000018003dcc8     libucrt:lcidtoname_downlevel.obj
 0002:00004cd8       ??_C@_1M@FKIFEHPB@?$AAs?$AAk?$AA?9?$AAS?$AAK?$AA?$AA@ 000000018003dcd8     libucrt:lcidtoname_downlevel.obj
 0002:00004ce8       ??_C@_1M@LJMAMNPJ@?$AAs?$AAq?$AA?9?$AAA?$AAL?$AA?$AA@ 000000018003dce8     libucrt:lcidtoname_downlevel.obj
 0002:00004cf8       ??_C@_1M@GIAKDKJK@?$AAs?$AAv?$AA?9?$AAS?$AAE?$AA?$AA@ 000000018003dcf8     libucrt:lcidtoname_downlevel.obj
 0002:00004d08       ??_C@_1M@MKJKIKCL@?$AAt?$AAh?$AA?9?$AAT?$AAH?$AA?$AA@ 000000018003dd08     libucrt:lcidtoname_downlevel.obj
 0002:00004d18       ??_C@_1M@MFLCCMPB@?$AAt?$AAr?$AA?9?$AAT?$AAR?$AA?$AA@ 000000018003dd18     libucrt:lcidtoname_downlevel.obj
 0002:00004d28       ??_C@_1M@OIJHDKJN@?$AAu?$AAr?$AA?9?$AAP?$AAK?$AA?$AA@ 000000018003dd28     libucrt:lcidtoname_downlevel.obj
 0002:00004d38       ??_C@_1M@LHIPCIEK@?$AAi?$AAd?$AA?9?$AAI?$AAD?$AA?$AA@ 000000018003dd38     libucrt:lcidtoname_downlevel.obj
 0002:00004d48       ??_C@_1M@MFMOBGI@?$AAu?$AAk?$AA?9?$AAU?$AAA?$AA?$AA@ 000000018003dd48     libucrt:lcidtoname_downlevel.obj
 0002:00004d58       ??_C@_1M@OBGLJIPL@?$AAb?$AAe?$AA?9?$AAB?$AAY?$AA?$AA@ 000000018003dd58     libucrt:lcidtoname_downlevel.obj
 0002:00004d68       ??_C@_1M@BCFAJEAD@?$AAs?$AAl?$AA?9?$AAS?$AAI?$AA?$AA@ 000000018003dd68     libucrt:lcidtoname_downlevel.obj
 0002:00004d78       ??_C@_1M@FKFFEDDN@?$AAe?$AAt?$AA?9?$AAE?$AAE?$AA?$AA@ 000000018003dd78     libucrt:lcidtoname_downlevel.obj
 0002:00004d88       ??_C@_1M@KGKKAACI@?$AAl?$AAv?$AA?9?$AAL?$AAV?$AA?$AA@ 000000018003dd88     libucrt:lcidtoname_downlevel.obj
 0002:00004d98       ??_C@_1M@IFGBIJO@?$AAl?$AAt?$AA?9?$AAL?$AAT?$AA?$AA@ 000000018003dd98     libucrt:lcidtoname_downlevel.obj
 0002:00004da8       ??_C@_1M@FGEAHEDM@?$AAf?$AAa?$AA?9?$AAI?$AAR?$AA?$AA@ 000000018003dda8     libucrt:lcidtoname_downlevel.obj
 0002:00004db8       ??_C@_1M@KBMAIBFN@?$AAv?$AAi?$AA?9?$AAV?$AAN?$AA?$AA@ 000000018003ddb8     libucrt:lcidtoname_downlevel.obj
 0002:00004dc8       ??_C@_1M@GPCBKDJK@?$AAh?$AAy?$AA?9?$AAA?$AAM?$AA?$AA@ 000000018003ddc8     libucrt:lcidtoname_downlevel.obj
 0002:00004dd8       ??_C@_1BG@BECMDDJB@?$AAa?$AAz?$AA?9?$AAA?$AAZ?$AA?9?$AAL?$AAa?$AAt?$AAn?$AA?$AA@ 000000018003ddd8     libucrt:lcidtoname_downlevel.obj
 0002:00004df0       ??_C@_1M@MAOFCAEA@?$AAe?$AAu?$AA?9?$AAE?$AAS?$AA?$AA@ 000000018003ddf0     libucrt:lcidtoname_downlevel.obj
 0002:00004e00       ??_C@_1M@IGHABKPI@?$AAm?$AAk?$AA?9?$AAM?$AAK?$AA?$AA@ 000000018003de00     libucrt:lcidtoname_downlevel.obj
 0002:00004e10       ??_C@_1M@IAIGNEJG@?$AAt?$AAn?$AA?9?$AAZ?$AAA?$AA?$AA@ 000000018003de10     libucrt:lcidtoname_downlevel.obj
 0002:00004e20       ??_C@_1M@IIJCOJFA@?$AAx?$AAh?$AA?9?$AAZ?$AAA?$AA?$AA@ 000000018003de20     libucrt:lcidtoname_downlevel.obj
 0002:00004e30       ??_C@_1M@LGPJHNJH@?$AAz?$AAu?$AA?9?$AAZ?$AAA?$AA?$AA@ 000000018003de30     libucrt:lcidtoname_downlevel.obj
 0002:00004e40       ??_C@_1M@HOKAOIO@?$AAa?$AAf?$AA?9?$AAZ?$AAA?$AA?$AA@ 000000018003de40     libucrt:lcidtoname_downlevel.obj
 0002:00004e50       ??_C@_1M@DPCLHLIE@?$AAk?$AAa?$AA?9?$AAG?$AAE?$AA?$AA@ 000000018003de50     libucrt:lcidtoname_downlevel.obj
 0002:00004e60       ??_C@_1M@BLKMHJBI@?$AAf?$AAo?$AA?9?$AAF?$AAO?$AA?$AA@ 000000018003de60     libucrt:lcidtoname_downlevel.obj
 0002:00004e70       ??_C@_1M@LGGJAPPB@?$AAh?$AAi?$AA?9?$AAI?$AAN?$AA?$AA@ 000000018003de70     libucrt:lcidtoname_downlevel.obj
 0002:00004e80       ??_C@_1M@FIKPIHFE@?$AAm?$AAt?$AA?9?$AAM?$AAT?$AA?$AA@ 000000018003de80     libucrt:lcidtoname_downlevel.obj
 0002:00004e90       ??_C@_1M@HEGGPBFA@?$AAs?$AAe?$AA?9?$AAN?$AAO?$AA?$AA@ 000000018003de90     libucrt:lcidtoname_downlevel.obj
 0002:00004ea0       ??_C@_1M@EIBJEEPA@?$AAm?$AAs?$AA?9?$AAM?$AAY?$AA?$AA@ 000000018003dea0     libucrt:lcidtoname_downlevel.obj
 0002:00004eb0       ??_C@_1M@FHLBGMPP@?$AAk?$AAk?$AA?9?$AAK?$AAZ?$AA?$AA@ 000000018003deb0     libucrt:lcidtoname_downlevel.obj
 0002:00004ec0       ??_C@_1M@NGJJLCGI@?$AAk?$AAy?$AA?9?$AAK?$AAG?$AA?$AA@ 000000018003dec0     libucrt:lcidtoname_downlevel.obj
 0002:00004ed0       ??_C@_1M@GIENNBFC@?$AAs?$AAw?$AA?9?$AAK?$AAE?$AA?$AA@ 000000018003ded0     libucrt:lcidtoname_downlevel.obj
 0002:00004ee0       ??_C@_1BG@NDGMJIMJ@?$AAu?$AAz?$AA?9?$AAU?$AAZ?$AA?9?$AAL?$AAa?$AAt?$AAn?$AA?$AA@ 000000018003dee0     libucrt:lcidtoname_downlevel.obj
 0002:00004ef8       ??_C@_1M@IDCCIHBC@?$AAt?$AAt?$AA?9?$AAR?$AAU?$AA?$AA@ 000000018003def8     libucrt:lcidtoname_downlevel.obj
 0002:00004f08       ??_C@_1M@LOICPMOJ@?$AAb?$AAn?$AA?9?$AAI?$AAN?$AA?$AA@ 000000018003df08     libucrt:lcidtoname_downlevel.obj
 0002:00004f18       ??_C@_1M@KPKKNEAH@?$AAp?$AAa?$AA?9?$AAI?$AAN?$AA?$AA@ 000000018003df18     libucrt:lcidtoname_downlevel.obj
 0002:00004f28       ??_C@_1M@PJGPPBOG@?$AAg?$AAu?$AA?9?$AAI?$AAN?$AA?$AA@ 000000018003df28     libucrt:lcidtoname_downlevel.obj
 0002:00004f38       ??_C@_1M@KMKMOPHI@?$AAt?$AAa?$AA?9?$AAI?$AAN?$AA?$AA@ 000000018003df38     libucrt:lcidtoname_downlevel.obj
 0002:00004f48       ??_C@_1M@KFEHEPAC@?$AAt?$AAe?$AA?9?$AAI?$AAN?$AA?$AA@ 000000018003df48     libucrt:lcidtoname_downlevel.obj
 0002:00004f58       ??_C@_1M@CDCLMGHI@?$AAk?$AAn?$AA?9?$AAI?$AAN?$AA?$AA@ 000000018003df58     libucrt:lcidtoname_downlevel.obj
 0002:00004f68       ??_C@_1M@MIODLDKF@?$AAm?$AAl?$AA?9?$AAI?$AAN?$AA?$AA@ 000000018003df68     libucrt:lcidtoname_downlevel.obj
 0002:00004f78       ??_C@_1M@PBIEACPO@?$AAm?$AAr?$AA?9?$AAI?$AAN?$AA?$AA@ 000000018003df78     libucrt:lcidtoname_downlevel.obj
 0002:00004f88       ??_C@_1M@NIDEAGPH@?$AAs?$AAa?$AA?9?$AAI?$AAN?$AA?$AA@ 000000018003df88     libucrt:lcidtoname_downlevel.obj
 0002:00004f98       ??_C@_1M@FHIHCBIO@?$AAm?$AAn?$AA?9?$AAM?$AAN?$AA?$AA@ 000000018003df98     libucrt:lcidtoname_downlevel.obj
 0002:00004fa8       ??_C@_1M@JAIJPENP@?$AAc?$AAy?$AA?9?$AAG?$AAB?$AA?$AA@ 000000018003dfa8     libucrt:lcidtoname_downlevel.obj
 0002:00004fb8       ??_C@_1M@PHGFBEPN@?$AAg?$AAl?$AA?9?$AAE?$AAS?$AA?$AA@ 000000018003dfb8     libucrt:lcidtoname_downlevel.obj
 0002:00004fc8       ??_C@_1O@KPIPDNCP@?$AAk?$AAo?$AAk?$AA?9?$AAI?$AAN?$AA?$AA@ 000000018003dfc8     libucrt:lcidtoname_downlevel.obj
 0002:00004fd8       ??_C@_1O@KNHJLDJA@?$AAs?$AAy?$AAr?$AA?9?$AAS?$AAY?$AA?$AA@ 000000018003dfd8     libucrt:lcidtoname_downlevel.obj
 0002:00004fe8       ??_C@_1O@MKEKBLAH@?$AAd?$AAi?$AAv?$AA?9?$AAM?$AAV?$AA?$AA@ 000000018003dfe8     libucrt:lcidtoname_downlevel.obj
 0002:00004ff8       ??_C@_1O@OHDCKDDF@?$AAq?$AAu?$AAz?$AA?9?$AAB?$AAO?$AA?$AA@ 000000018003dff8     libucrt:lcidtoname_downlevel.obj
 0002:00005008       ??_C@_1M@LEPJNLFD@?$AAn?$AAs?$AA?9?$AAZ?$AAA?$AA?$AA@ 000000018003e008     libucrt:lcidtoname_downlevel.obj
 0002:00005018       ??_C@_1M@OMLEIIJB@?$AAm?$AAi?$AA?9?$AAN?$AAZ?$AA?$AA@ 000000018003e018     libucrt:lcidtoname_downlevel.obj
 0002:00005028       ??_C@_1M@PMPEAILG@?$AAa?$AAr?$AA?9?$AAI?$AAQ?$AA?$AA@ 000000018003e028     libucrt:lcidtoname_downlevel.obj
 0002:00005038       ??_C@_1M@CNKPNOEE@?$AAd?$AAe?$AA?9?$AAC?$AAH?$AA?$AA@ 000000018003e038     libucrt:lcidtoname_downlevel.obj
 0002:00005048       ??_C@_1M@LKMGMLKO@?$AAe?$AAn?$AA?9?$AAG?$AAB?$AA?$AA@ 000000018003e048     libucrt:lcidtoname_downlevel.obj
 0002:00005058       ??_C@_1M@PGKJFFGL@?$AAe?$AAs?$AA?9?$AAM?$AAX?$AA?$AA@ 000000018003e058     libucrt:lcidtoname_downlevel.obj
 0002:00005068       ??_C@_1M@DNNANBDC@?$AAf?$AAr?$AA?9?$AAB?$AAE?$AA?$AA@ 000000018003e068     libucrt:lcidtoname_downlevel.obj
 0002:00005078       ??_C@_1M@HLGMDFHM@?$AAi?$AAt?$AA?9?$AAC?$AAH?$AA?$AA@ 000000018003e078     libucrt:lcidtoname_downlevel.obj
 0002:00005088       ??_C@_1M@CLLBGJH@?$AAn?$AAl?$AA?9?$AAB?$AAE?$AA?$AA@ 000000018003e088     libucrt:lcidtoname_downlevel.obj
 0002:00005098       ??_C@_1M@BODBOGLF@?$AAn?$AAn?$AA?9?$AAN?$AAO?$AA?$AA@ 000000018003e098     libucrt:lcidtoname_downlevel.obj
 0002:000050a8       ??_C@_1M@HFFAHKAD@?$AAp?$AAt?$AA?9?$AAP?$AAT?$AA?$AA@ 000000018003e0a8     libucrt:lcidtoname_downlevel.obj
 0002:000050b8       ??_C@_1BG@LNOAKHIE@?$AAs?$AAr?$AA?9?$AAS?$AAP?$AA?9?$AAL?$AAa?$AAt?$AAn?$AA?$AA@ 000000018003e0b8     libucrt:lcidtoname_downlevel.obj
 0002:000050d0       ??_C@_1M@HBMHBGAK@?$AAs?$AAv?$AA?9?$AAF?$AAI?$AA?$AA@ 000000018003e0d0     libucrt:lcidtoname_downlevel.obj
 0002:000050e0       ??_C@_1BG@DGCJGJBE@?$AAa?$AAz?$AA?9?$AAA?$AAZ?$AA?9?$AAC?$AAy?$AAr?$AAl?$AA?$AA@ 000000018003e0e0     libucrt:lcidtoname_downlevel.obj
 0002:000050f8       ??_C@_1M@KEJDAAHB@?$AAs?$AAe?$AA?9?$AAS?$AAE?$AA?$AA@ 000000018003e0f8     libucrt:lcidtoname_downlevel.obj
 0002:00005108       ??_C@_1M@HEIBJJAD@?$AAm?$AAs?$AA?9?$AAB?$AAN?$AA?$AA@ 000000018003e108     libucrt:lcidtoname_downlevel.obj
 0002:00005118       ??_C@_1BG@PBGJMCEM@?$AAu?$AAz?$AA?9?$AAU?$AAZ?$AA?9?$AAC?$AAy?$AAr?$AAl?$AA?$AA@ 000000018003e118     libucrt:lcidtoname_downlevel.obj
 0002:00005130       ??_C@_1O@LAOBCMDF@?$AAq?$AAu?$AAz?$AA?9?$AAE?$AAC?$AA?$AA@ 000000018003e130     libucrt:lcidtoname_downlevel.obj
 0002:00005140       ??_C@_1M@POEEMAIO@?$AAa?$AAr?$AA?9?$AAE?$AAG?$AA?$AA@ 000000018003e140     libucrt:lcidtoname_downlevel.obj
 0002:00005150       ??_C@_1M@EFAKDEDL@?$AAz?$AAh?$AA?9?$AAH?$AAK?$AA?$AA@ 000000018003e150     libucrt:lcidtoname_downlevel.obj
 0002:00005160       ??_C@_1M@HKKIJHGI@?$AAd?$AAe?$AA?9?$AAA?$AAT?$AA?$AA@ 000000018003e160     libucrt:lcidtoname_downlevel.obj
 0002:00005170       ??_C@_1M@KBFBEHJF@?$AAe?$AAn?$AA?9?$AAA?$AAU?$AA?$AA@ 000000018003e170     libucrt:lcidtoname_downlevel.obj
 0002:00005180       ??_C@_1M@MNPLFAAH@?$AAe?$AAs?$AA?9?$AAE?$AAS?$AA?$AA@ 000000018003e180     libucrt:lcidtoname_downlevel.obj
 0002:00005190       ??_C@_1M@HJOOJFMA@?$AAf?$AAr?$AA?9?$AAC?$AAA?$AA?$AA@ 000000018003e190     libucrt:lcidtoname_downlevel.obj
 0002:000051a0       ??_C@_1BG@JPOFPNAB@?$AAs?$AAr?$AA?9?$AAS?$AAP?$AA?9?$AAC?$AAy?$AAr?$AAl?$AA?$AA@ 000000018003e1a0     libucrt:lcidtoname_downlevel.obj
 0002:000051b8       ??_C@_1M@LNFOCMOB@?$AAs?$AAe?$AA?9?$AAF?$AAI?$AA?$AA@ 000000018003e1b8     libucrt:lcidtoname_downlevel.obj
 0002:000051c8       ??_C@_1O@MGJBOAMB@?$AAq?$AAu?$AAz?$AA?9?$AAP?$AAE?$AA?$AA@ 000000018003e1c8     libucrt:lcidtoname_downlevel.obj
 0002:000051d8       ??_C@_1M@GJINLBOK@?$AAa?$AAr?$AA?9?$AAL?$AAY?$AA?$AA@ 000000018003e1d8     libucrt:lcidtoname_downlevel.obj
 0002:000051e8       ??_C@_1M@GGMNHJNL@?$AAz?$AAh?$AA?9?$AAS?$AAG?$AA?$AA@ 000000018003e1e8     libucrt:lcidtoname_downlevel.obj
 0002:000051f8       ??_C@_1M@HOIKODND@?$AAd?$AAe?$AA?9?$AAL?$AAU?$AA?$AA@ 000000018003e1f8     libucrt:lcidtoname_downlevel.obj
 0002:00005208       ??_C@_1M@DDOCCGFG@?$AAe?$AAn?$AA?9?$AAC?$AAA?$AA?$AA@ 000000018003e208     libucrt:lcidtoname_downlevel.obj
 0002:00005218       ??_C@_1M@BNOEMJLF@?$AAe?$AAs?$AA?9?$AAG?$AAT?$AA?$AA@ 000000018003e218     libucrt:lcidtoname_downlevel.obj
 0002:00005228       ??_C@_1M@EOGNKEK@?$AAf?$AAr?$AA?9?$AAC?$AAH?$AA?$AA@ 000000018003e228     libucrt:lcidtoname_downlevel.obj
 0002:00005238       ??_C@_1M@FLIDJFHL@?$AAh?$AAr?$AA?9?$AAB?$AAA?$AA?$AA@ 000000018003e238     libucrt:lcidtoname_downlevel.obj
 0002:00005248       ??_C@_1O@FMCELNAJ@?$AAs?$AAm?$AAj?$AA?9?$AAN?$AAO?$AA?$AA@ 000000018003e248     libucrt:lcidtoname_downlevel.obj
 0002:00005258       ??_C@_1M@JHGLJMGJ@?$AAa?$AAr?$AA?9?$AAD?$AAZ?$AA?$AA@ 000000018003e258     libucrt:lcidtoname_downlevel.obj
 0002:00005268       ??_C@_1M@JKKFDCNP@?$AAz?$AAh?$AA?9?$AAM?$AAO?$AA?$AA@ 000000018003e268     libucrt:lcidtoname_downlevel.obj
 0002:00005278       ??_C@_1M@GEEFALPE@?$AAd?$AAe?$AA?9?$AAL?$AAI?$AA?$AA@ 000000018003e278     libucrt:lcidtoname_downlevel.obj
 0002:00005288       ??_C@_1M@IGEOFBG@?$AAe?$AAn?$AA?9?$AAN?$AAZ?$AA?$AA@ 000000018003e288     libucrt:lcidtoname_downlevel.obj
 0002:00005298       ??_C@_1M@KDBONEHP@?$AAe?$AAs?$AA?9?$AAC?$AAR?$AA?$AA@ 000000018003e298     libucrt:lcidtoname_downlevel.obj
 0002:000052a8       ??_C@_1M@FHMDOHNN@?$AAf?$AAr?$AA?9?$AAL?$AAU?$AA?$AA@ 000000018003e2a8     libucrt:lcidtoname_downlevel.obj
 0002:000052b8       ??_C@_1BG@NFKKMAFG@?$AAb?$AAs?$AA?9?$AAB?$AAA?$AA?9?$AAL?$AAa?$AAt?$AAn?$AA?$AA@ 000000018003e2b8     libucrt:lcidtoname_downlevel.obj
 0002:000052d0       ??_C@_1O@IMNBEMCI@?$AAs?$AAm?$AAj?$AA?9?$AAS?$AAE?$AA?$AA@ 000000018003e2d0     libucrt:lcidtoname_downlevel.obj
 0002:000052e0       ??_C@_1M@DHHMBNDP@?$AAa?$AAr?$AA?9?$AAM?$AAA?$AA?$AA@ 000000018003e2e0     libucrt:lcidtoname_downlevel.obj
 0002:000052f0       ??_C@_1M@BNBLJCGH@?$AAe?$AAn?$AA?9?$AAI?$AAE?$AA?$AA@ 000000018003e2f0     libucrt:lcidtoname_downlevel.obj
 0002:00005300       ??_C@_1M@GEPAFMDL@?$AAe?$AAs?$AA?9?$AAP?$AAA?$AA?$AA@ 000000018003e300     libucrt:lcidtoname_downlevel.obj
 0002:00005310       ??_C@_1M@OJONDMDL@?$AAf?$AAr?$AA?9?$AAM?$AAC?$AA?$AA@ 000000018003e310     libucrt:lcidtoname_downlevel.obj
 0002:00005320       ??_C@_1BG@OBCNFJB@?$AAs?$AAr?$AA?9?$AAB?$AAA?$AA?9?$AAL?$AAa?$AAt?$AAn?$AA?$AA@ 000000018003e320     libucrt:lcidtoname_downlevel.obj
 0002:00005338       ??_C@_1O@KEMEEGPO@?$AAs?$AAm?$AAa?$AA?9?$AAN?$AAO?$AA?$AA@ 000000018003e338     libucrt:lcidtoname_downlevel.obj
 0002:00005348       ??_C@_1M@ELMGFODK@?$AAa?$AAr?$AA?9?$AAT?$AAN?$AA?$AA@ 000000018003e348     libucrt:lcidtoname_downlevel.obj
 0002:00005358       ??_C@_1M@BHDLHFAF@?$AAe?$AAn?$AA?9?$AAZ?$AAA?$AA?$AA@ 000000018003e358     libucrt:lcidtoname_downlevel.obj
 0002:00005368       ??_C@_1M@BMGIGLIF@?$AAe?$AAs?$AA?9?$AAD?$AAO?$AA?$AA@ 000000018003e368     libucrt:lcidtoname_downlevel.obj
 0002:00005378       ??_C@_1BG@CMBHIPBE@?$AAs?$AAr?$AA?9?$AAB?$AAA?$AA?9?$AAC?$AAy?$AAr?$AAl?$AA?$AA@ 000000018003e378     libucrt:lcidtoname_downlevel.obj
 0002:00005390       ??_C@_1O@HEDBLHNP@?$AAs?$AAm?$AAa?$AA?9?$AAS?$AAE?$AA?$AA@ 000000018003e390     libucrt:lcidtoname_downlevel.obj
 0002:000053a0       ??_C@_1M@DAGCADIM@?$AAa?$AAr?$AA?9?$AAO?$AAM?$AA?$AA@ 000000018003e3a0     libucrt:lcidtoname_downlevel.obj
 0002:000053b0       ??_C@_1M@FODLMICG@?$AAe?$AAn?$AA?9?$AAJ?$AAM?$AA?$AA@ 000000018003e3b0     libucrt:lcidtoname_downlevel.obj
 0002:000053c0       ??_C@_1M@DNMLCIHB@?$AAe?$AAs?$AA?9?$AAV?$AAE?$AA?$AA@ 000000018003e3c0     libucrt:lcidtoname_downlevel.obj
 0002:000053d0       ??_C@_1O@EOKHMKJK@?$AAs?$AAm?$AAs?$AA?9?$AAF?$AAI?$AA?$AA@ 000000018003e3d0     libucrt:lcidtoname_downlevel.obj
 0002:000053e0       ??_C@_1M@CAFJMKOF@?$AAa?$AAr?$AA?9?$AAY?$AAE?$AA?$AA@ 000000018003e3e0     libucrt:lcidtoname_downlevel.obj
 0002:000053f0       ??_C@_1M@CBFHIJLI@?$AAe?$AAn?$AA?9?$AAC?$AAB?$AA?$AA@ 000000018003e3f0     libucrt:lcidtoname_downlevel.obj
 0002:00005400       ??_C@_1M@BGNFLDN@?$AAe?$AAs?$AA?9?$AAC?$AAO?$AA?$AA@ 000000018003e400     libucrt:lcidtoname_downlevel.obj
 0002:00005410       ??_C@_1O@JMPHMAMC@?$AAs?$AAm?$AAn?$AA?9?$AAF?$AAI?$AA?$AA@ 000000018003e410     libucrt:lcidtoname_downlevel.obj
 0002:00005420       ??_C@_1M@JLANABKE@?$AAa?$AAr?$AA?9?$AAS?$AAY?$AA?$AA@ 000000018003e420     libucrt:lcidtoname_downlevel.obj
 0002:00005430       ??_C@_1M@HPKGCFGN@?$AAe?$AAn?$AA?9?$AAB?$AAZ?$AA?$AA@ 000000018003e430     libucrt:lcidtoname_downlevel.obj
 0002:00005440       ??_C@_1M@OLJCMLGM@?$AAe?$AAs?$AA?9?$AAP?$AAE?$AA?$AA@ 000000018003e440     libucrt:lcidtoname_downlevel.obj
 0002:00005450       ??_C@_1M@MKKGFKLE@?$AAa?$AAr?$AA?9?$AAJ?$AAO?$AA?$AA@ 000000018003e450     libucrt:lcidtoname_downlevel.obj
 0002:00005460       ??_C@_1M@EKPGLDNI@?$AAe?$AAn?$AA?9?$AAT?$AAT?$AA?$AA@ 000000018003e460     libucrt:lcidtoname_downlevel.obj
 0002:00005470       ??_C@_1M@OONGHFHE@?$AAe?$AAs?$AA?9?$AAA?$AAR?$AA?$AA@ 000000018003e470     libucrt:lcidtoname_downlevel.obj
 0002:00005480       ??_C@_1M@OOJFGBHE@?$AAa?$AAr?$AA?9?$AAL?$AAB?$AA?$AA@ 000000018003e480     libucrt:lcidtoname_downlevel.obj
 0002:00005490       ??_C@_1M@GCEJHNEG@?$AAe?$AAn?$AA?9?$AAZ?$AAW?$AA?$AA@ 000000018003e490     libucrt:lcidtoname_downlevel.obj
 0002:000054a0       ??_C@_1M@JNOCAHJI@?$AAe?$AAs?$AA?9?$AAE?$AAC?$AA?$AA@ 000000018003e4a0     libucrt:lcidtoname_downlevel.obj
 0002:000054b0       ??_C@_1M@JEFHPGGB@?$AAa?$AAr?$AA?9?$AAK?$AAW?$AA?$AA@ 000000018003e4b0     libucrt:lcidtoname_downlevel.obj
 0002:000054c0       ??_C@_1M@MLKIBJOJ@?$AAe?$AAn?$AA?9?$AAP?$AAH?$AA?$AA@ 000000018003e4c0     libucrt:lcidtoname_downlevel.obj
 0002:000054d0       ??_C@_1M@BDNIPEND@?$AAe?$AAs?$AA?9?$AAC?$AAL?$AA?$AA@ 000000018003e4d0     libucrt:lcidtoname_downlevel.obj
 0002:000054e0       ??_C@_1M@MPNMEKBD@?$AAa?$AAr?$AA?9?$AAA?$AAE?$AA?$AA@ 000000018003e4e0     libucrt:lcidtoname_downlevel.obj
 0002:000054f0       ??_C@_1M@KBJALCPI@?$AAe?$AAs?$AA?9?$AAU?$AAY?$AA?$AA@ 000000018003e4f0     libucrt:lcidtoname_downlevel.obj
 0002:00005500       ??_C@_1M@LLCCOAGA@?$AAa?$AAr?$AA?9?$AAB?$AAH?$AA?$AA@ 000000018003e500     libucrt:lcidtoname_downlevel.obj
 0002:00005510       ??_C@_1M@PBFNCDEL@?$AAe?$AAs?$AA?9?$AAP?$AAY?$AA?$AA@ 000000018003e510     libucrt:lcidtoname_downlevel.obj
 0002:00005520       ??_C@_1M@EDGINPNP@?$AAa?$AAr?$AA?9?$AAQ?$AAA?$AA?$AA@ 000000018003e520     libucrt:lcidtoname_downlevel.obj
 0002:00005530       ??_C@_1M@MKDBIIJI@?$AAe?$AAs?$AA?9?$AAB?$AAO?$AA?$AA@ 000000018003e530     libucrt:lcidtoname_downlevel.obj
 0002:00005540       ??_C@_1M@CPKKEBLD@?$AAe?$AAs?$AA?9?$AAS?$AAV?$AA?$AA@ 000000018003e540     libucrt:lcidtoname_downlevel.obj
 0002:00005550       ??_C@_1M@NDBGMMJL@?$AAe?$AAs?$AA?9?$AAH?$AAN?$AA?$AA@ 000000018003e550     libucrt:lcidtoname_downlevel.obj
 0002:00005560       ??_C@_1M@JIJIBHDP@?$AAe?$AAs?$AA?9?$AAN?$AAI?$AA?$AA@ 000000018003e560     libucrt:lcidtoname_downlevel.obj
 0002:00005570       ??_C@_1M@CGFMKEEK@?$AAe?$AAs?$AA?9?$AAP?$AAR?$AA?$AA@ 000000018003e570     libucrt:lcidtoname_downlevel.obj
 0002:00005580       ??_C@_1O@ICJHKIIK@?$AAz?$AAh?$AA?9?$AAC?$AAH?$AAT?$AA?$AA@ 000000018003e580     libucrt:lcidtoname_downlevel.obj
 0002:00005590       ??_C@_15CLNEJCE@?$AAs?$AAr?$AA?$AA@ 000000018003e590     libucrt:lcidtoname_downlevel.obj
 0002:000063e0       ??_C@_1M@KAHEKEIG@?$AAa?$AAf?$AA?9?$AAz?$AAa?$AA?$AA@ 000000018003f3e0     libucrt:lcidtoname_downlevel.obj
 0002:000063f0       ??_C@_1M@GIECOABL@?$AAa?$AAr?$AA?9?$AAa?$AAe?$AA?$AA@ 000000018003f3f0     libucrt:lcidtoname_downlevel.obj
 0002:00006400       ??_C@_1M@BMLMEKGI@?$AAa?$AAr?$AA?9?$AAb?$AAh?$AA?$AA@ 000000018003f400     libucrt:lcidtoname_downlevel.obj
 0002:00006410       ??_C@_1M@DAPFDGGB@?$AAa?$AAr?$AA?9?$AAd?$AAz?$AA?$AA@ 000000018003f410     libucrt:lcidtoname_downlevel.obj
 0002:00006420       ??_C@_1M@FJNKGKIG@?$AAa?$AAr?$AA?9?$AAe?$AAg?$AA?$AA@ 000000018003f420     libucrt:lcidtoname_downlevel.obj
 0002:00006430       ??_C@_1M@FLGKKCLO@?$AAa?$AAr?$AA?9?$AAi?$AAq?$AA?$AA@ 000000018003f430     libucrt:lcidtoname_downlevel.obj
 0002:00006440       ??_C@_1M@GNDIPALM@?$AAa?$AAr?$AA?9?$AAj?$AAo?$AA?$AA@ 000000018003f440     libucrt:lcidtoname_downlevel.obj
 0002:00006450       ??_C@_1M@DDMJFMGJ@?$AAa?$AAr?$AA?9?$AAk?$AAw?$AA?$AA@ 000000018003f450     libucrt:lcidtoname_downlevel.obj
 0002:00006460       ??_C@_1M@EJALMLHM@?$AAa?$AAr?$AA?9?$AAl?$AAb?$AA?$AA@ 000000018003f460     libucrt:lcidtoname_downlevel.obj
 0002:00006470       ??_C@_1M@MOBDBLOC@?$AAa?$AAr?$AA?9?$AAl?$AAy?$AA?$AA@ 000000018003f470     libucrt:lcidtoname_downlevel.obj
 0002:00006480       ??_C@_1M@JAOCLHDH@?$AAa?$AAr?$AA?9?$AAm?$AAa?$AA?$AA@ 000000018003f480     libucrt:lcidtoname_downlevel.obj
 0002:00006490       ??_C@_1M@JHPMKJIE@?$AAa?$AAr?$AA?9?$AAo?$AAm?$AA?$AA@ 000000018003f490     libucrt:lcidtoname_downlevel.obj
 0002:000064a0       ??_C@_1M@OEPGHFNH@?$AAa?$AAr?$AA?9?$AAq?$AAa?$AA?$AA@ 000000018003f4a0     libucrt:lcidtoname_downlevel.obj
 0002:000064b0       ??_C@_1M@KJDONENM@?$AAa?$AAr?$AA?9?$AAs?$AAa?$AA?$AA@ 000000018003f4b0     libucrt:lcidtoname_downlevel.obj
 0002:000064c0       ??_C@_1M@DMJDKLKM@?$AAa?$AAr?$AA?9?$AAs?$AAy?$AA?$AA@ 000000018003f4c0     libucrt:lcidtoname_downlevel.obj
 0002:000064d0       ??_C@_1M@OMFIPEDC@?$AAa?$AAr?$AA?9?$AAt?$AAn?$AA?$AA@ 000000018003f4d0     libucrt:lcidtoname_downlevel.obj
 0002:000064e0       ??_C@_1M@IHMHGAON@?$AAa?$AAr?$AA?9?$AAy?$AAe?$AA?$AA@ 000000018003f4e0     libucrt:lcidtoname_downlevel.obj
 0002:000064f0       ??_C@_1BG@KDCPGJGB@?$AAa?$AAz?$AA?9?$AAa?$AAz?$AA?9?$AAc?$AAy?$AAr?$AAl?$AA?$AA@ 000000018003f4f0     libucrt:lcidtoname_downlevel.obj
 0002:00006508       ??_C@_1BG@IBCKDDOE@?$AAa?$AAz?$AA?9?$AAa?$AAz?$AA?9?$AAl?$AAa?$AAt?$AAn?$AA?$AA@ 000000018003f508     libucrt:lcidtoname_downlevel.obj
 0002:00006520       ??_C@_1M@EGPFDCPD@?$AAb?$AAe?$AA?9?$AAb?$AAy?$AA?$AA@ 000000018003f520     libucrt:lcidtoname_downlevel.obj
 0002:00006530       ??_C@_1M@PCMGMCGC@?$AAb?$AAg?$AA?9?$AAb?$AAg?$AA?$AA@ 000000018003f530     libucrt:lcidtoname_downlevel.obj
 0002:00006540       ??_C@_1M@BJBMFGOB@?$AAb?$AAn?$AA?9?$AAi?$AAn?$AA?$AA@ 000000018003f540     libucrt:lcidtoname_downlevel.obj
 0002:00006550       ??_C@_1BG@EAKMMACD@?$AAb?$AAs?$AA?9?$AAb?$AAa?$AA?9?$AAl?$AAa?$AAt?$AAn?$AA?$AA@ 000000018003f550     libucrt:lcidtoname_downlevel.obj
 0002:00006568       ??_C@_1M@KGADAODK@?$AAc?$AAa?$AA?9?$AAe?$AAs?$AA?$AA@ 000000018003f568     libucrt:lcidtoname_downlevel.obj
 0002:00006578       ??_C@_1M@COAJPDHI@?$AAc?$AAs?$AA?9?$AAc?$AAz?$AA?$AA@ 000000018003f578     libucrt:lcidtoname_downlevel.obj
 0002:00006588       ??_C@_1M@DHBHFONH@?$AAc?$AAy?$AA?9?$AAg?$AAb?$AA?$AA@ 000000018003f588     libucrt:lcidtoname_downlevel.obj
 0002:00006598       ??_C@_1M@IMGKELGA@?$AAd?$AAa?$AA?9?$AAd?$AAk?$AA?$AA@ 000000018003f598     libucrt:lcidtoname_downlevel.obj
 0002:000065a8       ??_C@_1M@NNDGDNGA@?$AAd?$AAe?$AA?9?$AAa?$AAt?$AA?$AA@ 000000018003f5a8     libucrt:lcidtoname_downlevel.obj
 0002:000065b8       ??_C@_1M@IKDBHEEM@?$AAd?$AAe?$AA?9?$AAc?$AAh?$AA?$AA@ 000000018003f5b8     libucrt:lcidtoname_downlevel.obj
 0002:000065c8       ??_C@_1M@GFFOJMCJ@?$AAd?$AAe?$AA?9?$AAd?$AAe?$AA?$AA@ 000000018003f5c8     libucrt:lcidtoname_downlevel.obj
 0002:000065d8       ??_C@_1M@MDNLKBPM@?$AAd?$AAe?$AA?9?$AAl?$AAi?$AA?$AA@ 000000018003f5d8     libucrt:lcidtoname_downlevel.obj
 0002:000065e8       ??_C@_1M@NJBEEJNL@?$AAd?$AAe?$AA?9?$AAl?$AAu?$AA?$AA@ 000000018003f5e8     libucrt:lcidtoname_downlevel.obj
 0002:000065f8       ??_C@_1O@GNNELBAP@?$AAd?$AAi?$AAv?$AA?9?$AAm?$AAv?$AA?$AA@ 000000018003f5f8     libucrt:lcidtoname_downlevel.obj
 0002:00006608       ??_C@_1M@EJLEOGAE@?$AAe?$AAl?$AA?9?$AAg?$AAr?$AA?$AA@ 000000018003f608     libucrt:lcidtoname_downlevel.obj
 0002:00006618       ??_C@_1M@GMPONJN@?$AAe?$AAn?$AA?9?$AAa?$AAu?$AA?$AA@ 000000018003f618     libucrt:lcidtoname_downlevel.obj
 0002:00006628       ??_C@_1M@NIDIIPGF@?$AAe?$AAn?$AA?9?$AAb?$AAz?$AA?$AA@ 000000018003f628     libucrt:lcidtoname_downlevel.obj
 0002:00006638       ??_C@_1M@JEHMIMFO@?$AAe?$AAn?$AA?9?$AAc?$AAa?$AA?$AA@ 000000018003f638     libucrt:lcidtoname_downlevel.obj
 0002:00006648       ??_C@_1M@IGMJCDLA@?$AAe?$AAn?$AA?9?$AAc?$AAb?$AA?$AA@ 000000018003f648     libucrt:lcidtoname_downlevel.obj
 0002:00006658       ??_C@_1M@BNFIGBKG@?$AAe?$AAn?$AA?9?$AAg?$AAb?$AA?$AA@ 000000018003f658     libucrt:lcidtoname_downlevel.obj
 0002:00006668       ??_C@_1M@LKIFDIGP@?$AAe?$AAn?$AA?9?$AAi?$AAe?$AA?$AA@ 000000018003f668     libucrt:lcidtoname_downlevel.obj
 0002:00006678       ??_C@_1M@PJKFGCCO@?$AAe?$AAn?$AA?9?$AAj?$AAm?$AA?$AA@ 000000018003f678     libucrt:lcidtoname_downlevel.obj
 0002:00006688       ??_C@_1M@KPPKEPBO@?$AAe?$AAn?$AA?9?$AAn?$AAz?$AA?$AA@ 000000018003f688     libucrt:lcidtoname_downlevel.obj
 0002:00006698       ??_C@_1M@GMDGLDOB@?$AAe?$AAn?$AA?9?$AAp?$AAh?$AA?$AA@ 000000018003f698     libucrt:lcidtoname_downlevel.obj
 0002:000066a8       ??_C@_1M@ONGIBJNA@?$AAe?$AAn?$AA?9?$AAt?$AAt?$AA?$AA@ 000000018003f6a8     libucrt:lcidtoname_downlevel.obj
 0002:000066b8       ??_C@_1M@LLODPCMM@?$AAe?$AAn?$AA?9?$AAu?$AAs?$AA?$AA@ 000000018003f6b8     libucrt:lcidtoname_downlevel.obj
 0002:000066c8       ??_C@_1M@LAKFNPAN@?$AAe?$AAn?$AA?9?$AAz?$AAa?$AA?$AA@ 000000018003f6c8     libucrt:lcidtoname_downlevel.obj
 0002:000066d8       ??_C@_1M@MFNHNHEO@?$AAe?$AAn?$AA?9?$AAz?$AAw?$AA?$AA@ 000000018003f6d8     libucrt:lcidtoname_downlevel.obj
 0002:000066e8       ??_C@_1M@EJEINPHM@?$AAe?$AAs?$AA?9?$AAa?$AAr?$AA?$AA@ 000000018003f6e8     libucrt:lcidtoname_downlevel.obj
 0002:000066f8       ??_C@_1M@GNKPCCJA@?$AAe?$AAs?$AA?9?$AAb?$AAo?$AA?$AA@ 000000018003f6f8     libucrt:lcidtoname_downlevel.obj
 0002:00006708       ??_C@_1M@LEEGFONL@?$AAe?$AAs?$AA?9?$AAc?$AAl?$AA?$AA@ 000000018003f708     libucrt:lcidtoname_downlevel.obj
 0002:00006718       ??_C@_1M@KGPDPBDF@?$AAe?$AAs?$AA?9?$AAc?$AAo?$AA?$AA@ 000000018003f718     libucrt:lcidtoname_downlevel.obj
 0002:00006728       ??_C@_1M@EIAHOHH@?$AAe?$AAs?$AA?9?$AAc?$AAr?$AA?$AA@ 000000018003f728     libucrt:lcidtoname_downlevel.obj
 0002:00006738       ??_C@_1M@LLPGMBIN@?$AAe?$AAs?$AA?9?$AAd?$AAo?$AA?$AA@ 000000018003f738     libucrt:lcidtoname_downlevel.obj
 0002:00006748       ??_C@_1M@DKHMKNJA@?$AAe?$AAs?$AA?9?$AAe?$AAc?$AA?$AA@ 000000018003f748     libucrt:lcidtoname_downlevel.obj
 0002:00006758       ??_C@_1M@GKGFPKAP@?$AAe?$AAs?$AA?9?$AAe?$AAs?$AA?$AA@ 000000018003f758     libucrt:lcidtoname_downlevel.obj
 0002:00006768       ??_C@_1M@LKHKGDLN@?$AAe?$AAs?$AA?9?$AAg?$AAt?$AA?$AA@ 000000018003f768     libucrt:lcidtoname_downlevel.obj
 0002:00006778       ??_C@_1M@HEIIGGJD@?$AAe?$AAs?$AA?9?$AAh?$AAn?$AA?$AA@ 000000018003f778     libucrt:lcidtoname_downlevel.obj
 0002:00006788       ??_C@_1M@FBDHPPGD@?$AAe?$AAs?$AA?9?$AAm?$AAx?$AA?$AA@ 000000018003f788     libucrt:lcidtoname_downlevel.obj
 0002:00006798       ??_C@_1M@DPAGLNDH@?$AAe?$AAs?$AA?9?$AAn?$AAi?$AA?$AA@ 000000018003f798     libucrt:lcidtoname_downlevel.obj
 0002:000067a8       ??_C@_1M@MDGOPGDD@?$AAe?$AAs?$AA?9?$AAp?$AAa?$AA?$AA@ 000000018003f7a8     libucrt:lcidtoname_downlevel.obj
 0002:000067b8       ??_C@_1M@EMAMGBGE@?$AAe?$AAs?$AA?9?$AAp?$AAe?$AA?$AA@ 000000018003f7b8     libucrt:lcidtoname_downlevel.obj
 0002:000067c8       ??_C@_1M@IBMCAOEC@?$AAe?$AAs?$AA?9?$AAp?$AAr?$AA?$AA@ 000000018003f7c8     libucrt:lcidtoname_downlevel.obj
 0002:000067d8       ??_C@_1M@FGMDIJED@?$AAe?$AAs?$AA?9?$AAp?$AAy?$AA?$AA@ 000000018003f7d8     libucrt:lcidtoname_downlevel.obj
 0002:000067e8       ??_C@_1M@IIDEOLLL@?$AAe?$AAs?$AA?9?$AAs?$AAv?$AA?$AA@ 000000018003f7e8     libucrt:lcidtoname_downlevel.obj
 0002:000067f8       ??_C@_1M@GAOBIPA@?$AAe?$AAs?$AA?9?$AAu?$AAy?$AA?$AA@ 000000018003f7f8     libucrt:lcidtoname_downlevel.obj
 0002:00006808       ??_C@_1M@JKFFICHJ@?$AAe?$AAs?$AA?9?$AAv?$AAe?$AA?$AA@ 000000018003f808     libucrt:lcidtoname_downlevel.obj
 0002:00006818       ??_C@_1M@PNMLOJDF@?$AAe?$AAt?$AA?9?$AAe?$AAe?$AA?$AA@ 000000018003f818     libucrt:lcidtoname_downlevel.obj
 0002:00006828       ??_C@_1M@GHHLIKEI@?$AAe?$AAu?$AA?9?$AAe?$AAs?$AA?$AA@ 000000018003f828     libucrt:lcidtoname_downlevel.obj
 0002:00006838       ??_C@_1M@PBNONODE@?$AAf?$AAa?$AA?9?$AAi?$AAr?$AA?$AA@ 000000018003f838     libucrt:lcidtoname_downlevel.obj
 0002:00006848       ??_C@_1M@JEEHPMIL@?$AAf?$AAi?$AA?9?$AAf?$AAi?$AA?$AA@ 000000018003f848     libucrt:lcidtoname_downlevel.obj
 0002:00006858       ??_C@_1M@LMDCNDBA@?$AAf?$AAo?$AA?9?$AAf?$AAo?$AA?$AA@ 000000018003f858     libucrt:lcidtoname_downlevel.obj
 0002:00006868       ??_C@_1M@JKEOHLDK@?$AAf?$AAr?$AA?9?$AAb?$AAe?$AA?$AA@ 000000018003f868     libucrt:lcidtoname_downlevel.obj
 0002:00006878       ??_C@_1M@NOHADPMI@?$AAf?$AAr?$AA?9?$AAc?$AAa?$AA?$AA@ 000000018003f878     libucrt:lcidtoname_downlevel.obj
 0002:00006888       ??_C@_1M@KDHIHAEC@?$AAf?$AAr?$AA?9?$AAc?$AAh?$AA?$AA@ 000000018003f888     libucrt:lcidtoname_downlevel.obj
 0002:00006898       ??_C@_1M@MMBBFGAK@?$AAf?$AAr?$AA?9?$AAf?$AAr?$AA?$AA@ 000000018003f898     libucrt:lcidtoname_downlevel.obj
 0002:000068a8       ??_C@_1M@PAFNENNF@?$AAf?$AAr?$AA?9?$AAl?$AAu?$AA?$AA@ 000000018003f8a8     libucrt:lcidtoname_downlevel.obj
 0002:000068b8       ??_C@_1M@EOHDJGDD@?$AAf?$AAr?$AA?9?$AAm?$AAc?$AA?$AA@ 000000018003f8b8     libucrt:lcidtoname_downlevel.obj
 0002:000068c8       ??_C@_1M@FAPLLOPF@?$AAg?$AAl?$AA?9?$AAe?$AAs?$AA?$AA@ 000000018003f8c8     libucrt:lcidtoname_downlevel.obj
 0002:000068d8       ??_C@_1M@FOPBFLOO@?$AAg?$AAu?$AA?9?$AAi?$AAn?$AA?$AA@ 000000018003f8d8     libucrt:lcidtoname_downlevel.obj
 0002:000068e8       ??_C@_1M@KBMCINPM@?$AAh?$AAe?$AA?9?$AAi?$AAl?$AA?$AA@ 000000018003f8e8     libucrt:lcidtoname_downlevel.obj
 0002:000068f8       ??_C@_1M@BBPHKFPJ@?$AAh?$AAi?$AA?9?$AAi?$AAn?$AA?$AA@ 000000018003f8f8     libucrt:lcidtoname_downlevel.obj
 0002:00006908       ??_C@_1M@PMBNDPHD@?$AAh?$AAr?$AA?9?$AAb?$AAa?$AA?$AA@ 000000018003f908     libucrt:lcidtoname_downlevel.obj
 0002:00006918       ??_C@_1M@BPCKOEGE@?$AAh?$AAr?$AA?9?$AAh?$AAr?$AA?$AA@ 000000018003f918     libucrt:lcidtoname_downlevel.obj
 0002:00006928       ??_C@_1M@GACBMHKE@?$AAh?$AAu?$AA?9?$AAh?$AAu?$AA?$AA@ 000000018003f928     libucrt:lcidtoname_downlevel.obj
 0002:00006938       ??_C@_1M@MILPAJJC@?$AAh?$AAy?$AA?9?$AAa?$AAm?$AA?$AA@ 000000018003f938     libucrt:lcidtoname_downlevel.obj
 0002:00006948       ??_C@_1M@BABBICEC@?$AAi?$AAd?$AA?9?$AAi?$AAd?$AA?$AA@ 000000018003f948     libucrt:lcidtoname_downlevel.obj
 0002:00006958       ??_C@_1M@BIKNHHPF@?$AAi?$AAs?$AA?9?$AAi?$AAs?$AA?$AA@ 000000018003f958     libucrt:lcidtoname_downlevel.obj
 0002:00006968       ??_C@_1M@NMPCJPHE@?$AAi?$AAt?$AA?9?$AAc?$AAh?$AA?$AA@ 000000018003f968     libucrt:lcidtoname_downlevel.obj
 0002:00006978       ??_C@_1M@GHKGFEDF@?$AAi?$AAt?$AA?9?$AAi?$AAt?$AA?$AA@ 000000018003f978     libucrt:lcidtoname_downlevel.obj
 0002:00006988       ??_C@_1M@NIEJCJJA@?$AAj?$AAa?$AA?9?$AAj?$AAp?$AA?$AA@ 000000018003f988     libucrt:lcidtoname_downlevel.obj
 0002:00006998       ??_C@_1M@JILFNBIM@?$AAk?$AAa?$AA?9?$AAg?$AAe?$AA?$AA@ 000000018003f998     libucrt:lcidtoname_downlevel.obj
 0002:000069a8       ??_C@_1M@PACPMGPH@?$AAk?$AAk?$AA?9?$AAk?$AAz?$AA?$AA@ 000000018003f9a8     libucrt:lcidtoname_downlevel.obj
 0002:000069b8       ??_C@_1M@IELFGMHA@?$AAk?$AAn?$AA?9?$AAi?$AAn?$AA?$AA@ 000000018003f9b8     libucrt:lcidtoname_downlevel.obj
 0002:000069c8       ??_C@_1O@IBBJHCH@?$AAk?$AAo?$AAk?$AA?9?$AAi?$AAn?$AA?$AA@ 000000018003f9c8     libucrt:lcidtoname_downlevel.obj
 0002:000069d8       ??_C@_1M@DMHAEOGC@?$AAk?$AAo?$AA?9?$AAk?$AAr?$AA?$AA@ 000000018003f9d8     libucrt:lcidtoname_downlevel.obj
 0002:000069e8       ??_C@_1M@HBAHBIGA@?$AAk?$AAy?$AA?9?$AAk?$AAg?$AA?$AA@ 000000018003f9e8     libucrt:lcidtoname_downlevel.obj
 0002:000069f8       ??_C@_1M@KPMILCJG@?$AAl?$AAt?$AA?9?$AAl?$AAt?$AA?$AA@ 000000018003f9f8     libucrt:lcidtoname_downlevel.obj
 0002:00006a08       ??_C@_1M@BDEKKCA@?$AAl?$AAv?$AA?9?$AAl?$AAv?$AA?$AA@ 000000018003fa08     libucrt:lcidtoname_downlevel.obj
 0002:00006a18       ??_C@_1M@ELCKCCJJ@?$AAm?$AAi?$AA?9?$AAn?$AAz?$AA?$AA@ 000000018003fa18     libucrt:lcidtoname_downlevel.obj
 0002:00006a28       ??_C@_1M@CBOOLAPA@?$AAm?$AAk?$AA?9?$AAm?$AAk?$AA?$AA@ 000000018003fa28     libucrt:lcidtoname_downlevel.obj
 0002:00006a38       ??_C@_1M@GPHNBJKN@?$AAm?$AAl?$AA?9?$AAi?$AAn?$AA?$AA@ 000000018003fa38     libucrt:lcidtoname_downlevel.obj
 0002:00006a48       ??_C@_1M@PABJILIG@?$AAm?$AAn?$AA?9?$AAm?$AAn?$AA?$AA@ 000000018003fa48     libucrt:lcidtoname_downlevel.obj
 0002:00006a58       ??_C@_1M@FGBKKIPG@?$AAm?$AAr?$AA?9?$AAi?$AAn?$AA?$AA@ 000000018003fa58     libucrt:lcidtoname_downlevel.obj
 0002:00006a68       ??_C@_1M@NDBPDDAL@?$AAm?$AAs?$AA?9?$AAb?$AAn?$AA?$AA@ 000000018003fa68     libucrt:lcidtoname_downlevel.obj
 0002:00006a78       ??_C@_1M@OPIHOOPI@?$AAm?$AAs?$AA?9?$AAm?$AAy?$AA?$AA@ 000000018003fa78     libucrt:lcidtoname_downlevel.obj
 0002:00006a88       ??_C@_1M@PPDBCNFM@?$AAm?$AAt?$AA?9?$AAm?$AAt?$AA?$AA@ 000000018003fa88     libucrt:lcidtoname_downlevel.obj
 0002:00006a98       ??_C@_1M@KDJDKMDD@?$AAn?$AAb?$AA?9?$AAn?$AAo?$AA?$AA@ 000000018003fa98     libucrt:lcidtoname_downlevel.obj
 0002:00006aa8       ??_C@_1M@KFCFLMJP@?$AAn?$AAl?$AA?9?$AAb?$AAe?$AA?$AA@ 000000018003faa8     libucrt:lcidtoname_downlevel.obj
 0002:00006ab8       ??_C@_1M@KPOPDDGO@?$AAn?$AAl?$AA?9?$AAn?$AAl?$AA?$AA@ 000000018003fab8     libucrt:lcidtoname_downlevel.obj
 0002:00006ac8       ??_C@_1M@LJKPEMLN@?$AAn?$AAn?$AA?9?$AAn?$AAo?$AA?$AA@ 000000018003fac8     libucrt:lcidtoname_downlevel.obj
 0002:00006ad8       ??_C@_1M@BDGHHBFL@?$AAn?$AAs?$AA?9?$AAz?$AAa?$AA?$AA@ 000000018003fad8     libucrt:lcidtoname_downlevel.obj
 0002:00006ae8       ??_C@_1M@IDEHOAP@?$AAp?$AAa?$AA?9?$AAi?$AAn?$AA?$AA@ 000000018003fae8     libucrt:lcidtoname_downlevel.obj
 0002:00006af8       ??_C@_1M@HDBKGOGH@?$AAp?$AAl?$AA?9?$AAp?$AAl?$AA?$AA@ 000000018003faf8     libucrt:lcidtoname_downlevel.obj
 0002:00006b08       ??_C@_1M@LJLLCMEH@?$AAp?$AAt?$AA?9?$AAb?$AAr?$AA?$AA@ 000000018003fb08     libucrt:lcidtoname_downlevel.obj
 0002:00006b18       ??_C@_1M@NCMONAAL@?$AAp?$AAt?$AA?9?$AAp?$AAt?$AA?$AA@ 000000018003fb18     libucrt:lcidtoname_downlevel.obj
 0002:00006b28       ??_C@_1O@EAKMAJDN@?$AAq?$AAu?$AAz?$AA?9?$AAb?$AAo?$AA?$AA@ 000000018003fb28     libucrt:lcidtoname_downlevel.obj
 0002:00006b38       ??_C@_1O@BHHPIGDN@?$AAq?$AAu?$AAz?$AA?9?$AAe?$AAc?$AA?$AA@ 000000018003fb38     libucrt:lcidtoname_downlevel.obj
 0002:00006b48       ??_C@_1O@GBAPEKMJ@?$AAq?$AAu?$AAz?$AA?9?$AAp?$AAe?$AA?$AA@ 000000018003fb48     libucrt:lcidtoname_downlevel.obj
 0002:00006b58       ??_C@_1M@CLGLEFBO@?$AAr?$AAo?$AA?9?$AAr?$AAo?$AA?$AA@ 000000018003fb58     libucrt:lcidtoname_downlevel.obj
 0002:00006b68       ??_C@_1M@CEEDODME@?$AAr?$AAu?$AA?9?$AAr?$AAu?$AA?$AA@ 000000018003fb68     libucrt:lcidtoname_downlevel.obj
 0002:00006b78       ??_C@_1M@HPKKKMPP@?$AAs?$AAa?$AA?9?$AAi?$AAn?$AA?$AA@ 000000018003fb78     libucrt:lcidtoname_downlevel.obj
 0002:00006b88       ??_C@_1M@BKMAIGOJ@?$AAs?$AAe?$AA?9?$AAf?$AAi?$AA?$AA@ 000000018003fb88     libucrt:lcidtoname_downlevel.obj
 0002:00006b98       ??_C@_1M@NDPIFLFI@?$AAs?$AAe?$AA?9?$AAn?$AAo?$AA?$AA@ 000000018003fb98     libucrt:lcidtoname_downlevel.obj
 0002:00006ba8       ??_C@_1M@DANKKHJ@?$AAs?$AAe?$AA?9?$AAs?$AAe?$AA?$AA@ 000000018003fba8     libucrt:lcidtoname_downlevel.obj
 0002:00006bb8       ??_C@_1M@PNBLONPJ@?$AAs?$AAk?$AA?9?$AAs?$AAk?$AA?$AA@ 000000018003fbb8     libucrt:lcidtoname_downlevel.obj
 0002:00006bc8       ??_C@_1M@LFMODOAL@?$AAs?$AAl?$AA?9?$AAs?$AAi?$AA?$AA@ 000000018003fbc8     libucrt:lcidtoname_downlevel.obj
 0002:00006bd8       ??_C@_1O@DFKOMPG@?$AAs?$AAm?$AAa?$AA?9?$AAn?$AAo?$AA?$AA@ 000000018003fbd8     libucrt:lcidtoname_downlevel.obj
 0002:00006be8       ??_C@_1O@NDKPBNNH@?$AAs?$AAm?$AAa?$AA?9?$AAs?$AAe?$AA?$AA@ 000000018003fbe8     libucrt:lcidtoname_downlevel.obj
 0002:00006bf8       ??_C@_1O@PLLKBHAB@?$AAs?$AAm?$AAj?$AA?9?$AAn?$AAo?$AA?$AA@ 000000018003fbf8     libucrt:lcidtoname_downlevel.obj
 0002:00006c08       ??_C@_1O@CLEPOGCA@?$AAs?$AAm?$AAj?$AA?9?$AAs?$AAe?$AA?$AA@ 000000018003fc08     libucrt:lcidtoname_downlevel.obj
 0002:00006c18       ??_C@_1O@DLGJGKMK@?$AAs?$AAm?$AAn?$AA?9?$AAf?$AAi?$AA?$AA@ 000000018003fc18     libucrt:lcidtoname_downlevel.obj
 0002:00006c28       ??_C@_1O@OJDJGAJC@?$AAs?$AAm?$AAs?$AA?9?$AAf?$AAi?$AA?$AA@ 000000018003fc28     libucrt:lcidtoname_downlevel.obj
 0002:00006c38       ??_C@_1M@BOFOGHPB@?$AAs?$AAq?$AA?9?$AAa?$AAl?$AA?$AA@ 000000018003fc38     libucrt:lcidtoname_downlevel.obj
 0002:00006c48       ??_C@_1BG@LJBBIPGB@?$AAs?$AAr?$AA?9?$AAb?$AAa?$AA?9?$AAc?$AAy?$AAr?$AAl?$AA?$AA@ 000000018003fc48     libucrt:lcidtoname_downlevel.obj
 0002:00006c60       ??_C@_1BG@JLBENFOE@?$AAs?$AAr?$AA?9?$AAb?$AAa?$AA?9?$AAl?$AAa?$AAt?$AAn?$AA?$AA@ 000000018003fc60     libucrt:lcidtoname_downlevel.obj
 0002:00006c78       ??_C@_1BG@KODPNHE@?$AAs?$AAr?$AA?9?$AAs?$AAp?$AA?9?$AAc?$AAy?$AAr?$AAl?$AA?$AA@ 000000018003fc78     libucrt:lcidtoname_downlevel.obj
 0002:00006c90       ??_C@_1BG@CIOGKHPB@?$AAs?$AAr?$AA?9?$AAs?$AAp?$AA?9?$AAl?$AAa?$AAt?$AAn?$AA?$AA@ 000000018003fc90     libucrt:lcidtoname_downlevel.obj
 0002:00006ca8       ??_C@_1M@NGFJLMAC@?$AAs?$AAv?$AA?9?$AAf?$AAi?$AA?$AA@ 000000018003fca8     libucrt:lcidtoname_downlevel.obj
 0002:00006cb8       ??_C@_1M@MPJEJAJC@?$AAs?$AAv?$AA?9?$AAs?$AAe?$AA?$AA@ 000000018003fcb8     libucrt:lcidtoname_downlevel.obj
 0002:00006cc8       ??_C@_1M@MPNDHLFK@?$AAs?$AAw?$AA?9?$AAk?$AAe?$AA?$AA@ 000000018003fcc8     libucrt:lcidtoname_downlevel.obj
 0002:00006cd8       ??_C@_1O@KOHBJJI@?$AAs?$AAy?$AAr?$AA?9?$AAs?$AAy?$AA?$AA@ 000000018003fcd8     libucrt:lcidtoname_downlevel.obj
 0002:00006ce8       ??_C@_1M@LDCEFHA@?$AAt?$AAa?$AA?9?$AAi?$AAn?$AA?$AA@ 000000018003fce8     libucrt:lcidtoname_downlevel.obj
 0002:00006cf8       ??_C@_1M@CNJOFAK@?$AAt?$AAe?$AA?9?$AAi?$AAn?$AA?$AA@ 000000018003fcf8     libucrt:lcidtoname_downlevel.obj
 0002:00006d08       ??_C@_1M@GNAECACD@?$AAt?$AAh?$AA?9?$AAt?$AAh?$AA?$AA@ 000000018003fd08     libucrt:lcidtoname_downlevel.obj
 0002:00006d18       ??_C@_1M@CHBIHOJO@?$AAt?$AAn?$AA?9?$AAz?$AAa?$AA?$AA@ 000000018003fd18     libucrt:lcidtoname_downlevel.obj
 0002:00006d28       ??_C@_1M@GCCMIGPJ@?$AAt?$AAr?$AA?9?$AAt?$AAr?$AA?$AA@ 000000018003fd28     libucrt:lcidtoname_downlevel.obj
 0002:00006d38       ??_C@_1M@CELMCNBK@?$AAt?$AAt?$AA?9?$AAr?$AAu?$AA?$AA@ 000000018003fd38     libucrt:lcidtoname_downlevel.obj
 0002:00006d48       ??_C@_1M@KLMCELGA@?$AAu?$AAk?$AA?9?$AAu?$AAa?$AA?$AA@ 000000018003fd48     libucrt:lcidtoname_downlevel.obj
 0002:00006d58       ??_C@_1M@EPAJJAJF@?$AAu?$AAr?$AA?9?$AAp?$AAk?$AA?$AA@ 000000018003fd58     libucrt:lcidtoname_downlevel.obj
 0002:00006d68       ??_C@_1BG@GEGPMCDJ@?$AAu?$AAz?$AA?9?$AAu?$AAz?$AA?9?$AAc?$AAy?$AAr?$AAl?$AA?$AA@ 000000018003fd68     libucrt:lcidtoname_downlevel.obj
 0002:00006d80       ??_C@_1BG@EGGKJILM@?$AAu?$AAz?$AA?9?$AAu?$AAz?$AA?9?$AAl?$AAa?$AAt?$AAn?$AA?$AA@ 000000018003fd80     libucrt:lcidtoname_downlevel.obj
 0002:00006d98       ??_C@_1M@GFOCLFF@?$AAv?$AAi?$AA?9?$AAv?$AAn?$AA?$AA@ 000000018003fd98     libucrt:lcidtoname_downlevel.obj
 0002:00006da8       ??_C@_1M@CPAMEDFI@?$AAx?$AAh?$AA?9?$AAz?$AAa?$AA?$AA@ 000000018003fda8     libucrt:lcidtoname_downlevel.obj
 0002:00006db8       ??_C@_1O@EBKIFIGN@?$AAz?$AAh?$AA?9?$AAc?$AAh?$AAs?$AA?$AA@ 000000018003fdb8     libucrt:lcidtoname_downlevel.obj
 0002:00006dc8       ??_C@_1O@NMHPGANE@?$AAz?$AAh?$AA?9?$AAc?$AAh?$AAt?$AA?$AA@ 000000018003fdc8     libucrt:lcidtoname_downlevel.obj
 0002:00006dd8       ??_C@_1M@LPINJOMC@?$AAz?$AAh?$AA?9?$AAc?$AAn?$AA?$AA@ 000000018003fdd8     libucrt:lcidtoname_downlevel.obj
 0002:00006de8       ??_C@_1M@OCJEJODD@?$AAz?$AAh?$AA?9?$AAh?$AAk?$AA?$AA@ 000000018003fde8     libucrt:lcidtoname_downlevel.obj
 0002:00006df8       ??_C@_1M@DNDLJINH@?$AAz?$AAh?$AA?9?$AAm?$AAo?$AA?$AA@ 000000018003fdf8     libucrt:lcidtoname_downlevel.obj
 0002:00006e08       ??_C@_1M@MBFDNDND@?$AAz?$AAh?$AA?9?$AAs?$AAg?$AA?$AA@ 000000018003fe08     libucrt:lcidtoname_downlevel.obj
 0002:00006e18       ??_C@_1M@IMEPLEPE@?$AAz?$AAh?$AA?9?$AAt?$AAw?$AA?$AA@ 000000018003fe18     libucrt:lcidtoname_downlevel.obj
 0002:00006e28       ??_C@_1M@BBGHNHJP@?$AAz?$AAu?$AA?9?$AAz?$AAa?$AA?$AA@ 000000018003fe28     libucrt:lcidtoname_downlevel.obj
 0002:00006e34       ??_C@_00CNPNBAHC@?$AA@     000000018003fe34     libucrt:mbrtowc.obj
 0002:000070b0       ??_C@_1BA@BALFACEM@?$AAC?$AAO?$AAN?$AAO?$AAU?$AAT?$AA$?$AA?$AA@ 00000001800400b0     libucrt:initcon.obj
 0002:000070c0       __log10_256_lead           00000001800400c0     libucrt:log10_256_lead_tail_table.obj
 0002:000078d0       __log10_256_tail           00000001800408d0     libucrt:log10_256_lead_tail_table.obj
 0002:000080e0       __log_F_inv_qword          00000001800410e0     libucrt:log_f_inv_qword_table.obj
 0002:000088f0       ??_C@_05HGHHAHAP@log10?$AA@ 00000001800418f0     libucrt:log_special.obj
 0002:00008910       ??_C@_0BC@BDKFLDHL@unknown?5exception@ 0000000180041910     VError.obj
 0002:00008928       ??_C@_07CIFAGBMG@unknown@  0000000180041928     VError.obj
 0002:00008930       ??_C@_02LMMGGCAJ@?3?5@     0000000180041930     VError.obj
 0002:00008938       ??_C@_08LLGCOLLL@iostream@ 0000000180041938     VError.obj
 0002:00008948       ??_C@_0BG@PADBLCHM@iostream?5stream?5error@ 0000000180041948     VError.obj
 0002:00008960       ??_C@_0BF@PHHKMMFD@ios_base?3?3badbit?5set@ 0000000180041960     VError.obj
 0002:00008978       ??_C@_0BG@FMKFHCIL@ios_base?3?3failbit?5set@ 0000000180041978     VError.obj
 0002:00008990       ??_C@_0BF@OOHOMBOF@ios_base?3?3eofbit?5set@ 0000000180041990     VError.obj
 0002:000089a8       ??_C@_0CO@MDKMFKKK@?$CBnew_vobject?5?$HM?$HM?5VIPS_IS_OBJECT?$CI@ 00000001800419a8     VError.obj
 0002:000089d8       ??_C@_0BH@GOCJPHDF@vips?3?3VObject?3?3VObject@ 00000001800419d8     VError.obj
 0002:000089f0       ??_C@_0HC@GGMGAKFB@c?3?2users?2estudiantes?2documents?2@ 00000001800419f0     VError.obj
 0002:00008a68       ??_C@_0BM@LENMHEAB@VIPS_IS_OBJECT?$CI?5a?4vobject?5?$CJ@ 0000000180041a68     VError.obj
 0002:00008a88       ??_C@_0CG@IJKKON@?$CBvobject?5?$HM?$HM?5VIPS_IS_OBJECT?$CI?5vob@ 0000000180041a88     VError.obj
 0002:00008ab0       ??_C@_0BK@FEDAPFJC@vips?3?3VObject?3?3operator?5?$DN@ 0000000180041ab0     VError.obj
 0002:00008ad0       ??_C@_0CJ@JCMMCJOH@a?4vobject?5?$CG?$CG?5VIPS_IS_OBJECT?$CI?5a?4@ 0000000180041ad0     VError.obj
 0002:00008b00       ??_C@_0BI@LLDIPMFE@vips?3?3VObject?3?3?$HOVObject@ 0000000180041b00     VError.obj
 0002:00008b18       ??_C@_0BK@CFEFMCJG@vips?3?3VObject?3?3get_object@ 0000000180041b18     VError.obj
 0002:00008b38       ??_C@_0BD@OLBABOEK@vector?$DMT?$DO?5too?5long@ 0000000180041b38     VError.obj
 0002:00008b50       ??_C@_0BA@JFNIOLAK@string?5too?5long@ 0000000180041b50     VError.obj
 0002:00008b60       ??_C@_0BB@MOGOBHAF@list?$DMT?$DO?5too?5long@ 0000000180041b60     VError.obj
 0002:00008b78       ??_7_Iostream_error_category@std@@6B@ 0000000180041b78     VError.obj
 0002:00008ba8       ??_7VError@vips@@6B@       0000000180041ba8     VError.obj
 0002:00008bc0       ??_7exception@stdext@@6B@  0000000180041bc0     VError.obj
 0002:00008bd8       ??_7VOption@vips@@6B@      0000000180041bd8     VError.obj
 0002:00008be0       ??_7failure@ios_base@std@@6B@ 0000000180041be0     VError.obj
 0002:00008bf8       ??_C@_06FHFOAHML@system@   0000000180041bf8     VImage.obj
 0002:00008c00       ??_C@_02DKCKIIND@?$CFs@    0000000180041c00     VImage.obj
 0002:00008c08       ??_C@_08BABJIOEM@filename@ 0000000180041c08     VImage.obj
 0002:00008c14       ??_C@_03KEJHNBPP@out@      0000000180041c14     VImage.obj
 0002:00008c18       ??_C@_06HOHPNJLC@buffer@   0000000180041c18     VImage.obj
 0002:00008c20       ??_C@_02LMMGJAGL@in@       0000000180041c20     VImage.obj
 0002:00008c28       ??_C@_0L@EDHHNDAB@cmd?9format@ 0000000180041c28     VImage.obj
 0002:00008c34       ??_C@_04GOOOJOPP@left@     0000000180041c34     VImage.obj
 0002:00008c3c       ??_C@_05DHJDAOHK@right@    0000000180041c3c     VImage.obj
 0002:00008c44       ??_C@_03BDGOHNNK@add@      0000000180041c44     VImage.obj
 0002:00008c48       ??_C@_08LJLIHDOM@subtract@ 0000000180041c48     VImage.obj
 0002:00008c58       ??_C@_08MMOCDOEL@multiply@ 0000000180041c58     VImage.obj
 0002:00008c64       ??_C@_06FFHJEHBN@divide@   0000000180041c64     VImage.obj
 0002:00008c70       ??_C@_0L@NEPEPHDK@relational@ 0000000180041c70     VImage.obj
 0002:00008c80       ??_C@_09HALKBBKJ@remainder@ 0000000180041c80     VImage.obj
 0002:00008c90       ??_C@_07GOBOHMJA@boolean@  0000000180041c90     VImage.obj
 0002:00008c98       ??_C@_05BBOMOFAH@math2@    0000000180041c98     VImage.obj
 0002:00008ca0       ??_C@_05GMOLPBHC@cmplx@    0000000180041ca0     VImage.obj
 0002:00008ca8       ??_C@_08HDDIDECH@complex2@ 0000000180041ca8     VImage.obj
 0002:00008cb8       ??_C@_0M@IHNKDMPF@complexform@ 0000000180041cb8     VImage.obj
 0002:00008cc4       ??_C@_03CFFIJAMA@sum@      0000000180041cc4     VImage.obj
 0002:00008cc8       ??_C@_06CIAPFFAP@invert@   0000000180041cc8     VImage.obj
 0002:00008cd0       ??_C@_01MCMALHOG@a@        0000000180041cd0     VImage.obj
 0002:00008cd4       ??_C@_01OJONOECF@b@        0000000180041cd4     VImage.obj
 0002:00008cd8       ??_C@_06HPJICMPM@linear@   0000000180041cd8     VImage.obj
 0002:00008ce0       ??_C@_04CFDJAKFL@math@     0000000180041ce0     VImage.obj
 0002:00008ce8       ??_C@_03BCGAIFPO@abs@      0000000180041ce8     VImage.obj
 0002:00008cec       ??_C@_04HHGHLBPI@sign@     0000000180041cec     VImage.obj
 0002:00008cf4       ??_C@_05MIMAKCN@round@     0000000180041cf4     VImage.obj
 0002:00008cfc       ??_C@_01PAPGNFGE@c@        0000000180041cfc     VImage.obj
 0002:00008d00       ??_C@_0BB@FKPDFKGH@relational_const@ 0000000180041d00     VImage.obj
 0002:00008d18       ??_C@_0BA@MDCPNGEH@remainder_const@ 0000000180041d18     VImage.obj
 0002:00008d28       ??_C@_0O@FFEJDDPG@boolean_const@ 0000000180041d28     VImage.obj
 0002:00008d38       ??_C@_0M@PKPOKBCN@math2_const@ 0000000180041d38     VImage.obj
 0002:00008d48       ??_C@_07CMPFPFAH@complex@  0000000180041d48     VImage.obj
 0002:00008d50       ??_C@_03HNAFFKGA@get@      0000000180041d50     VImage.obj
 0002:00008d58       ??_C@_0L@CONHPEB@complexget@ 0000000180041d58     VImage.obj
 0002:00008d64       ??_C@_03CHOBFJAH@avg@      0000000180041d64     VImage.obj
 0002:00008d68       ??_C@_03KLIPLJLL@min@      0000000180041d68     VImage.obj
 0002:00008d6c       ??_C@_03LJAEFNNE@max@      0000000180041d6c     VImage.obj
 0002:00008d70       ??_C@_07JGEDNJHN@deviate@  0000000180041d70     VImage.obj
 0002:00008d78       ??_C@_05BLKJBNOD@stats@    0000000180041d78     VImage.obj
 0002:00008d80       ??_C@_09PKCBEOHG@hist_find@ 0000000180041d80     VImage.obj
 0002:00008d90       ??_C@_0P@CCEOOJJO@hist_find_ndim@ 0000000180041d90     VImage.obj
 0002:00008da0       ??_C@_05FKHKFDID@index@    0000000180041da0     VImage.obj
 0002:00008da8       ??_C@_0BC@CKAIJALJ@hist_find_indexed@ 0000000180041da8     VImage.obj
 0002:00008dc0       ??_C@_0L@DLDHKKAG@hough_line@ 0000000180041dc0     VImage.obj
 0002:00008dd0       ??_C@_0N@EPCNCOFH@hough_circle@ 0000000180041dd0     VImage.obj
 0002:00008de0       ??_C@_07HIFEPIJN@columns@  0000000180041de0     VImage.obj
 0002:00008de8       ??_C@_04IMCGAIPI@rows@     0000000180041de8     VImage.obj
 0002:00008df0       ??_C@_07GKGAGMNN@project@  0000000180041df0     VImage.obj
 0002:00008df8       ??_C@_07LNMDFKEJ@profile@  0000000180041df8     VImage.obj
 0002:00008e00       ??_C@_01BDACAMKP@h@        0000000180041e00     VImage.obj
 0002:00008e04       ??_C@_01MHEDDDHA@v@        0000000180041e04     VImage.obj
 0002:00008e08       ??_C@_07GGHJMDCM@measure@  0000000180041e08     VImage.obj
 0002:00008e10       ??_C@_09DGLJONDH@out?9array@ 0000000180041e10     VImage.obj
 0002:00008e1c       ??_C@_01FJMABOPO@x@        0000000180041e1c     VImage.obj
 0002:00008e20       ??_C@_01EANLCPLP@y@        0000000180041e20     VImage.obj
 0002:00008e28       ??_C@_08POKMFCNH@getpoint@ 0000000180041e28     VImage.obj
 0002:00008e34       ??_C@_03FGFCOCMD@top@      0000000180041e34     VImage.obj
 0002:00008e38       ??_C@_05IGKADHGO@width@    0000000180041e38     VImage.obj
 0002:00008e40       ??_C@_06LNLHEAAG@height@   0000000180041e40     VImage.obj
 0002:00008e48       ??_C@_09CNDNHPEB@find_trim@ 0000000180041e48     VImage.obj
 0002:00008e54       ??_C@_04COAGEIMF@copy@     0000000180041e54     VImage.obj
 0002:00008e60       ??_C@_09BADCCNLM@tilecache@ 0000000180041e60     VImage.obj
 0002:00008e70       ??_C@_09GGGOOLNN@linecache@ 0000000180041e70     VImage.obj
 0002:00008e80       ??_C@_0L@OGEPILOF@sequential@ 0000000180041e80     VImage.obj
 0002:00008e8c       ??_C@_05BDNCCAMC@cache@    0000000180041e8c     VImage.obj
 0002:00008e94       ??_C@_05KJAEOLKJ@embed@    0000000180041e94     VImage.obj
 0002:00008ea0       ??_C@_09HPKLLIJF@direction@ 0000000180041ea0     VImage.obj
 0002:00008eb0       ??_C@_07GFBFDLBM@gravity@  0000000180041eb0     VImage.obj
 0002:00008eb8       ??_C@_04DGGGELON@flip@     0000000180041eb8     VImage.obj
 0002:00008ec0       ??_C@_04GHJNJNPO@main@     0000000180041ec0     VImage.obj
 0002:00008ec8       ??_C@_03KCMAIMAP@sub@      0000000180041ec8     VImage.obj
 0002:00008ecc       ??_C@_06OAOPNKHP@insert@   0000000180041ecc     VImage.obj
 0002:00008ed4       ??_C@_03BMIBHJPC@in1@      0000000180041ed4     VImage.obj
 0002:00008ed8       ??_C@_03DHKMCKDB@in2@      0000000180041ed8     VImage.obj
 0002:00008edc       ??_C@_04DFGCDGNN@join@     0000000180041edc     VImage.obj
 0002:00008ee8       ??_C@_09BPCDKABO@arrayjoin@ 0000000180041ee8     VImage.obj
 0002:00008ef4       ??_C@_05DFJCHPDH@input@    0000000180041ef4     VImage.obj
 0002:00008f00       ??_C@_0N@NKELEKIM@extract_area@ 0000000180041f00     VImage.obj
 0002:00008f10       ??_C@_09CIDCHBHA@smartcrop@ 0000000180041f10     VImage.obj
 0002:00008f1c       ??_C@_04BKGNPECA@band@     0000000180041f1c     VImage.obj
 0002:00008f28       ??_C@_0N@KOGFNDIJ@extract_band@ 0000000180041f28     VImage.obj
 0002:00008f38       ??_C@_08DDHBKGJN@bandjoin@ 0000000180041f38     VImage.obj
 0002:00008f48       ??_C@_0P@CNLDBNGG@bandjoin_const@ 0000000180041f48     VImage.obj
 0002:00008f58       ??_C@_08PLAGOPCN@bandrank@ 0000000180041f58     VImage.obj
 0002:00008f68       ??_C@_08OAPPMLFB@bandmean@ 0000000180041f68     VImage.obj
 0002:00008f78       ??_C@_08DFLKPDGM@bandbool@ 0000000180041f78     VImage.obj
 0002:00008f84       ??_C@_06HDMALCOC@across@   0000000180041f84     VImage.obj
 0002:00008f8c       ??_C@_04JMOKAGMG@down@     0000000180041f8c     VImage.obj
 0002:00008f98       ??_C@_09CBPKCNMB@replicate@ 0000000180041f98     VImage.obj
 0002:00008fa4       ??_C@_06DLEPGFEF@format@   0000000180041fa4     VImage.obj
 0002:00008fac       ??_C@_04HJDBPPOC@cast@     0000000180041fac     VImage.obj
 0002:00008fb4       ??_C@_05FECBCJJD@angle@    0000000180041fb4     VImage.obj
 0002:00008fbc       ??_C@_03BHFFHIBL@rot@      0000000180041fbc     VImage.obj
 0002:00008fc0       ??_C@_05HGLLKKDL@rot45@    0000000180041fc0     VImage.obj
 0002:00008fc8       ??_C@_07HKPDIIIM@autorot@  0000000180041fc8     VImage.obj
 0002:00008fd0       ??_C@_04MHNCKKKD@cond@     0000000180041fd0     VImage.obj
 0002:00008fd8       ??_C@_0L@EIDGEPEL@ifthenelse@ 0000000180041fd8     VImage.obj
 0002:00008fe4       ??_C@_01GOHFPIOK@m@        0000000180041fe4     VImage.obj
 0002:00008fe8       ??_C@_06OLEOMEPE@recomb@   0000000180041fe8     VImage.obj
 0002:00008ff0       ??_C@_08KKFGBPN@bandfold@  0000000180041ff0     VImage.obj
 0002:00009000       ??_C@_0L@NLCAJCCK@bandunfold@ 0000000180042000     VImage.obj
 0002:00009010       ??_C@_07FOIKENOC@flatten@  0000000180042010     VImage.obj
 0002:00009018       ??_C@_0M@OEPEEJHI@premultiply@ 0000000180042018     VImage.obj
 0002:00009028       ??_C@_0O@NEEDPNBG@unpremultiply@ 0000000180042028     VImage.obj
 0002:00009038       ??_C@_0M@OIIHBMLD@tile?9height@ 0000000180042038     VImage.obj
 0002:00009044       ??_C@_04JFGOJFKE@grid@     0000000180042044     VImage.obj
 0002:00009050       ??_C@_0M@NIPMOMC@transpose3d@ 0000000180042050     VImage.obj
 0002:0000905c       ??_C@_05MHMEBBGO@scale@    000000018004205c     VImage.obj
 0002:00009064       ??_C@_04NFDDIEML@wrap@     0000000180042064     VImage.obj
 0002:0000906c       ??_C@_04OJPHJCEA@xfac@     000000018004206c     VImage.obj
 0002:00009074       ??_C@_04NEJHLLPA@yfac@     0000000180042074     VImage.obj
 0002:0000907c       ??_C@_04HKCCIOCO@zoom@     000000018004207c     VImage.obj
 0002:00009088       ??_C@_09GEADCAMB@subsample@ 0000000180042088     VImage.obj
 0002:00009094       ??_C@_03BGILNABB@msb@      0000000180042094     VImage.obj
 0002:00009098       ??_C@_08LGNCHIMC@byteswap@ 0000000180042098     VImage.obj
 0002:000090a8       ??_C@_0M@HLKJCLJA@falsecolour@ 00000001800420a8     VImage.obj
 0002:000090b4       ??_C@_05KDLBCAI@gamma@     00000001800420b4     VImage.obj
 0002:000090bc       ??_C@_04GMGOKAFF@mode@     00000001800420bc     VImage.obj
 0002:000090c8       ??_C@_09EIHFMDLJ@composite@ 00000001800420c8     VImage.obj
 0002:000090d4       ??_C@_04BHIIPFEC@base@     00000001800420d4     VImage.obj
 0002:000090e0       ??_C@_07BJNHBMF@overlay@   00000001800420e0     VImage.obj
 0002:000090e8       ??_C@_0L@FPIFCKJK@composite2@ 00000001800420e8     VImage.obj
 0002:000090f4       ??_C@_05BIMBDNDC@black@    00000001800420f4     VImage.obj
 0002:00009100       ??_C@_0L@LHFGAHGN@gaussnoise@ 0000000180042100     VImage.obj
 0002:0000910c       ??_C@_04CIMGMMMG@text@     000000018004210c     VImage.obj
 0002:00009114       ??_C@_03POMAGKDD@xyz@      0000000180042114     VImage.obj
 0002:00009118       ??_C@_05MNLBPJCA@sigma@    0000000180042118     VImage.obj
 0002:00009120       ??_C@_08OLGCCKLK@min?9ampl@ 0000000180042120     VImage.obj
 0002:00009130       ??_C@_08HLCLIPNO@gaussmat@ 0000000180042130     VImage.obj
 0002:0000913c       ??_C@_06DHDPCCPJ@logmat@   000000018004213c     VImage.obj
 0002:00009144       ??_C@_03JBOJOLOP@eye@      0000000180042144     VImage.obj
 0002:00009148       ??_C@_04GDBIAANM@grey@     0000000180042148     VImage.obj
 0002:00009150       ??_C@_04LDDJGOBB@zone@     0000000180042150     VImage.obj
 0002:00009158       ??_C@_05MGFOJHMB@sines@    0000000180042158     VImage.obj
 0002:00009160       ??_C@_0BB@FMKOBFEN@frequency?9cutoff@ 0000000180042160     VImage.obj
 0002:00009178       ??_C@_0L@GPMDCNFD@mask_ideal@ 0000000180042178     VImage.obj
 0002:00009188       ??_C@_09FNOEFMAD@ringwidth@ 0000000180042188     VImage.obj
 0002:00009198       ??_C@_0BA@MHGDHMH@mask_ideal_ring@ 0000000180042198     VImage.obj
 0002:000091a8       ??_C@_0BD@PPHJKPEA@frequency?9cutoff?9x@ 00000001800421a8     VImage.obj
 0002:000091c0       ??_C@_0BD@OGGCJOAB@frequency?9cutoff?9y@ 00000001800421c0     VImage.obj
 0002:000091d4       ??_C@_06KGHINEPG@radius@   00000001800421d4     VImage.obj
 0002:000091e0       ??_C@_0BA@ICAPNLGJ@mask_ideal_band@ 00000001800421e0     VImage.obj
 0002:000091f0       ??_C@_05NDNMCCJH@order@    00000001800421f0     VImage.obj
 0002:000091f8       ??_C@_0BB@COKDAKHA@amplitude?9cutoff@ 00000001800421f8     VImage.obj
 0002:00009210       ??_C@_0BB@PCPOEAAM@mask_butterworth@ 0000000180042210     VImage.obj
 0002:00009228       ??_C@_0BG@JHCFMCJH@mask_butterworth_ring@ 0000000180042228     VImage.obj
 0002:00009240       ??_C@_0BG@BJFMCODJ@mask_butterworth_band@ 0000000180042240     VImage.obj
 0002:00009258       ??_C@_0O@PDKKOMCP@mask_gaussian@ 0000000180042258     VImage.obj
 0002:00009268       ??_C@_0BD@GEFHIGND@mask_gaussian_ring@ 0000000180042268     VImage.obj
 0002:00009280       ??_C@_0BD@OKCOGKHN@mask_gaussian_band@ 0000000180042280     VImage.obj
 0002:00009298       ??_C@_0BC@INLMDGNG@fractal?9dimension@ 0000000180042298     VImage.obj
 0002:000092b0       ??_C@_0N@PNMGGNMD@mask_fractal@ 00000001800422b0     VImage.obj
 0002:000092c0       ??_C@_08OKOAJEOP@buildlut@ 00000001800422c0     VImage.obj
 0002:000092d0       ??_C@_09DELGKNGH@invertlut@ 00000001800422d0     VImage.obj
 0002:000092e0       ??_C@_07MEIMELBF@tonelut@  00000001800422e0     VImage.obj
 0002:000092e8       ??_C@_08LBJOIDDC@identity@ 00000001800422e8     VImage.obj
 0002:000092f8       ??_C@_09KODEALMJ@fractsurf@ 00000001800422f8     VImage.obj
 0002:00009304       ??_C@_06PAPNEDML@worley@   0000000180042304     VImage.obj
 0002:0000930c       ??_C@_06JIFICDNB@perlin@   000000018004230c     VImage.obj
 0002:00009318       ??_C@_07LDEBNBAJ@csvload@  0000000180042318     VImage.obj
 0002:00009320       ??_C@_0L@PMHLAKGB@matrixload@ 0000000180042320     VImage.obj
 0002:0000932c       ??_C@_05DPGGGHAJ@bands@    000000018004232c     VImage.obj
 0002:00009338       ??_C@_07DIENLOPO@rawload@  0000000180042338     VImage.obj
 0002:00009340       ??_C@_08EDDGDHHH@vipsload@ 0000000180042340     VImage.obj
 0002:00009350       ??_C@_0M@GFDAFAKN@analyzeload@ 0000000180042350     VImage.obj
 0002:00009360       ??_C@_07BJIMAPAE@ppmload@  0000000180042360     VImage.obj
 0002:00009368       ??_C@_07LNAPMOML@radload@  0000000180042368     VImage.obj
 0002:00009370       ??_C@_07OANKEHBK@pdfload@  0000000180042370     VImage.obj
 0002:00009378       ??_C@_0P@FECDMHMN@pdfload_buffer@ 0000000180042378     VImage.obj
 0002:00009388       ??_C@_07FFEIBOLL@svgload@  0000000180042388     VImage.obj
 0002:00009390       ??_C@_0P@BPBEIMPA@svgload_buffer@ 0000000180042390     VImage.obj
 0002:000093a0       ??_C@_07PHHDBOOI@gifload@  00000001800423a0     VImage.obj
 0002:000093a8       ??_C@_0P@DMLKCHMD@gifload_buffer@ 00000001800423a8     VImage.obj
 0002:000093b8       ??_C@_07IPPGMLPB@pngload@  00000001800423b8     VImage.obj
 0002:000093c0       ??_C@_0P@FLICMEND@pngload_buffer@ 00000001800423c0     VImage.obj
 0002:000093d0       ??_C@_07BLECOPNH@matload@  00000001800423d0     VImage.obj
 0002:000093d8       ??_C@_08MHJHFPPG@jpegload@ 00000001800423d8     VImage.obj
 0002:000093e8       ??_C@_0BA@OCCAIACH@jpegload_buffer@ 00000001800423e8     VImage.obj
 0002:000093f8       ??_C@_08HFDHMJDC@webpload@ 00000001800423f8     VImage.obj
 0002:00009408       ??_C@_0BA@NGBBNHGG@webpload_buffer@ 0000000180042408     VImage.obj
 0002:00009418       ??_C@_08DKNFCFCN@tiffload@ 0000000180042418     VImage.obj
 0002:00009428       ??_C@_0BA@LHGCDMGM@tiffload_buffer@ 0000000180042428     VImage.obj
 0002:00009438       ??_C@_0O@MEOEBEEM@openslideload@ 0000000180042438     VImage.obj
 0002:00009448       ??_C@_0L@GJNFHGND@magickload@ 0000000180042448     VImage.obj
 0002:00009458       ??_C@_0BC@NAIBKHPN@magickload_buffer@ 0000000180042458     VImage.obj
 0002:00009470       ??_C@_08BLLJFBBF@fitsload@ 0000000180042470     VImage.obj
 0002:00009480       ??_C@_0M@PFMEODOM@openexrload@ 0000000180042480     VImage.obj
 0002:00009490       ??_C@_07LBFMCCNN@csvsave@  0000000180042490     VImage.obj
 0002:00009498       ??_C@_0L@POGGPJLF@matrixsave@ 0000000180042498     VImage.obj
 0002:000094a8       ??_C@_0M@FFFNKKNM@matrixprint@ 00000001800424a8     VImage.obj
 0002:000094b8       ??_C@_07DKFAENCK@rawsave@  00000001800424b8     VImage.obj
 0002:000094c0       ??_C@_02ENHFDPNM@fd@       00000001800424c0     VImage.obj
 0002:000094c8       ??_C@_0L@MFMDKFHF@rawsave_fd@ 00000001800424c8     VImage.obj
 0002:000094d8       ??_C@_08EBCLMEKD@vipssave@ 00000001800424d8     VImage.obj
 0002:000094e8       ??_C@_07BLJBPMNA@ppmsave@  00000001800424e8     VImage.obj
 0002:000094f0       ??_C@_07LPBCDNBP@radsave@  00000001800424f0     VImage.obj
 0002:000094f8       ??_C@_0P@OGKJHKCD@radsave_buffer@ 00000001800424f8     VImage.obj
 0002:00009508       ??_C@_06MCMNOHKJ@dzsave@   0000000180042508     VImage.obj
 0002:00009510       ??_C@_0O@IEFJKPDJ@dzsave_buffer@ 0000000180042510     VImage.obj
 0002:00009520       ??_C@_07INOLDICF@pngsave@  0000000180042520     VImage.obj
 0002:00009528       ??_C@_0P@KFHBBDIK@pngsave_buffer@ 0000000180042528     VImage.obj
 0002:00009538       ??_C@_08MFIKKMCC@jpegsave@ 0000000180042538     VImage.obj
 0002:00009548       ??_C@_0BA@BMNDFHHO@jpegsave_buffer@ 0000000180042548     VImage.obj
 0002:00009558       ??_C@_0O@GEECBBEC@jpegsave_mime@ 0000000180042558     VImage.obj
 0002:00009568       ??_C@_08HHCKDKOG@webpsave@ 0000000180042568     VImage.obj
 0002:00009578       ??_C@_0BA@CIOCAADP@webpsave_buffer@ 0000000180042578     VImage.obj
 0002:00009588       ??_C@_08DIMINGPJ@tiffsave@ 0000000180042588     VImage.obj
 0002:00009598       ??_C@_0BA@EJJBOLDF@tiffsave_buffer@ 0000000180042598     VImage.obj
 0002:000095a8       ??_C@_0L@GLMIIFAH@magicksave@ 00000001800425a8     VImage.obj
 0002:000095b8       ??_C@_0BC@COHCHAKE@magicksave_buffer@ 00000001800425b8     VImage.obj
 0002:000095d0       ??_C@_08BJKEKCMB@fitssave@ 00000001800425d0     VImage.obj
 0002:000095e0       ??_C@_09GEFHAABJ@thumbnail@ 00000001800425e0     VImage.obj
 0002:000095f0       ??_C@_0BB@FMNLLCML@thumbnail_buffer@ 00000001800425f0     VImage.obj
 0002:00009608       ??_C@_0BA@HAJBKBKF@thumbnail_image@ 0000000180042608     VImage.obj
 0002:00009618       ??_C@_05KCGPFJPM@mapim@    0000000180042618     VImage.obj
 0002:00009620       ??_C@_07KBIIIDHJ@hshrink@  0000000180042620     VImage.obj
 0002:00009628       ??_C@_07MILJKAGA@vshrink@  0000000180042628     VImage.obj
 0002:00009630       ??_C@_06FKMIDIGA@shrink@   0000000180042630     VImage.obj
 0002:00009638       ??_C@_07OAMMEIMP@shrinkh@  0000000180042638     VImage.obj
 0002:00009640       ??_C@_07DEINHHBA@shrinkv@  0000000180042640     VImage.obj
 0002:00009648       ??_C@_07MFNKEHED@reduceh@  0000000180042648     VImage.obj
 0002:00009650       ??_C@_07BBJLHIJM@reducev@  0000000180042650     VImage.obj
 0002:00009658       ??_C@_06CDBFBENC@reduce@   0000000180042658     VImage.obj
 0002:00009660       ??_C@_05KIDKLPLG@coeff@    0000000180042660     VImage.obj
 0002:00009668       ??_C@_09NDEBDKFB@quadratic@ 0000000180042668     VImage.obj
 0002:00009674       ??_C@_06CGNOPMBC@matrix@   0000000180042674     VImage.obj
 0002:0000967c       ??_C@_06JLGAMIDL@affine@   000000018004267c     VImage.obj
 0002:00009688       ??_C@_0L@FLEFHLED@similarity@ 0000000180042688     VImage.obj
 0002:00009694       ??_C@_06CEHMNFAL@rotate@   0000000180042694     VImage.obj
 0002:0000969c       ??_C@_06PIONCPJI@resize@   000000018004269c     VImage.obj
 0002:000096a4       ??_C@_05OLNILLAB@space@    00000001800426a4     VImage.obj
 0002:000096b0       ??_C@_0M@GKGJPELG@colourspace@ 00000001800426b0     VImage.obj
 0002:000096c0       ??_C@_07HKHDHCHO@Lab2XYZ@  00000001800426c0     VImage.obj
 0002:000096c8       ??_C@_07BDLLOLEB@XYZ2Lab@  00000001800426c8     VImage.obj
 0002:000096d0       ??_C@_07FJMJMAGB@Lab2LCh@  00000001800426d0     VImage.obj
 0002:000096d8       ??_C@_07GBFGLBLG@LCh2Lab@  00000001800426d8     VImage.obj
 0002:000096e0       ??_C@_07IEPNALIH@LCh2CMC@  00000001800426e0     VImage.obj
 0002:000096e8       ??_C@_07EEAEFHLG@CMC2LCh@  00000001800426e8     VImage.obj
 0002:000096f0       ??_C@_07MOLNBPIJ@XYZ2Yxy@  00000001800426f0     VImage.obj
 0002:000096f8       ??_C@_07NFHPGGHE@Yxy2XYZ@  00000001800426f8     VImage.obj
 0002:00009700       ??_C@_09EGLLGMBC@scRGB2XYZ@ 0000000180042700     VImage.obj
 0002:00009710       ??_C@_09BGOHPOHE@XYZ2scRGB@ 0000000180042710     VImage.obj
 0002:00009720       ??_C@_08PCBHJJKI@LabQ2Lab@ 0000000180042720     VImage.obj
 0002:00009730       ??_C@_08JOOABGHI@Lab2LabQ@ 0000000180042730     VImage.obj
 0002:00009740       ??_C@_09EJGJDCNE@LabQ2LabS@ 0000000180042740     VImage.obj
 0002:00009750       ??_C@_09OMMAEBHP@LabS2LabQ@ 0000000180042750     VImage.obj
 0002:00009760       ??_C@_08LPNPDIKD@LabS2Lab@ 0000000180042760     VImage.obj
 0002:00009770       ??_C@_08KMNGHEPK@Lab2LabS@ 0000000180042770     VImage.obj
 0002:00009780       ??_C@_09CNOAMBEK@rad2float@ 0000000180042780     VImage.obj
 0002:00009790       ??_C@_09JMDBKHNK@float2rad@ 0000000180042790     VImage.obj
 0002:000097a0       ??_C@_09OFNJONNH@LabQ2sRGB@ 00000001800427a0     VImage.obj
 0002:000097b0       ??_C@_08DLNPBGF@sRGB2HSV@  00000001800427b0     VImage.obj
 0002:000097c0       ??_C@_08MGEOCPLE@HSV2sRGB@ 00000001800427c0     VImage.obj
 0002:000097d0       ??_C@_0L@EACMBHDC@icc_import@ 00000001800427d0     VImage.obj
 0002:000097e0       ??_C@_0L@NEJHOOGO@icc_export@ 00000001800427e0     VImage.obj
 0002:000097f0       ??_C@_0P@CKCGPENA@output?9profile@ 00000001800427f0     VImage.obj
 0002:00009800       ??_C@_0O@JCOEDNPE@icc_transform@ 0000000180042800     VImage.obj
 0002:00009810       ??_C@_04FBJNBDAA@dE76@     0000000180042810     VImage.obj
 0002:00009818       ??_C@_04CIIKCAD@dE00@      0000000180042818     VImage.obj
 0002:00009820       ??_C@_05GHPMDBKP@dECMC@    0000000180042820     VImage.obj
 0002:00009828       ??_C@_0L@CFFEDAKI@sRGB2scRGB@ 0000000180042828     VImage.obj
 0002:00009838       ??_C@_08NGFONIGN@scRGB2BW@ 0000000180042838     VImage.obj
 0002:00009848       ??_C@_0L@EEFOEOJE@scRGB2sRGB@ 0000000180042848     VImage.obj
 0002:00009854       ??_C@_03LGCCHOBB@lut@      0000000180042854     VImage.obj
 0002:00009858       ??_C@_06NKBBGPGG@maplut@   0000000180042858     VImage.obj
 0002:00009860       ??_C@_07HCJJCOPK@percent@  0000000180042860     VImage.obj
 0002:00009868       ??_C@_09DEHKFMCJ@threshold@ 0000000180042868     VImage.obj
 0002:00009874       ??_C@_05PDMDLOG@stdif@     0000000180042874     VImage.obj
 0002:00009880       ??_C@_08GNGDEJLK@hist_cum@ 0000000180042880     VImage.obj
 0002:0000988c       ??_C@_03GCDGINBO@ref@      000000018004288c     VImage.obj
 0002:00009890       ??_C@_0L@HEOEAOJE@hist_match@ 0000000180042890     VImage.obj
 0002:000098a0       ??_C@_09CLMELLDG@hist_norm@ 00000001800428a0     VImage.obj
 0002:000098b0       ??_C@_0L@CHADGNHE@hist_equal@ 00000001800428b0     VImage.obj
 0002:000098c0       ??_C@_09GJFPKEAA@hist_plot@ 00000001800428c0     VImage.obj
 0002:000098d0       ??_C@_0L@KKKOBNBM@hist_local@ 00000001800428d0     VImage.obj
 0002:000098e0       ??_C@_09FKNHDPAJ@monotonic@ 00000001800428e0     VImage.obj
 0002:000098f0       ??_C@_0BB@BJFODBKP@hist_ismonotonic@ 00000001800428f0     VImage.obj
 0002:00009908       ??_C@_0N@LNGDFBMF@hist_entropy@ 0000000180042908     VImage.obj
 0002:00009918       ??_C@_04LFLEPBN@mask@      0000000180042918     VImage.obj
 0002:00009920       ??_C@_04LPCGNKHA@conv@     0000000180042920     VImage.obj
 0002:00009928       ??_C@_05CMFMANAA@conva@    0000000180042928     VImage.obj
 0002:00009930       ??_C@_05GDBNJLMH@convf@    0000000180042930     VImage.obj
 0002:00009938       ??_C@_05OEIFIHAI@convi@    0000000180042938     VImage.obj
 0002:00009940       ??_C@_07CFMACLND@compass@  0000000180042940     VImage.obj
 0002:00009948       ??_C@_07OFICLPMI@convsep@  0000000180042948     VImage.obj
 0002:00009950       ??_C@_08MPNKBMPB@convasep@ 0000000180042950     VImage.obj
 0002:00009960       ??_C@_07FHGNDIBP@fastcor@  0000000180042960     VImage.obj
 0002:00009968       ??_C@_05ENEIAOHI@spcor@    0000000180042968     VImage.obj
 0002:00009970       ??_C@_07JOLMDEEJ@sharpen@  0000000180042970     VImage.obj
 0002:00009978       ??_C@_09NOBOKBD@gaussblur@ 0000000180042978     VImage.obj
 0002:00009984       ??_C@_05DECNJPA@canny@     0000000180042984     VImage.obj
 0002:0000998c       ??_C@_05MOJCNDEH@sobel@    000000018004298c     VImage.obj
 0002:00009994       ??_C@_05MCCGCNHL@fwfft@    0000000180042994     VImage.obj
 0002:0000999c       ??_C@_06CBJFPBEN@invfft@   000000018004299c     VImage.obj
 0002:000099a8       ??_C@_08PGNHFFFA@freqmult@ 00000001800429a8     VImage.obj
 0002:000099b8       ??_C@_08GEGLAKCO@spectrum@ 00000001800429b8     VImage.obj
 0002:000099c8       ??_C@_08GMOPJMAN@phasecor@ 00000001800429c8     VImage.obj
 0002:000099d4       ??_C@_05NJNGEDKM@morph@    00000001800429d4     VImage.obj
 0002:000099dc       ??_C@_04PNBFHPGN@rank@     00000001800429dc     VImage.obj
 0002:000099e8       ??_C@_07FIKBNHMA@nolines@  00000001800429e8     VImage.obj
 0002:000099f0       ??_C@_0L@GADDFICP@countlines@ 00000001800429f0     VImage.obj
 0002:00009a00       ??_C@_0N@MBCCJMPJ@labelregions@ 0000000180042a00     VImage.obj
 0002:00009a10       ??_C@_0N@JKNBFHJA@fill_nearest@ 0000000180042a10     VImage.obj
 0002:00009a20       ??_C@_05NGOMGBBD@image@    0000000180042a20     VImage.obj
 0002:00009a28       ??_C@_03FMNFMMCM@ink@      0000000180042a28     VImage.obj
 0002:00009a30       ??_C@_09FMFCFBGH@draw_rect@ 0000000180042a30     VImage.obj
 0002:00009a40       ??_C@_09OAPMGLIN@draw_mask@ 0000000180042a40     VImage.obj
 0002:00009a4c       ??_C@_02JMABBILH@x1@       0000000180042a4c     VImage.obj
 0002:00009a50       ??_C@_02JNMDHCIA@y1@       0000000180042a50     VImage.obj
 0002:00009a54       ??_C@_02LHCMELHE@x2@       0000000180042a54     VImage.obj
 0002:00009a58       ??_C@_02LGOOCBED@y2@       0000000180042a58     VImage.obj
 0002:00009a60       ??_C@_09JCFFHHHP@draw_line@ 0000000180042a60     VImage.obj
 0002:00009a6c       ??_C@_02KNMJKAGK@cx@       0000000180042a6c     VImage.obj
 0002:00009a70       ??_C@_02LENCJBCL@cy@       0000000180042a70     VImage.obj
 0002:00009a78       ??_C@_0M@EJLCOLOD@draw_circle@ 0000000180042a78     VImage.obj
 0002:00009a88       ??_C@_0L@BNOJNJNM@draw_flood@ 0000000180042a88     VImage.obj
 0002:00009a98       ??_C@_0L@CGAIFFHD@draw_image@ 0000000180042a98     VImage.obj
 0002:00009aa8       ??_C@_0M@JGFPDOHD@draw_smudge@ 0000000180042aa8     VImage.obj
 0002:00009ab4       ??_C@_03KHPNBODO@sec@      0000000180042ab4     VImage.obj
 0002:00009ab8       ??_C@_02KIIGLGOP@dx@       0000000180042ab8     VImage.obj
 0002:00009abc       ??_C@_02LBJNIHKO@dy@       0000000180042abc     VImage.obj
 0002:00009ac0       ??_C@_05DPKBJALF@merge@    0000000180042ac0     VImage.obj
 0002:00009ac8       ??_C@_04EMPCAOBB@xref@     0000000180042ac8     VImage.obj
 0002:00009ad0       ??_C@_04HBJCCHKB@yref@     0000000180042ad0     VImage.obj
 0002:00009ad8       ??_C@_04IJDJJNDB@xsec@     0000000180042ad8     VImage.obj
 0002:00009ae0       ??_C@_04LEFJLEIB@ysec@     0000000180042ae0     VImage.obj
 0002:00009ae8       ??_C@_06EFGOHCJJ@mosaic@   0000000180042ae8     VImage.obj
 0002:00009af0       ??_C@_03OBBIBDBM@xr1@      0000000180042af0     VImage.obj
 0002:00009af4       ??_C@_03FJKEHEHJ@yr1@      0000000180042af4     VImage.obj
 0002:00009af8       ??_C@_03OANKHJCL@xs1@      0000000180042af8     VImage.obj
 0002:00009afc       ??_C@_03FIGGBOEO@ys1@      0000000180042afc     VImage.obj
 0002:00009b00       ??_C@_03MKDFEANP@xr2@      0000000180042b00     VImage.obj
 0002:00009b04       ??_C@_03HCIJCHLK@yr2@      0000000180042b04     VImage.obj
 0002:00009b08       ??_C@_03MLPHCKOI@xs2@      0000000180042b08     VImage.obj
 0002:00009b0c       ??_C@_03HDELENIN@ys2@      0000000180042b0c     VImage.obj
 0002:00009b10       ??_C@_07EPMLECCA@mosaic1@  0000000180042b10     VImage.obj
 0002:00009b18       ??_C@_05FNONLPDI@match@    0000000180042b18     VImage.obj
 0002:00009b20       ??_C@_0O@GIJIBKOK@globalbalance@ 0000000180042b20     VImage.obj
 0002:00009fe0       __real@3ff0000000000000    0000000180042fe0     VImage.obj
 0002:00009fe8       __real@bff0000000000000    0000000180042fe8     VImage.obj
 0002:00009ff0       __xmm@000000000000000f0000000000000000 0000000180042ff0     VError.obj
 0002:0000a000       __xmm@80000000000000008000000000000000 0000000180043000     VImage.obj
 0002:0000d460       _load_config_used          0000000180046460     LIBCMT:loadcfg.obj
 0002:0000d560       ??_R4exception@std@@6B@    0000000180046560     libcpmt:xonce.obj
 0002:0000d588       ??_R3exception@std@@8      0000000180046588     libcpmt:xonce.obj
 0002:0000d5a0       ??_R2exception@std@@8      00000001800465a0     libcpmt:xonce.obj
 0002:0000d5b0       ??_R1A@?0A@EA@exception@std@@8 00000001800465b0     libcpmt:xonce.obj
 0002:0000d5d8       ??_R4runtime_error@std@@6B@ 00000001800465d8     libcpmt:xonce.obj
 0002:0000d600       ??_R3runtime_error@std@@8  0000000180046600     libcpmt:xonce.obj
 0002:0000d618       ??_R2runtime_error@std@@8  0000000180046618     libcpmt:xonce.obj
 0002:0000d630       ??_R1A@?0A@EA@runtime_error@std@@8 0000000180046630     libcpmt:xonce.obj
 0002:0000d658       ??_R4_System_error@std@@6B@ 0000000180046658     libcpmt:xonce.obj
 0002:0000d680       ??_R3_System_error@std@@8  0000000180046680     libcpmt:xonce.obj
 0002:0000d698       ??_R2_System_error@std@@8  0000000180046698     libcpmt:xonce.obj
 0002:0000d6b8       ??_R1A@?0A@EA@_System_error@std@@8 00000001800466b8     libcpmt:xonce.obj
 0002:0000d6e0       ??_R4bad_alloc@std@@6B@    00000001800466e0     libcpmt:xthrow.obj
 0002:0000d708       ??_R3bad_alloc@std@@8      0000000180046708     libcpmt:xthrow.obj
 0002:0000d720       ??_R2bad_alloc@std@@8      0000000180046720     libcpmt:xthrow.obj
 0002:0000d738       ??_R1A@?0A@EA@bad_alloc@std@@8 0000000180046738     libcpmt:xthrow.obj
 0002:0000d760       ??_R4logic_error@std@@6B@  0000000180046760     libcpmt:xthrow.obj
 0002:0000d788       ??_R3logic_error@std@@8    0000000180046788     libcpmt:xthrow.obj
 0002:0000d7a0       ??_R2logic_error@std@@8    00000001800467a0     libcpmt:xthrow.obj
 0002:0000d7b8       ??_R1A@?0A@EA@logic_error@std@@8 00000001800467b8     libcpmt:xthrow.obj
 0002:0000d7e0       ??_R4length_error@std@@6B@ 00000001800467e0     libcpmt:xthrow.obj
 0002:0000d808       ??_R3length_error@std@@8   0000000180046808     libcpmt:xthrow.obj
 0002:0000d820       ??_R2length_error@std@@8   0000000180046820     libcpmt:xthrow.obj
 0002:0000d840       ??_R1A@?0A@EA@length_error@std@@8 0000000180046840     libcpmt:xthrow.obj
 0002:0000d868       ??_R4type_info@@6B@        0000000180046868     LIBCMT:std_type_info_static.obj
 0002:0000d890       ??_R3type_info@@8          0000000180046890     LIBCMT:std_type_info_static.obj
 0002:0000d8a8       ??_R2type_info@@8          00000001800468a8     LIBCMT:std_type_info_static.obj
 0002:0000d8b8       ??_R1A@?0A@EA@type_info@@8 00000001800468b8     LIBCMT:std_type_info_static.obj
 0002:0000d8e0       ??_R4bad_array_new_length@std@@6B@ 00000001800468e0     LIBCMT:throw_bad_alloc.obj
 0002:0000d908       ??_R3bad_array_new_length@std@@8 0000000180046908     LIBCMT:throw_bad_alloc.obj
 0002:0000d920       ??_R2bad_array_new_length@std@@8 0000000180046920     LIBCMT:throw_bad_alloc.obj
 0002:0000d940       ??_R1A@?0A@EA@bad_array_new_length@std@@8 0000000180046940     LIBCMT:throw_bad_alloc.obj
 0002:0000d968       ??_R4bad_exception@std@@6B@ 0000000180046968     libvcruntime:frame.obj
 0002:0000d990       ??_R3bad_exception@std@@8  0000000180046990     libvcruntime:frame.obj
 0002:0000d9a8       ??_R2bad_exception@std@@8  00000001800469a8     libvcruntime:frame.obj
 0002:0000d9c0       ??_R1A@?0A@EA@bad_exception@std@@8 00000001800469c0     libvcruntime:frame.obj
 0002:0000dd60       __rtc_iaa                  0000000180046d60     LIBCMT:_initsect_.obj
 0002:0000dd68       __rtc_izz                  0000000180046d68     LIBCMT:_initsect_.obj
 0002:0000dd70       __rtc_taa                  0000000180046d70     LIBCMT:_initsect_.obj
 0002:0000dd78       __rtc_tzz                  0000000180046d78     LIBCMT:_initsect_.obj
 0002:00013150       _CT??_R0?AVexception@std@@@8??0exception@std@@QEAA@AEBV01@@Z24 000000018004c150     libcpmt:xonce.obj
 0002:00013178       _TI2?AVbad_alloc@std@@     000000018004c178     libcpmt:xthrow.obj
 0002:00013198       _CTA2?AVbad_alloc@std@@    000000018004c198     libcpmt:xthrow.obj
 0002:000131b0       _CT??_R0?AVbad_alloc@std@@@8??0bad_alloc@std@@QEAA@AEBV01@@Z24 000000018004c1b0     libcpmt:xthrow.obj
 0002:000131d8       _CT??_R0?AVlogic_error@std@@@8??0logic_error@std@@QEAA@AEBV01@@Z24 000000018004c1d8     libcpmt:xthrow.obj
 0002:00013200       _TI3?AVlength_error@std@@  000000018004c200     libcpmt:xthrow.obj
 0002:00013220       _CTA3?AVlength_error@std@@ 000000018004c220     libcpmt:xthrow.obj
 0002:00013240       _CT??_R0?AVlength_error@std@@@8??0length_error@std@@QEAA@AEBV01@@Z24 000000018004c240     libcpmt:xthrow.obj
 0002:00013268       _TI3?AVbad_array_new_length@std@@ 000000018004c268     LIBCMT:throw_bad_alloc.obj
 0002:00013288       _CTA3?AVbad_array_new_length@std@@ 000000018004c288     LIBCMT:throw_bad_alloc.obj
 0002:000132a8       _CT??_R0?AVbad_array_new_length@std@@@8??0bad_array_new_length@std@@QEAA@AEBV01@@Z24 000000018004c2a8     LIBCMT:throw_bad_alloc.obj
 0002:000132d0       _TI2?AVbad_exception@std@@ 000000018004c2d0     libvcruntime:frame.obj
 0002:000132f0       _CTA2?AVbad_exception@std@@ 000000018004c2f0     libvcruntime:frame.obj
 0002:00013308       _CT??_R0?AVbad_exception@std@@@8??0bad_exception@std@@QEAA@AEBV01@@Z24 000000018004c308     libvcruntime:frame.obj
 0002:00013330       _CT??_R0?AVVError@vips@@@8??0VError@vips@@QEAA@AEBV01@@Z48 000000018004c330     VError.obj
 0002:00013358       _CTA2?AVVError@vips@@      000000018004c358     VError.obj
 0002:00013370       _CT??_R0?AVexception@stdext@@@8??0exception@stdext@@QEAA@AEBV01@@Z16 000000018004c370     VError.obj
 0002:00013398       _TI2?AVVError@vips@@       000000018004c398     VError.obj
 0002:0001adc4       __IMPORT_DESCRIPTOR_KERNEL32 0000000180053dc4     kernel32:KERNEL32.dll
 0002:0001add8       _head_lib_libvips_lib      0000000180053dd8     libvips:dfijh.o
 0002:0001adec       _head_lib_libglib_2_0_lib  0000000180053dec     libglib-2.0:dzdjh.o
 0002:0001ae00       _head_lib_libgobject_2_0_lib 0000000180053e00     libgobject-2.0:djejh.o
 0002:0001ae14       __NULL_IMPORT_DESCRIPTOR   0000000180053e14     kernel32:KERNEL32.dll
 0002:0001c114       __lib_libvips_lib_iname    0000000180055114     libvips:dfijt.o
 0002:0001c12c       __lib_libglib_2_0_lib_iname 000000018005512c     libglib-2.0:dzdjt.o
 0002:0001c198       __lib_libgobject_2_0_lib_iname 0000000180055198     libgobject-2.0:djejt.o
 0003:00000000       __security_cookie_complement 0000000180056000     LIBCMT:gs_cookie.obj
 0003:00000008       __security_cookie          0000000180056008     LIBCMT:gs_cookie.obj
 0003:00000010       __scrt_native_dllmain_reason 0000000180056010     LIBCMT:utility.obj
 0003:00000020       __isa_available            0000000180056020     LIBCMT:_cpu_disp_.obj
 0003:00000024       __isa_enabled              0000000180056024     LIBCMT:_cpu_disp_.obj
 0003:00000028       __memcpy_nt_iters          0000000180056028     LIBCMT:_cpu_disp_.obj
 0003:00000040       __abort_behavior           0000000180056040     libucrt:abort.obj
 0003:00000060       __acrt_initial_locale_data 0000000180056060     libucrt:nlsdata.obj
 0003:000001b8       __acrt_initial_locale_pointers 00000001800561b8     libucrt:nlsdata.obj
 0003:000001c8       __acrt_wide_c_locale_string 00000001800561c8     libucrt:nlsdata.obj
 0003:000002c0       __acrt_initial_multibyte_data 00000001800562c0     libucrt:mbctype.obj
 0003:00000700       _iob                       0000000180056700     libucrt:_file.obj
 0003:00000808       __globallocalestatus       0000000180056808     libucrt:glstatus.obj
 0003:00000810       __acrt_lconv_c             0000000180056810     libucrt:localeconv.obj
 0003:000008a8       __acrt_lconv_static_decimal 00000001800568a8     libucrt:localeconv.obj
 0003:000008ac       __acrt_lconv_static_W_decimal 00000001800568ac     libucrt:localeconv.obj
 0003:000008d0       _fltused                   00000001800568d0     LIBCMT:fltused.obj
 0003:000008e0       ??_R0?AV_System_error@std@@@8 00000001800568e0     libcpmt:xonce.obj
 0003:00000908       ??_R0?AVruntime_error@std@@@8 0000000180056908     libcpmt:xonce.obj
 0003:00000930       ??_R0?AVexception@std@@@8  0000000180056930     libcpmt:xonce.obj
 0003:00000958       ??_R0?AVbad_alloc@std@@@8  0000000180056958     libcpmt:xthrow.obj
 0003:00000980       ??_R0?AVlogic_error@std@@@8 0000000180056980     libcpmt:xthrow.obj
 0003:000009a8       ??_R0?AVlength_error@std@@@8 00000001800569a8     libcpmt:xthrow.obj
 0003:000009d0       ??_R0?AVtype_info@@@8      00000001800569d0     LIBCMT:std_type_info_static.obj
 0003:000009f0       ??_R0?AVbad_array_new_length@std@@@8 00000001800569f0     LIBCMT:throw_bad_alloc.obj
 0003:00000a20       ??_R0?AVbad_exception@std@@@8 0000000180056a20     libvcruntime:frame.obj
 0003:00000a48       ??_R0?AVexception@stdext@@@8 0000000180056a48     VError.obj
 0003:00000a70       ??_R0?AVVError@vips@@@8    0000000180056a70     VError.obj
 0003:00000aa0       ?_Raise_handler@std@@3P6AXAEBVexception@stdext@@@ZEA 0000000180056aa0     libcpmt:raisehan.obj
 0003:00000ab0       __encodedKERNEL32Functions 0000000180056ab0     libcpmt:winapisupp.obj
 0003:00001170       ?__type_info_root_node@@3U__type_info_node@@A 0000000180057170     LIBCMT:tncleanup.obj
 0003:00001180       ?_OptionsStorage@?1??__local_stdio_printf_options@@9@4_KA 0000000180057180     LIBCMT:default_local_stdio_options.obj
 0003:00001188       ?_OptionsStorage@?1??__local_stdio_scanf_options@@9@4_KA 0000000180057188     LIBCMT:default_local_stdio_options.obj
 0003:00001190       __scrt_current_native_startup_state 0000000180057190     LIBCMT:utility.obj
 0003:00001198       __scrt_native_startup_lock 0000000180057198     LIBCMT:utility.obj
 0003:000011d8       __scrt_debugger_hook_flag  00000001800571d8     LIBCMT:utility_desktop.obj
 0003:000011dc       __favor                    00000001800571dc     LIBCMT:_cpu_disp_.obj
 0003:000011e0       ?__WinRTOutOfMemoryExceptionCallback@@3P6APEAXXZEA 00000001800571e0     libvcruntime:ehhelpers.obj
 0003:00001280       ?pArgList@UnDecorator@@0PEAVReplicator@@EA 0000000180057280     libvcruntime:undname.obj
 0003:00001288       ?pZNameList@UnDecorator@@0PEAVReplicator@@EA 0000000180057288     libvcruntime:undname.obj
 0003:00001290       ?pTemplateArgList@UnDecorator@@0PEAVReplicator@@EA 0000000180057290     libvcruntime:undname.obj
 0003:00001298       ?gName@UnDecorator@@0PEBDEB 0000000180057298     libvcruntime:undname.obj
 0003:000012a0       ?name@UnDecorator@@0PEBDEB 00000001800572a0     libvcruntime:undname.obj
 0003:000012a8       ?disableFlags@UnDecorator@@0KA 00000001800572a8     libvcruntime:undname.obj
 0003:000012ac       ?fExplicitTemplateParams@UnDecorator@@0_NA 00000001800572ac     libvcruntime:undname.obj
 0003:000012ad       ?fGetTemplateArgumentList@UnDecorator@@0_NA 00000001800572ad     libvcruntime:undname.obj
 0003:000012b0       ?m_pGetParameter@UnDecorator@@0P6APEADJ@ZEA 00000001800572b0     libvcruntime:undname.obj
 0003:000012b8       ?m_CHPENameOffset@UnDecorator@@0KA 00000001800572b8     libvcruntime:undname.obj
 0003:000012bc       ?m_recursionLevel@UnDecorator@@0KA 00000001800572bc     libvcruntime:undname.obj
 0003:00001358       __pPurecall                0000000180057358     libvcruntime:purevirt_data.obj
 0003:00001380       ?c_exit_complete@?1???R<lambda_6e4b09c48022b2350581041d5f6b0c4c>@@QEBA@XZ@4_NA 0000000180057380     libucrt:exit.obj
 0003:00001498       _environ_table             0000000180057498     libucrt:environment_initialization.obj
 0003:000014a0       _wenviron_table            00000001800574a0     libucrt:environment_initialization.obj
 0003:000014a8       __dcrt_initial_wide_environment 00000001800574a8     libucrt:environment_initialization.obj
 0003:000014b0       __dcrt_initial_narrow_environment 00000001800574b0     libucrt:environment_initialization.obj
 0003:000014b8       __acrt_atexit_table        00000001800574b8     libucrt:onexit.obj
 0003:000014d0       __acrt_at_quick_exit_table 00000001800574d0     libucrt:onexit.obj
 0003:000014e8       __acrt_locale_changed_data 00000001800574e8     libucrt:wsetlocale.obj
 0003:000014f0       __acrt_current_locale_data 00000001800574f0     libucrt:nlsdata.obj
 0003:00001738       __acrt_current_multibyte_data 0000000180057738     libucrt:mbctype.obj
 0003:00001740       _mbctype                   0000000180057740     libucrt:mbctype.obj
 0003:00001748       _mbcasemap                 0000000180057748     libucrt:mbctype.obj
 0003:00001758       __argc                     0000000180057758     libucrt:argv_data.obj
 0003:00001760       __argv                     0000000180057760     libucrt:argv_data.obj
 0003:00001768       __wargv                    0000000180057768     libucrt:argv_data.obj
 0003:00001770       _acmdln                    0000000180057770     libucrt:argv_data.obj
 0003:00001778       _wcmdln                    0000000180057778     libucrt:argv_data.obj
 0003:00001780       _pgmptr                    0000000180057780     libucrt:argv_data.obj
 0003:00001940       __acrt_heap                0000000180057940     libucrt:heap_handle.obj
 0003:00001950       __pioinfo                  0000000180057950     libucrt:ioinit.obj
 0003:00001d50       _nhandle                   0000000180057d50     libucrt:ioinit.obj
 0003:00001d80       _nstream                   0000000180057d80     libucrt:_file.obj
 0003:00001d88       __piob                     0000000180057d88     libucrt:_file.obj
 0003:00001d90       __acrt_stdout_buffer       0000000180057d90     libucrt:_sftbuf.obj
 0003:00001d98       __acrt_stderr_buffer       0000000180057d98     libucrt:_sftbuf.obj
 0003:00001da8       __acrt_lconv_static_null   0000000180057da8     libucrt:localeconv.obj
 0003:00001dac       __acrt_lconv_static_W_null 0000000180057dac     libucrt:localeconv.obj
 0003:00001dc0       __fma3_is_available        0000000180057dc0     libucrt:fma3_available.obj
 0003:00001dc4       __use_fma3_lib             0000000180057dc4     libucrt:fma3_available.obj
 0003:00001dd0       ?_Storage@?1???$_Immortalize@V_Iostream_error_category@std@@@std@@YAAEAV_Iostream_error_category@1@XZ@4T?$_Align_type@N$0BA@@1@A 0000000180057dd0     VError.obj
 0003:00001de0       ?_Flag@?1???$_Immortalize@V_Iostream_error_category@std@@@std@@YAAEAV_Iostream_error_category@1@XZ@4PEAXEA 0000000180057de0     VError.obj
 0003:00001de8       __scrt_ucrt_dll_is_in_use  0000000180057de8     <common>
 0003:00001df0       __dyn_tls_init_callback    0000000180057df0     <common>

 entry point at        0001:00029dcc

 Static symbols

 0000:fffa3000       .debug$S                   0000000180000000     kernel32:KERNEL32.dll
 0000:fffa3000       .debug$S                   0000000180000000     kernel32:KERNEL32.dll
 0000:fffa3000       .debug$S                   0000000180000000     kernel32:KERNEL32.dll
 0000:fffa3000       .debug$S                   0000000180000000     kernel32:KERNEL32.dll
 0000:fffa3000       .debug$S                   0000000180000000     kernel32:KERNEL32.dll
 0000:fffa3000       .debug$S                   0000000180000000     kernel32:KERNEL32.dll
 0000:fffa3000       .debug$S                   0000000180000000     kernel32:KERNEL32.dll
 0000:fffa3000       .debug$S                   0000000180000000     kernel32:KERNEL32.dll
 0000:fffa3000       .debug$S                   0000000180000000     kernel32:KERNEL32.dll
 0000:fffa3000       .debug$S                   0000000180000000     kernel32:KERNEL32.dll
 0000:fffa3000       .debug$S                   0000000180000000     kernel32:KERNEL32.dll
 0000:fffa3000       .debug$S                   0000000180000000     kernel32:KERNEL32.dll
 0000:fffa3000       .debug$S                   0000000180000000     kernel32:KERNEL32.dll
 0000:fffa3000       .debug$S                   0000000180000000     kernel32:KERNEL32.dll
 0000:fffa3000       .debug$S                   0000000180000000     kernel32:KERNEL32.dll
 0000:fffa3000       .debug$S                   0000000180000000     kernel32:KERNEL32.dll
 0000:fffa3000       .debug$S                   0000000180000000     kernel32:KERNEL32.dll
 0000:fffa3000       .debug$S                   0000000180000000     kernel32:KERNEL32.dll
 0000:fffa3000       .debug$S                   0000000180000000     kernel32:KERNEL32.dll
 0000:fffa3000       .debug$S                   0000000180000000     kernel32:KERNEL32.dll
 0000:fffa3000       .debug$S                   0000000180000000     kernel32:KERNEL32.dll
 0000:fffa3000       .debug$S                   0000000180000000     kernel32:KERNEL32.dll
 0000:fffa3000       .debug$S                   0000000180000000     kernel32:KERNEL32.dll
 0000:fffa3000       .debug$S                   0000000180000000     kernel32:KERNEL32.dll
 0000:fffa3000       .debug$S                   0000000180000000     kernel32:KERNEL32.dll
 0000:fffa3000       .debug$S                   0000000180000000     kernel32:KERNEL32.dll
 0000:fffa3000       .debug$S                   0000000180000000     kernel32:KERNEL32.dll
 0000:fffa3000       .debug$S                   0000000180000000     kernel32:KERNEL32.dll
 0000:fffa3000       .debug$S                   0000000180000000     kernel32:KERNEL32.dll
 0000:fffa3000       .debug$S                   0000000180000000     kernel32:KERNEL32.dll
 0000:fffa3000       .debug$S                   0000000180000000     kernel32:KERNEL32.dll
 0000:fffa3000       .debug$S                   0000000180000000     kernel32:KERNEL32.dll
 0000:fffa3000       .debug$S                   0000000180000000     kernel32:KERNEL32.dll
 0000:fffa3000       .debug$S                   0000000180000000     kernel32:KERNEL32.dll
 0000:fffa3000       .debug$S                   0000000180000000     kernel32:KERNEL32.dll
 0000:fffa3000       .debug$S                   0000000180000000     kernel32:KERNEL32.dll
 0000:fffa3000       .debug$S                   0000000180000000     kernel32:KERNEL32.dll
 0000:fffa3000       .debug$S                   0000000180000000     kernel32:KERNEL32.dll
 0000:fffa3000       .debug$S                   0000000180000000     kernel32:KERNEL32.dll
 0000:fffa3000       .debug$S                   0000000180000000     kernel32:KERNEL32.dll
 0000:fffa3000       .debug$S                   0000000180000000     kernel32:KERNEL32.dll
 0000:fffa3000       .debug$S                   0000000180000000     kernel32:KERNEL32.dll
 0000:fffa3000       .debug$S                   0000000180000000     kernel32:KERNEL32.dll
 0000:fffa3000       .debug$S                   0000000180000000     kernel32:KERNEL32.dll
 0000:fffa3000       .debug$S                   0000000180000000     kernel32:KERNEL32.dll
 0000:fffa3000       .debug$S                   0000000180000000     kernel32:KERNEL32.dll
 0000:fffa3000       .debug$S                   0000000180000000     kernel32:KERNEL32.dll
 0000:fffa3000       .debug$S                   0000000180000000     kernel32:KERNEL32.dll
 0000:fffa3000       .debug$S                   0000000180000000     kernel32:KERNEL32.dll
 0000:fffa3000       .debug$S                   0000000180000000     kernel32:KERNEL32.dll
 0000:fffa3000       .debug$S                   0000000180000000     kernel32:KERNEL32.dll
 0000:fffa3000       .debug$S                   0000000180000000     kernel32:KERNEL32.dll
 0000:fffa3000       .debug$S                   0000000180000000     kernel32:KERNEL32.dll
 0000:fffa3000       .debug$S                   0000000180000000     kernel32:KERNEL32.dll
 0000:fffa3000       .debug$S                   0000000180000000     kernel32:KERNEL32.dll
 0000:fffa3000       .debug$S                   0000000180000000     kernel32:KERNEL32.dll
 0000:fffa3000       .debug$S                   0000000180000000     kernel32:KERNEL32.dll
 0000:fffa3000       .debug$S                   0000000180000000     kernel32:KERNEL32.dll
 0000:fffa3000       .debug$S                   0000000180000000     kernel32:KERNEL32.dll
 0000:fffa3000       .debug$S                   0000000180000000     kernel32:KERNEL32.dll
 0000:fffa3000       .debug$S                   0000000180000000     kernel32:KERNEL32.dll
 0000:fffa3000       .debug$S                   0000000180000000     kernel32:KERNEL32.dll
 0000:fffa3000       .debug$S                   0000000180000000     kernel32:KERNEL32.dll
 0000:fffa3000       .debug$S                   0000000180000000     kernel32:KERNEL32.dll
 0000:fffa3000       .debug$S                   0000000180000000     kernel32:KERNEL32.dll
 0000:fffa3000       .debug$S                   0000000180000000     kernel32:KERNEL32.dll
 0000:fffa3000       .debug$S                   0000000180000000     kernel32:KERNEL32.dll
 0000:fffa3000       .debug$S                   0000000180000000     kernel32:KERNEL32.dll
 0000:fffa3000       .debug$S                   0000000180000000     kernel32:KERNEL32.dll
 0000:fffa3000       .debug$S                   0000000180000000     kernel32:KERNEL32.dll
 0000:fffa3000       .debug$S                   0000000180000000     kernel32:KERNEL32.dll
 0000:fffa3000       .debug$S                   0000000180000000     kernel32:KERNEL32.dll
 0000:fffa3000       .debug$S                   0000000180000000     kernel32:KERNEL32.dll
 0000:fffa3000       .debug$S                   0000000180000000     kernel32:KERNEL32.dll
 0000:fffa3000       .debug$S                   0000000180000000     kernel32:KERNEL32.dll
 0000:fffa3000       .debug$S                   0000000180000000     kernel32:KERNEL32.dll
 0000:fffa3000       .debug$S                   0000000180000000     kernel32:KERNEL32.dll
 0000:fffa3000       .debug$S                   0000000180000000     kernel32:KERNEL32.dll
 0000:fffa3000       .debug$S                   0000000180000000     kernel32:KERNEL32.dll
 0000:fffa3000       .debug$S                   0000000180000000     kernel32:KERNEL32.dll
 0000:fffa3000       .debug$S                   0000000180000000     kernel32:KERNEL32.dll
 0000:fffa3000       .debug$S                   0000000180000000     kernel32:KERNEL32.dll
 0000:fffa3000       .debug$S                   0000000180000000     kernel32:KERNEL32.dll
 0000:fffa3000       .debug$S                   0000000180000000     kernel32:KERNEL32.dll
 0000:fffa3000       .debug$S                   0000000180000000     kernel32:KERNEL32.dll
 0000:fffa3000       .debug$S                   0000000180000000     libvips-cpp.exp
 0000:fffa3000       .debug$S                   0000000180000000     kernel32:KERNEL32.dll
 0001:00000000       .text                      0000000180001000     libvips:dfijs01539.o
 0001:00000008       .text                      0000000180001008     libvips:dfijs01516.o
 0001:00000010       .text                      0000000180001010     libvips:dfijs01542.o
 0001:00000018       .text                      0000000180001018     libvips:dfijs01536.o
 0001:00000020       .text                      0000000180001020     libvips:dfijs01707.o
 0001:00000028       .text                      0000000180001028     libvips:dfijs01487.o
 0001:00000030       .text                      0000000180001030     libvips:dfijs01486.o
 0001:00000038       .text                      0000000180001038     libvips:dfijs01490.o
 0001:00000040       .text                      0000000180001040     libvips:dfijs01476.o
 0001:00000048       .text                      0000000180001048     libvips:dfijs01521.o
 0001:00000050       .text                      0000000180001050     libvips:dfijs01474.o
 0001:00000058       .text                      0000000180001058     libvips:dfijs01483.o
 0001:00000060       .text                      0000000180001060     libvips:dfijs01471.o
 0001:00000068       .text                      0000000180001068     libvips:dfijs01492.o
 0001:00000070       .text                      0000000180001070     libvips:dfijs01475.o
 0001:00000078       .text                      0000000180001078     libvips:dfijs01488.o
 0001:00000080       .text                      0000000180001080     libvips:dfijs01514.o
 0001:00000088       .text                      0000000180001088     libvips:dfijs01479.o
 0001:00000090       .text                      0000000180001090     libvips:dfijs01550.o
 0001:00000098       .text                      0000000180001098     libvips:dfijs01468.o
 0001:000000a0       .text                      00000001800010a0     libvips:dfijs01485.o
 0001:000000a8       .text                      00000001800010a8     libvips:dfijs01519.o
 0001:000000b0       .text                      00000001800010b0     libvips:dfijs01470.o
 0001:000000b8       .text                      00000001800010b8     libvips:dfijs01234.o
 0001:000000c0       .text                      00000001800010c0     libvips:dfijs01523.o
 0001:000000c8       .text                      00000001800010c8     libvips:dfijs01469.o
 0001:000000d0       .text                      00000001800010d0     libvips:dfijs01472.o
 0001:000000d8       .text                      00000001800010d8     libvips:dfijs01538.o
 0001:000000e0       .text                      00000001800010e0     libvips:dfijs01478.o
 0001:000000e8       .text                      00000001800010e8     libvips:dfijs01489.o
 0001:000000f0       .text                      00000001800010f0     libvips:dfijs01572.o
 0001:000000f8       .text                      00000001800010f8     libvips:dfijs01565.o
 0001:00000100       .text                      0000000180001100     libvips:dfijs02028.o
 0001:00000108       .text                      0000000180001108     libvips:dfijs02027.o
 0001:00000110       .text                      0000000180001110     libvips:dfijs01283.o
 0001:00000118       .text                      0000000180001118     libvips:dfijs02019.o
 0001:00000120       .text                      0000000180001120     libvips:dfijs01746.o
 0001:00000128       .text                      0000000180001128     libvips:dfijs00911.o
 0001:00000130       .text                      0000000180001130     libvips:dfijs00702.o
 0001:00000138       .text                      0000000180001138     libvips:dfijs00963.o
 0001:00000140       .text                      0000000180001140     libvips:dfijs01015.o
 0001:00000148       .text                      0000000180001148     libvips:dfijs02029.o
 0001:00000150       .text                      0000000180001150     libvips:dfijs00962.o
 0001:00000158       .text                      0000000180001158     libvips:dfijs01224.o
 0001:00000160       .text                      0000000180001160     libvips:dfijs00905.o
 0001:00000168       .text                      0000000180001168     libvips:dfijs01367.o
 0001:00000170       .text                      0000000180001170     libvips:dfijs02017.o
 0001:00000178       .text                      0000000180001178     libvips:dfijs01518.o
 0001:00000180       .text                      0000000180001180     libvips:dfijs01484.o
 0001:00000188       .text                      0000000180001188     libvips:dfijs01731.o
 0001:00000190       .text                      0000000180001190     libvips:dfijs01284.o
 0001:00000198       .text                      0000000180001198     libvips:dfijs01235.o
 0001:000001a0       .text                      00000001800011a0     libvips:dfijs01724.o
 0001:000001a8       .text                      00000001800011a8     libvips:dfijs02018.o
 0001:000001b0       .text                      00000001800011b0     libvips:dfijs01545.o
 0001:000001b8       .text                      00000001800011b8     libvips:dfijs00891.o
 0001:000001c0       .text                      00000001800011c0     libvips:dfijs01285.o
 0001:000001c8       .text                      00000001800011c8     libvips:dfijs00916.o
 0001:000001d0       .text                      00000001800011d0     libvips:dfijs01701.o
 0001:000001d8       .text                      00000001800011d8     libvips:dfijs01282.o
 0001:000001e0       .text                      00000001800011e0     libglib-2.0:dzdjs00043.o
 0001:000001e8       .text                      00000001800011e8     libglib-2.0:dzdjs00631.o
 0001:000001f0       .text                      00000001800011f0     libgobject-2.0:djejs00142.o
 0001:000001f8       .text                      00000001800011f8     libgobject-2.0:djejs00160.o
 0001:00000200       .text                      0000000180001200     libgobject-2.0:djejs00277.o
 0001:00000208       .text                      0000000180001208     libgobject-2.0:djejs00386.o
 0001:00000210       .text                      0000000180001210     libgobject-2.0:djejs00404.o
 0001:00000218       .text                      0000000180001218     libgobject-2.0:djejs00391.o
 0001:00000220       .text                      0000000180001220     libgobject-2.0:djejs00379.o
 0001:00000228       .text                      0000000180001228     libgobject-2.0:djejs00395.o
 0001:00000230       .text                      0000000180001230     libgobject-2.0:djejs00412.o
 0001:00000238       .text                      0000000180001238     libgobject-2.0:djejs00276.o
 0001:00000240       .text                      0000000180001240     libgobject-2.0:djejs00364.o
 0001:00000248       .text                      0000000180001248     libgobject-2.0:djejs00392.o
 0001:00000250       .text                      0000000180001250     libgobject-2.0:djejs00375.o
 0001:00000258       .text                      0000000180001258     libgobject-2.0:djejs00401.o
 0001:00000260       .text                      0000000180001260     libgobject-2.0:djejs00358.o
 0001:00000268       .text                      0000000180001268     libgobject-2.0:djejs00372.o
 0001:00000270       .text                      0000000180001270     libgobject-2.0:djejs00396.o
 0001:00000278       .text                      0000000180001278     libgobject-2.0:djejs00367.o
 0001:00000280       .text                      0000000180001280     libgobject-2.0:djejs00127.o
 0001:00000288       .text                      0000000180001288     libgobject-2.0:djejs00427.o
 0001:00000290       .text                      0000000180001290     libgobject-2.0:djejs00152.o
 0001:00003a90       ??$_Reallocate_grow_by@V<lambda_65e615be2a453ca0576c979606f46740>@@PEBD_K@?$basic_string@DU?$char_traits@D@std@@V?$allocator@D@2@@std@@QEAAAEAV01@_KV<lambda_65e615be2a453ca0576c979606f46740>@@PEBD_K@Z 0000000180004a90 f   VError.obj
 0001:00028de0       ??$_Resize@V<lambda_2a778761999fc28b0a098902444dd25e>@@@?$vector@NV?$allocator@N@std@@@std@@AEAAX_KV<lambda_2a778761999fc28b0a098902444dd25e>@@@Z 0000000180029de0 f   VImage.obj
 0001:00029384       ?initialize_pointers@@YAHXZ 000000018002a384 f   libcpmt:winapisupp.obj
 0001:00029920       $$000000                   000000018002a920     LIBCMT:_amdsecgs_.obj
 0001:00029a9c       ?dllmain_crt_dispatch@@YAHQEAUHINSTANCE__@@KQEAX@Z 000000018002aa9c f   LIBCMT:dll_dllmain.obj
 0001:00029aec       ?dllmain_crt_process_attach@@YAHQEAUHINSTANCE__@@QEAX@Z 000000018002aaec f   LIBCMT:dll_dllmain.obj
 0001:00029c08       ?dllmain_crt_process_detach@@YAH_N@Z 000000018002ac08 f   LIBCMT:dll_dllmain.obj
 0001:00029c98       ?dllmain_dispatch@@YAHQEAUHINSTANCE__@@KQEAX@Z 000000018002ac98 f   LIBCMT:dll_dllmain.obj
 0001:0002a0c0       capture_current_context    000000018002b0c0 f   LIBCMT:gs_report.obj
 0001:0002a130       capture_previous_context   000000018002b130 f   LIBCMT:gs_report.obj
 0001:0002b300       $$000000                   000000018002c300     libvcruntime:memcpy.obj
 0001:0002b3b7       MoveSmall                  000000018002c3b7     libvcruntime:memcpy.obj
 0001:0002b770       $$000000                   000000018002c770     libvcruntime:memset.obj
 0001:0002b86c       MsetTab                    000000018002c86c     libvcruntime:memset.obj
 0001:0002bef8       ??$BuildCatchObjectHelperInternal@$$CBU_s_HandlerType@@@@YAHPEAUEHExceptionRecord@@PEAXPEBU_s_HandlerType@@PEBU_s_CatchableType@@@Z 000000018002cef8 f   libvcruntime:frame.obj
 0001:0002c0f8       ??$BuildCatchObjectInternal@$$CBU_s_HandlerType@@@@YAXPEAUEHExceptionRecord@@PEAXPEBU_s_HandlerType@@PEBU_s_CatchableType@@@Z 000000018002d0f8 f   libvcruntime:frame.obj
 0001:0002c1b8       ??$CatchIt@V__FrameHandler3@@@@YAXPEAUEHExceptionRecord@@PEA_KPEAU_CONTEXT@@PEAU_xDISPATCHER_CONTEXT@@PEBU_s_FuncInfo@@PEBU_s_HandlerType@@PEBU_s_CatchableType@@PEBU_s_TryBlockMapEntry@@H1EE@Z 000000018002d1b8 f   libvcruntime:frame.obj
 0001:0002c288       ??$FindHandler@V__FrameHandler3@@@@YAXPEAUEHExceptionRecord@@PEA_KPEAU_CONTEXT@@PEAU_xDISPATCHER_CONTEXT@@PEBU_s_FuncInfo@@EH1@Z 000000018002d288 f   libvcruntime:frame.obj
 0001:0002c6ec       ??$FindHandlerForForeignException@V__FrameHandler3@@@@YAXPEAUEHExceptionRecord@@PEA_KPEAU_CONTEXT@@PEAU_xDISPATCHER_CONTEXT@@PEBU_s_FuncInfo@@HH1@Z 000000018002d6ec f   libvcruntime:frame.obj
 0001:0002cef4       ?ExFilterRethrow@@YAHPEAU_EXCEPTION_POINTERS@@PEAUEHExceptionRecord@@PEAH@Z 000000018002def4 f   libvcruntime:frame.obj
 0001:0002d1a8       ?IsInExceptionSpec@@YAEPEAUEHExceptionRecord@@PEBU_s_ESTypeList@@@Z 000000018002e1a8 f   libvcruntime:frame.obj
 0001:0002d280       ?Is_bad_exception_allowed@@YAEPEBU_s_ESTypeList@@@Z 000000018002e280 f   libvcruntime:frame.obj
 0001:0002d330       $$000000                   000000018002e330     libvcruntime:_notify_.obj
 0001:0002d42c       ?try_get_function@@YAPEAXW4function_id@?A0xcc2f1bd3@@QEBDQEBW4module_id@2@2@Z 000000018002e42c f   libvcruntime:winapi_downlevel.obj
 0001:0002d820       $$000000                   000000018002e820     libvcruntime:handlers.obj
 0001:0002defc       ??$?RV<lambda_d80eeec6fff315bfe5c115232f3240e3>@@AEAV<lambda_6e4b09c48022b2350581041d5f6b0c4c>@@V<lambda_2358e3775559c9db80273638284d5e45>@@@?$__crt_seh_guarded_call@X@@QEAAX$$QEAV<lambda_d80eeec6fff315bfe5c115232f3240e3>@@AEAV<lambda_6e4b09c48022b2350581041d5f6b0c4c>@@$$QEAV<lambda_2358e3775559c9db80273638284d5e45>@@@Z 000000018002eefc f   libucrt:exit.obj
 0001:0002df34       ??R<lambda_6e4b09c48022b2350581041d5f6b0c4c>@@QEBA@XZ 000000018002ef34 f   libucrt:exit.obj
 0001:0002e00c       ?atexit_exception_filter@@YAHK@Z 000000018002f00c f   libucrt:exit.obj
 0001:0002e018       ?common_exit@@YAXHW4_crt_exit_cleanup_mode@@W4_crt_exit_return_mode@@@Z 000000018002f018 f   libucrt:exit.obj
 0001:0002e0d4       ?exit_or_terminate_process@@YAXI@Z 000000018002f0d4 f   libucrt:exit.obj
 0001:0002e120       ?try_cor_exit_process@@YAXI@Z 000000018002f120 f   libucrt:exit.obj
 0001:0002e1a8       ??$parse_command_line@D@@YAXPEADPEAPEAD0PEA_K2@Z 000000018002f1a8 f   libucrt:argv_parsing.obj
 0001:0002e554       ??$common_initialize_environment_nolock@D@@YAHXZ 000000018002f554 f   libucrt:environment_initialization.obj
 0001:0002e5c0       ??$create_environment@D@@YAQEAPEADQEAD@Z 000000018002f5c0 f   libucrt:environment_initialization.obj
 0001:0002e6c8       ??$free_environment@D@@YAXQEAPEAD@Z 000000018002f6c8 f   libucrt:environment_initialization.obj
 0001:0002e6c8       ??$free_environment@_W@@YAXQEAPEA_W@Z 000000018002f6c8 f   libucrt:environment_initialization.obj
 0001:0002e70c       ??$uninitialize_environment_internal@D@@YAXAEAPEAPEAD@Z 000000018002f70c f   libucrt:environment_initialization.obj
 0001:0002e728       ??$uninitialize_environment_internal@_W@@YAXAEAPEAPEA_W@Z 000000018002f728 f   libucrt:environment_initialization.obj
 0001:0002e784       ??$?RV<lambda_7777bce6b2f8c936911f934f8298dc43>@@AEAV<lambda_f03950bc5685219e0bcd2087efbe011e>@@V<lambda_3883c3dff614d5e0c5f61bb1ac94921c>@@@?$__crt_seh_guarded_call@H@@QEAAH$$QEAV<lambda_7777bce6b2f8c936911f934f8298dc43>@@AEAV<lambda_f03950bc5685219e0bcd2087efbe011e>@@$$QEAV<lambda_3883c3dff614d5e0c5f61bb1ac94921c>@@@Z 000000018002f784 f   libucrt:onexit.obj
 0001:0002e7c0       ??R<lambda_f03950bc5685219e0bcd2087efbe011e>@@QEBAHXZ 000000018002f7c0 f   libucrt:onexit.obj
 0001:0002e988       initialize_global_variables 000000018002f988 f   libucrt:initialization.obj
 0001:0002e99c       initialize_c               000000018002f99c f   libucrt:initialization.obj
 0001:0002e9c0       initialize_environment     000000018002f9c0 f   libucrt:initialization.obj
 0001:0002e9c0       report_memory_leaks        000000018002f9c0 f   libucrt:initialization.obj
 0001:0002e9c0       initialize_global_state_isolation 000000018002f9c0 f   libucrt:initialization.obj
 0001:0002e9c0       uninitialize_global_state_isolation 000000018002f9c0 f   libucrt:initialization.obj
 0001:0002e9c0       uninitialize_c             000000018002f9c0 f   libucrt:initialization.obj
 0001:0002e9c4       uninitialize_environment   000000018002f9c4 f   libucrt:initialization.obj
 0001:0002e9d4       initialize_pointers        000000018002f9d4 f   libucrt:initialization.obj
 0001:0002ea28       uninitialize_vcruntime     000000018002fa28 f   libucrt:initialization.obj
 0001:0002ea30       uninitialize_allocated_memory 000000018002fa30 f   libucrt:initialization.obj
 0001:0002ea70       uninitialize_allocated_io_buffers 000000018002fa70 f   libucrt:initialization.obj
 0001:0002ec20       $$000000                   000000018002fc20     libucrt:strncmp.obj
 0001:0002ecdc       ??$?RV<lambda_0ae27a3a962d80f24befdcbee591983d>@@AEAV<lambda_8d0ee55de4b1038c4002e0adecdf1839>@@V<lambda_dc504788e8f1664fe9b84e20bfb512f2>@@@?$__crt_seh_guarded_call@X@@QEAAX$$QEAV<lambda_0ae27a3a962d80f24befdcbee591983d>@@AEAV<lambda_8d0ee55de4b1038c4002e0adecdf1839>@@$$QEAV<lambda_dc504788e8f1664fe9b84e20bfb512f2>@@@Z 000000018002fcdc f   libucrt:per_thread_data.obj
 0001:0002ed1c       ??$?RV<lambda_2d41944a1d46af3157314b8a01080d33>@@AEAV<lambda_8f455de75cd7d7f24b4096f044d8b9e6>@@V<lambda_aa500f224e6afead328df44964fe2772>@@@?$__crt_seh_guarded_call@X@@QEAAX$$QEAV<lambda_2d41944a1d46af3157314b8a01080d33>@@AEAV<lambda_8f455de75cd7d7f24b4096f044d8b9e6>@@$$QEAV<lambda_aa500f224e6afead328df44964fe2772>@@@Z 000000018002fd1c f   libucrt:per_thread_data.obj
 0001:0002ed5c       ??$?RV<lambda_aa87e3671a710a21b5dc78c0bdf72e11>@@AEAV<lambda_92619d2358a28f41a33ba319515a20b9>@@V<lambda_6992ecaafeb10aed2b74cb1fae11a551>@@@?$__crt_seh_guarded_call@X@@QEAAX$$QEAV<lambda_aa87e3671a710a21b5dc78c0bdf72e11>@@AEAV<lambda_92619d2358a28f41a33ba319515a20b9>@@$$QEAV<lambda_6992ecaafeb10aed2b74cb1fae11a551>@@@Z 000000018002fd5c f   libucrt:per_thread_data.obj
 0001:0002eda4       ??$?RV<lambda_f2e299630e499de9f9a165e60fcd3db5>@@AEAV<lambda_2ae9d31cdba2644fcbeaf08da7c24588>@@V<lambda_40d01ff24d0e7b3814fdbdcee8eab3c7>@@@?$__crt_seh_guarded_call@X@@QEAAX$$QEAV<lambda_f2e299630e499de9f9a165e60fcd3db5>@@AEAV<lambda_2ae9d31cdba2644fcbeaf08da7c24588>@@$$QEAV<lambda_40d01ff24d0e7b3814fdbdcee8eab3c7>@@@Z 000000018002fda4 f   libucrt:per_thread_data.obj
 0001:0002ee04       ?construct_ptd_array@@YAXQEAU__acrt_ptd@@@Z 000000018002fe04 f   libucrt:per_thread_data.obj
 0001:0002eed4       ?destroy_fls@@YAXPEAX@Z    000000018002fed4 f   libucrt:per_thread_data.obj
 0001:0002eef4       ?destroy_ptd_array@@YAXQEAU__acrt_ptd@@@Z 000000018002fef4 f   libucrt:per_thread_data.obj
 0001:0002efec       ?replace_current_thread_locale_nolock@@YAXQEAU__acrt_ptd@@QEAU__crt_locale_data@@@Z 000000018002ffec f   libucrt:per_thread_data.obj
 0001:0002f45c       ??$?RV<lambda_410d79af7f07d98d83a3f525b3859a53>@@AEAV<lambda_3e16ef9562a7dcce91392c22ab16ea36>@@V<lambda_38119f0e861e05405d8a144b9b982f0a>@@@?$__crt_seh_guarded_call@X@@QEAAX$$QEAV<lambda_410d79af7f07d98d83a3f525b3859a53>@@AEAV<lambda_3e16ef9562a7dcce91392c22ab16ea36>@@$$QEAV<lambda_38119f0e861e05405d8a144b9b982f0a>@@@Z 000000018003045c f   libucrt:wsetlocale.obj
 0001:0002f714       ?<lambda_invoker_cdecl>@<lambda_c2303d2482d7c3675ea2e24c4cfb6115>@@CAHPEBX0@Z 0000000180030714 f   libucrt:argv_wildcards.obj
 0001:0002f728       ??$common_expand_argv_wildcards@D@@YAHQEAPEADQEAPEAPEAD@Z 0000000180030728 f   libucrt:argv_wildcards.obj
 0001:0002f934       ??$copy_and_add_argument_to_buffer@D@@YAHQEBD0_KAEAV?$argument_list@D@?A0x5f5c8891@@@Z 0000000180030934 f   libucrt:argv_wildcards.obj
 0001:0002fad0       ??$expand_argument_wildcards@D@@YAHQEAD0AEAV?$argument_list@D@?A0x5f5c8891@@@Z 0000000180030ad0 f   libucrt:argv_wildcards.obj
 0001:0002fd00       ??$?RV<lambda_efdfa57d1f175319df784efa44bb7b81>@@AEAV<lambda_5f0a4c1567f8adc6734073e5d1e1b35c>@@V<lambda_2e8a7d3640ea6ccb4c2413664c2db6fd>@@@?$__crt_seh_guarded_call@X@@QEAAX$$QEAV<lambda_efdfa57d1f175319df784efa44bb7b81>@@AEAV<lambda_5f0a4c1567f8adc6734073e5d1e1b35c>@@$$QEAV<lambda_2e8a7d3640ea6ccb4c2413664c2db6fd>@@@Z 0000000180030d00 f   libucrt:mbctype.obj
 0001:0002febc       ?getSystemCP@@YAHH@Z       0000000180030ebc f   libucrt:mbctype.obj
 0001:0002ff3c       ?setSBCS@@YAXPEAU__crt_multibyte_data@@@Z 0000000180030f3c f   libucrt:mbctype.obj
 0001:0002ffcc       ?setSBUpLow@@YAXPEAU__crt_multibyte_data@@@Z 0000000180030fcc f   libucrt:mbctype.obj
 0001:000301b0       ?setmbcp_internal@@YAHH_NQEAU__acrt_ptd@@QEAPEAU__crt_multibyte_data@@@Z 00000001800311b0 f   libucrt:mbctype.obj
 0001:00030374       ?update_thread_multibyte_data_internal@@YAPEAU__crt_multibyte_data@@QEAU__acrt_ptd@@QEAPEAU1@@Z 0000000180031374 f   libucrt:mbctype.obj
 0001:00030760       ?x_ismbbtype_l@@YAHPEAU__crt_locale_pointers@@IHH@Z 0000000180031760 f   libucrt:ismbbyte.obj
 0001:00030aac       ?try_get_function@@YAPEAXW4function_id@?A0x391cf84c@@QEBDQEBW4module_id@2@2@Z 0000000180031aac f   libucrt:winapi_thunks.obj
 0001:00031044       ?initialize_inherited_file_handles_nolock@@YAXXZ 0000000180032044 f   libucrt:ioinit.obj
 0001:00031130       ?initialize_stdio_handles_nolock@@YAXXZ 0000000180032130 f   libucrt:ioinit.obj
 0001:00031364       ??$?RV<lambda_450d765d439847d4c735a33c368b5fc0>@@AEAV<lambda_44731a7d0e6d81c3e6aa82d741081786>@@V<lambda_601a2a7da3b7a96e9554ac7215c4b07c>@@@?$__crt_seh_guarded_call@P6AXH@Z@@QEAAP6AXH@Z$$QEAV<lambda_450d765d439847d4c735a33c368b5fc0>@@AEAV<lambda_44731a7d0e6d81c3e6aa82d741081786>@@$$QEAV<lambda_601a2a7da3b7a96e9554ac7215c4b07c>@@@Z 0000000180032364 f   libucrt:signal.obj
 0001:000316d4       ??$?RV<lambda_842d9ff0dc9ef11c61343bbaebe7f885>@@AEAV<lambda_c5860995281e5c4ce005b3de8f5874ee>@@V<lambda_d90129c13df834fdcbf8d2b88dafcf2d>@@@?$__crt_seh_guarded_call@X@@QEAAX$$QEAV<lambda_842d9ff0dc9ef11c61343bbaebe7f885>@@AEAV<lambda_c5860995281e5c4ce005b3de8f5874ee>@@$$QEAV<lambda_d90129c13df834fdcbf8d2b88dafcf2d>@@@Z 00000001800326d4 f   libucrt:fflush.obj
 0001:00031770       ??$?RV<lambda_886d6c58226a84441f68b9f2b8217b83>@@AEAV<lambda_ab61a845afdef5b7c387490eaf3616ee>@@V<lambda_f7f22ab5edc0698d5f6905b0d3f44752>@@@?$__crt_seh_guarded_call@X@@QEAAX$$QEAV<lambda_886d6c58226a84441f68b9f2b8217b83>@@AEAV<lambda_ab61a845afdef5b7c387490eaf3616ee>@@$$QEAV<lambda_f7f22ab5edc0698d5f6905b0d3f44752>@@@Z 0000000180032770 f   libucrt:fflush.obj
 0001:00031850       ?common_flush_all@@YAH_N@Z 0000000180032850 f   libucrt:fflush.obj
 0001:0003213c       ?__acrt_LCMapStringA_stat@@YAHPEAU__crt_locale_pointers@@PEB_WKPEBDHPEADHHH@Z 000000018003313c f   libucrt:lcmapstringa.obj
 0001:00032664       ?free_crt_array_internal@@YAXQEAPEBX_K@Z 0000000180033664 f   libucrt:inittime.obj
 0001:00032df8       fallbackMethod             0000000180033df8 f   libucrt:strpbrk.obj
 0001:000331c4       $LN78                      00000001800341c4     libucrt:strpbrk.obj
 0001:00033200       $LN77                      0000000180034200     libucrt:strpbrk.obj
 0001:00033240       $LN76                      0000000180034240     libucrt:strpbrk.obj
 0001:000336c8       ?_mbstowcs_l_helper@@YA_KPEA_WPEBD_KPEAU__crt_locale_pointers@@@Z 00000001800346c8 f   libucrt:mbstowcs.obj
 0001:000338f0       ?initialize_multibyte@@YAHXZ 00000001800348f0 f   libucrt:multibyte_initializer.obj
 0001:000339c8       ?GetTableIndexFromLocaleName@@YAHPEB_W@Z 00000001800349c8 f   libucrt:lcidtoname_downlevel.obj
 0001:00033df0       ??$?RV<lambda_a37b2b86f63e897a80ea819b0eb08c01>@@AEAV<lambda_38ce7e780aa69e748d6df282ebc68efe>@@V<lambda_99fb1378e971ab6e7edea83e3a7a83a2>@@@?$__crt_seh_guarded_call@H@@QEAAH$$QEAV<lambda_a37b2b86f63e897a80ea819b0eb08c01>@@AEAV<lambda_38ce7e780aa69e748d6df282ebc68efe>@@$$QEAV<lambda_99fb1378e971ab6e7edea83e3a7a83a2>@@@Z 0000000180034df0 f   libucrt:commit.obj
 0001:00033f10       ?write_double_translated_ansi_nolock@@YA?AUwrite_result@?A0x17268360@@HQEBDI@Z 0000000180034f10 f   libucrt:write.obj
 0001:00034128       ?write_text_ansi_nolock@@YA?AUwrite_result@?A0x17268360@@HQEBDI@Z 0000000180035128 f   libucrt:write.obj
 0001:0003422c       ?write_text_utf16le_nolock@@YA?AUwrite_result@?A0x17268360@@HQEBDI@Z 000000018003522c f   libucrt:write.obj
 0001:00034348       ?write_text_utf8_nolock@@YA?AUwrite_result@?A0x17268360@@HQEBDI@Z 0000000180035348 f   libucrt:write.obj
 0001:00034ba4       ?_wcstombs_l_helper@@YA_KPEADPEB_W_KPEAU__crt_locale_pointers@@@Z 0000000180035ba4 f   libucrt:wcstombs.obj
 0001:00034f1c       ??$common_lseek_nolock@_J@@YA_JH_JH@Z 0000000180035f1c f   libucrt:lseek.obj
 0001:000352c0       $$000000                   00000001800362c0     libucrt:log10.obj
 0001:00035ab8       ??$?RV<lambda_751a882b2c74d4b022dec766aa51a29a>@@AEAV<lambda_628dfdc04ba53c8bfc02c9951375f3f5>@@V<lambda_f6c7be5f7998530c34de24c7437d6b54>@@@?$__crt_seh_guarded_call@H@@QEAAH$$QEAV<lambda_751a882b2c74d4b022dec766aa51a29a>@@AEAV<lambda_628dfdc04ba53c8bfc02c9951375f3f5>@@$$QEAV<lambda_f6c7be5f7998530c34de24c7437d6b54>@@@Z 0000000180036ab8 f   libucrt:close.obj
 0001:00035ca8       _call_matherr              0000000180036ca8 f   libucrt:libm_error.obj
 0001:00035d10       _exception_enabled         0000000180036d10 f   libucrt:libm_error.obj
 0001:00035f90       _log_special_common        0000000180036f90 f   libucrt:log_special.obj
 0001:000360d0       $$000000                   00000001800370d0     libucrt:fpsr.obj
 0001:00036700       $$000000                   0000000180037700     LIBCMT:_chkstk_.obj
 0001:00036770       $$000000                   0000000180037770     libvcruntime:memcmp.obj
 0001:00036850       $$000000                   0000000180037850     LIBCMT:_guard_dispatch_.obj
 0001:00036870       ?dtor$3@?0???0_System_error@std@@IEAA@Verror_code@1@AEBV?$basic_string@DU?$char_traits@D@std@@V?$allocator@D@2@@1@@Z@4HA 0000000180037870 f   VError.obj
 0001:0003687c       ?dtor$4@?0???0_System_error@std@@IEAA@Verror_code@1@AEBV?$basic_string@DU?$char_traits@D@std@@V?$allocator@D@2@@1@@Z@4HA 000000018003787c f   VError.obj
 0001:00036890       ?dtor$1@?0???0failure@ios_base@std@@QEAA@PEBDAEBVerror_code@2@@Z@4HA 0000000180037890 f   VError.obj
 0001:000368a0       ?dtor$0@?0???0VError@vips@@QEAA@V?$basic_string@DU?$char_traits@D@std@@V?$allocator@D@2@@std@@@Z@4HA 00000001800378a0 f   VError.obj
 0001:000368ac       ?dtor$1@?0???0VError@vips@@QEAA@V?$basic_string@DU?$char_traits@D@std@@V?$allocator@D@2@@std@@@Z@4HA 00000001800378ac f   VError.obj
 0001:000368c0       ?dtor$0@?0???0VError@vips@@QEAA@XZ@4HA 00000001800378c0 f   VError.obj
 0001:000368c0       ?dtor$0@?0???0VError@vips@@QEAA@AEBV01@@Z@4HA 00000001800378c0 f   VError.obj
 0001:000368d0       ?dtor$1@?0???0VOption@vips@@QEAA@AEBV01@@Z@4HA 00000001800378d0 f   VError.obj
 0001:000368e0       ?dtor$0@?0??option@VImage@vips@@SAPEAVVOption@2@XZ@4HA 00000001800378e0 f   VError.obj
 0001:00036900       ?dtor$0@?0??new_from_image@VImage@vips@@QEBA?AV12@V?$vector@NV?$allocator@N@std@@@std@@@Z@4HA 0000000180037900 f   VError.obj
 0001:00036910       ?dtor$0@?0??ifthenelse@VImage@vips@@QEBA?AV12@NNPEAVVOption@2@@Z@4HA 0000000180037910 f   VError.obj
 0001:00036910       ?dtor$0@?0??linear@VImage@vips@@QEBA?AV12@NNPEAVVOption@2@@Z@4HA 0000000180037910 f   VError.obj
 0001:00036920       ?dtor$0@?0??linear@VImage@vips@@QEBA?AV12@V?$vector@NV?$allocator@N@std@@@std@@NPEAVVOption@2@@Z@4HA 0000000180037920 f   VError.obj
 0001:0003692c       ?dtor$1@?0??linear@VImage@vips@@QEBA?AV12@V?$vector@NV?$allocator@N@std@@@std@@NPEAVVOption@2@@Z@4HA 000000018003792c f   VError.obj
 0001:00036940       ?dtor$0@?0??linear@VImage@vips@@QEBA?AV12@NV?$vector@NV?$allocator@N@std@@@std@@PEAVVOption@2@@Z@4HA 0000000180037940 f   VError.obj
 0001:0003694c       ?dtor$1@?0??linear@VImage@vips@@QEBA?AV12@NV?$vector@NV?$allocator@N@std@@@std@@PEAVVOption@2@@Z@4HA 000000018003794c f   VError.obj
 0001:00036960       ?dtor$0@?0??bandjoin@VImage@vips@@QEBA?AV12@V?$vector@NV?$allocator@N@std@@@std@@PEAVVOption@2@@Z@4HA 0000000180037960 f   VError.obj
 0001:00036970       ?dtor$0@?0???Uvips@@YA?AVVImage@0@NV10@@Z@4HA 0000000180037970 f   VImage.obj
 0001:00036970       ?dtor$0@?0??pow@VImage@vips@@QEBA?AV12@V12@PEAVVOption@2@@Z@4HA 0000000180037970 f   VError.obj
 0001:00036970       ?dtor$0@?0???Tvips@@YA?AVVImage@0@NV10@@Z@4HA 0000000180037970 f   VImage.obj
 0001:00036970       ?dtor$0@?0???Pvips@@YA?AVVImage@0@NV10@@Z@4HA 0000000180037970 f   VImage.obj
 0001:00036970       ?dtor$2@?0???_0vips@@YAAEAVVImage@0@AEAV10@N@Z@4HA 0000000180037970 f   VImage.obj
 0001:00036970       ?dtor$0@?0???Ovips@@YA?AVVImage@0@NV10@@Z@4HA 0000000180037970 f   VImage.obj
 0001:00036970       ?dtor$0@?0???Nvips@@YA?AVVImage@0@NV10@@Z@4HA 0000000180037970 f   VImage.obj
 0001:00036970       ?dtor$0@?0??erode@VImage@vips@@QEBA?AV12@V12@PEAVVOption@2@@Z@4HA 0000000180037970 f   VError.obj
 0001:00036970       ?dtor$2@?0???Zvips@@YAAEAVVImage@0@AEAV10@N@Z@4HA 0000000180037970 f   VImage.obj
 0001:00036970       ?dtor$0@?0??dilate@VImage@vips@@QEBA?AV12@V12@PEAVVOption@2@@Z@4HA 0000000180037970 f   VError.obj
 0001:00036970       ?dtor$0@?0???Mvips@@YA?AVVImage@0@NV10@@Z@4HA 0000000180037970 f   VImage.obj
 0001:00036970       ?dtor$0@?0???Ivips@@YA?AVVImage@0@NV10@@Z@4HA 0000000180037970 f   VImage.obj
 0001:00036970       ?dtor$0@?0???9vips@@YA?AVVImage@0@NV10@@Z@4HA 0000000180037970 f   VImage.obj
 0001:00036970       ?dtor$0@?0???8vips@@YA?AVVImage@0@NV10@@Z@4HA 0000000180037970 f   VImage.obj
 0001:00036970       ?dtor$0@?0??set@VOption@vips@@QEAAPEAV12@PEBDVVInterpolate@2@@Z@4HA 0000000180037970 f   VInterpolate.obj
 0001:00036970       ?dtor$0@?0??ifthenelse@VImage@vips@@QEBA?AV12@V12@NPEAVVOption@2@@Z@4HA 0000000180037970 f   VError.obj
 0001:00036970       ?dtor$0@?0??set@VOption@vips@@QEAAPEAV12@PEBDVVImage@2@@Z@4HA 0000000180037970 f   VImage.obj
 0001:00036970       ?dtor$0@?0??wop@VImage@vips@@QEBA?AV12@V12@PEAVVOption@2@@Z@4HA 0000000180037970 f   VError.obj
 0001:00036980       ?dtor$0@?0??pow@VImage@vips@@QEBA?AV12@V?$vector@NV?$allocator@N@std@@@std@@PEAVVOption@2@@Z@4HA 0000000180037980 f   VError.obj
 0001:00036980       ?dtor$0@?0??wop@VImage@vips@@QEBA?AV12@V?$vector@NV?$allocator@N@std@@@std@@PEAVVOption@2@@Z@4HA 0000000180037980 f   VError.obj
 0001:00036990       ?dtor$0@?0??ifthenelse@VImage@vips@@QEBA?AV12@V?$vector@NV?$allocator@N@std@@@std@@V12@PEAVVOption@2@@Z@4HA 0000000180037990 f   VError.obj
 0001:0003699c       ?dtor$1@?0??ifthenelse@VImage@vips@@QEBA?AV12@V?$vector@NV?$allocator@N@std@@@std@@V12@PEAVVOption@2@@Z@4HA 000000018003799c f   VError.obj
 0001:000369a8       ?dtor$2@?0??ifthenelse@VImage@vips@@QEBA?AV12@V?$vector@NV?$allocator@N@std@@@std@@V12@PEAVVOption@2@@Z@4HA 00000001800379a8 f   VError.obj
 0001:000369c0       ?dtor$0@?0??ifthenelse@VImage@vips@@QEBA?AV12@V12@V?$vector@NV?$allocator@N@std@@@std@@PEAVVOption@2@@Z@4HA 00000001800379c0 f   VError.obj
 0001:000369cc       ?dtor$1@?0??ifthenelse@VImage@vips@@QEBA?AV12@V12@V?$vector@NV?$allocator@N@std@@@std@@PEAVVOption@2@@Z@4HA 00000001800379cc f   VError.obj
 0001:000369e0       ?dtor$0@?0??ifthenelse@VImage@vips@@QEBA?AV12@V?$vector@NV?$allocator@N@std@@@std@@0PEAVVOption@2@@Z@4HA 00000001800379e0 f   VError.obj
 0001:000369ec       ?dtor$1@?0??ifthenelse@VImage@vips@@QEBA?AV12@V?$vector@NV?$allocator@N@std@@@std@@0PEAVVOption@2@@Z@4HA 00000001800379ec f   VError.obj
 0001:000369f8       ?dtor$3@?0??ifthenelse@VImage@vips@@QEBA?AV12@V?$vector@NV?$allocator@N@std@@@std@@0PEAVVOption@2@@Z@4HA 00000001800379f8 f   VError.obj
 0001:00036a10       ?dtor$0@?0??ifthenelse@VImage@vips@@QEBA?AV12@NV12@PEAVVOption@2@@Z@4HA 0000000180037a10 f   VError.obj
 0001:00036a1c       ?dtor$1@?0??ifthenelse@VImage@vips@@QEBA?AV12@NV12@PEAVVOption@2@@Z@4HA 0000000180037a1c f   VError.obj
 0001:00036a30       ?dtor$0@?0???$_Insert_string@DU?$char_traits@D@std@@_K@std@@YAAEAV?$basic_ostream@DU?$char_traits@D@std@@@0@AEAV10@QEBD_K@Z@4HA 0000000180037a30 f   VError.obj
 0001:00036a3c       ?dtor$1@?0???$_Insert_string@DU?$char_traits@D@std@@_K@std@@YAAEAV?$basic_ostream@DU?$char_traits@D@std@@@0@AEAV10@QEBD_K@Z@4HA 0000000180037a3c f   VError.obj
 0001:00036a50       ?dtor$0@?0???0sentry@?$basic_ostream@DU?$char_traits@D@std@@@std@@QEAA@AEAV12@@Z@4HA 0000000180037a50 f   VError.obj
 0001:00036a5c       ?dtor$1@?0???0sentry@?$basic_ostream@DU?$char_traits@D@std@@@std@@QEAA@AEAV12@@Z@4HA 0000000180037a5c f   VError.obj
 0001:00036a70       ?dtor$0@?0??setstate@?$basic_ios@DU?$char_traits@D@std@@@std@@QEAAXH_N@Z@4HA 0000000180037a70 f   VError.obj
 0001:00036a80       ?dtor$0@?0??negate@vips@@YA?AV?$vector@NV?$allocator@N@std@@@std@@V23@@Z@4HA 0000000180037a80 f   VImage.obj
 0001:00036a80       ?dtor$0@?0??invert@vips@@YA?AV?$vector@NV?$allocator@N@std@@@std@@V23@@Z@4HA 0000000180037a80 f   VImage.obj
 0001:00036a90       ?dtor$0@?0??set@VOption@vips@@QEAAPEAV12@PEBDV?$vector@NV?$allocator@N@std@@@std@@@Z@4HA 0000000180037a90 f   VImage.obj
 0001:00036aa0       ?dtor$0@?0??set@VOption@vips@@QEAAPEAV12@PEBDV?$vector@HV?$allocator@H@std@@@std@@@Z@4HA 0000000180037aa0 f   VImage.obj
 0001:00036ab0       ?dtor$0@?0??set@VOption@vips@@QEAAPEAV12@PEBDV?$vector@VVImage@vips@@V?$allocator@VVImage@vips@@@std@@@std@@@Z@4HA 0000000180037ab0 f   VImage.obj
 0001:00036ac0       ?dtor$0@?0??new_from_file@VImage@vips@@SA?AV12@PEBDPEAVVOption@2@@Z@4HA 0000000180037ac0 f   VImage.obj
 0001:00036af0       ?dtor$0@?0??new_from_buffer@VImage@vips@@SA?AV12@PEAX_KPEBDPEAVVOption@2@@Z@4HA 0000000180037af0 f   VImage.obj
 0001:00036b20       ?dtor$0@?0??write@VImage@vips@@QEBA?AV12@V12@@Z@4HA 0000000180037b20 f   VImage.obj
 0001:00036b30       ?dtor$0@?0??dECMC@VImage@vips@@QEBA?AV12@V12@PEAVVOption@2@@Z@4HA 0000000180037b30 f   VImage.obj
 0001:00036b30       ?dtor$0@?0??hist_find_indexed@VImage@vips@@QEBA?AV12@V12@PEAVVOption@2@@Z@4HA 0000000180037b30 f   VImage.obj
 0001:00036b30       ?dtor$0@?0??dE76@VImage@vips@@QEBA?AV12@V12@PEAVVOption@2@@Z@4HA 0000000180037b30 f   VImage.obj
 0001:00036b30       ?dtor$0@?0??fastcor@VImage@vips@@QEBA?AV12@V12@PEAVVOption@2@@Z@4HA 0000000180037b30 f   VImage.obj
 0001:00036b30       ?dtor$0@?0??divide@VImage@vips@@QEBA?AV12@V12@PEAVVOption@2@@Z@4HA 0000000180037b30 f   VImage.obj
 0001:00036b30       ?dtor$0@?0??phasecor@VImage@vips@@QEBA?AV12@V12@PEAVVOption@2@@Z@4HA 0000000180037b30 f   VImage.obj
 0001:00036b30       ?dtor$0@?0??dE00@VImage@vips@@QEBA?AV12@V12@PEAVVOption@2@@Z@4HA 0000000180037b30 f   VImage.obj
 0001:00036b30       ?dtor$0@?0??add@VImage@vips@@QEBA?AV12@V12@PEAVVOption@2@@Z@4HA 0000000180037b30 f   VImage.obj
 0001:00036b30       ?dtor$0@?0??multiply@VImage@vips@@QEBA?AV12@V12@PEAVVOption@2@@Z@4HA 0000000180037b30 f   VImage.obj
 0001:00036b30       ?dtor$0@?0??freqmult@VImage@vips@@QEBA?AV12@V12@PEAVVOption@2@@Z@4HA 0000000180037b30 f   VImage.obj
 0001:00036b30       ?dtor$0@?0??complexform@VImage@vips@@QEBA?AV12@V12@PEAVVOption@2@@Z@4HA 0000000180037b30 f   VImage.obj
 0001:00036b30       ?dtor$0@?0??hist_match@VImage@vips@@QEBA?AV12@V12@PEAVVOption@2@@Z@4HA 0000000180037b30 f   VImage.obj
 0001:00036b30       ?dtor$0@?0??spcor@VImage@vips@@QEBA?AV12@V12@PEAVVOption@2@@Z@4HA 0000000180037b30 f   VImage.obj
 0001:00036b30       ?dtor$0@?0??subtract@VImage@vips@@QEBA?AV12@V12@PEAVVOption@2@@Z@4HA 0000000180037b30 f   VImage.obj
 0001:00036b30       ?dtor$0@?0??remainder@VImage@vips@@QEBA?AV12@V12@PEAVVOption@2@@Z@4HA 0000000180037b30 f   VImage.obj
 0001:00036b3c       ?dtor$1@?0??fastcor@VImage@vips@@QEBA?AV12@V12@PEAVVOption@2@@Z@4HA 0000000180037b3c f   VImage.obj
 0001:00036b3c       ?dtor$1@?0??divide@VImage@vips@@QEBA?AV12@V12@PEAVVOption@2@@Z@4HA 0000000180037b3c f   VImage.obj
 0001:00036b3c       ?dtor$1@?0??dECMC@VImage@vips@@QEBA?AV12@V12@PEAVVOption@2@@Z@4HA 0000000180037b3c f   VImage.obj
 0001:00036b3c       ?dtor$1@?0??spcor@VImage@vips@@QEBA?AV12@V12@PEAVVOption@2@@Z@4HA 0000000180037b3c f   VImage.obj
 0001:00036b3c       ?dtor$1@?0??dE76@VImage@vips@@QEBA?AV12@V12@PEAVVOption@2@@Z@4HA 0000000180037b3c f   VImage.obj
 0001:00036b3c       ?dtor$1@?0??dE00@VImage@vips@@QEBA?AV12@V12@PEAVVOption@2@@Z@4HA 0000000180037b3c f   VImage.obj
 0001:00036b3c       ?dtor$1@?0??complexform@VImage@vips@@QEBA?AV12@V12@PEAVVOption@2@@Z@4HA 0000000180037b3c f   VImage.obj
 0001:00036b3c       ?dtor$1@?0??add@VImage@vips@@QEBA?AV12@V12@PEAVVOption@2@@Z@4HA 0000000180037b3c f   VImage.obj
 0001:00036b3c       ?dtor$1@?0??freqmult@VImage@vips@@QEBA?AV12@V12@PEAVVOption@2@@Z@4HA 0000000180037b3c f   VImage.obj
 0001:00036b3c       ?dtor$1@?0??hist_find_indexed@VImage@vips@@QEBA?AV12@V12@PEAVVOption@2@@Z@4HA 0000000180037b3c f   VImage.obj
 0001:00036b3c       ?dtor$1@?0??hist_match@VImage@vips@@QEBA?AV12@V12@PEAVVOption@2@@Z@4HA 0000000180037b3c f   VImage.obj
 0001:00036b3c       ?dtor$1@?0??remainder@VImage@vips@@QEBA?AV12@V12@PEAVVOption@2@@Z@4HA 0000000180037b3c f   VImage.obj
 0001:00036b3c       ?dtor$1@?0??multiply@VImage@vips@@QEBA?AV12@V12@PEAVVOption@2@@Z@4HA 0000000180037b3c f   VImage.obj
 0001:00036b3c       ?dtor$1@?0??phasecor@VImage@vips@@QEBA?AV12@V12@PEAVVOption@2@@Z@4HA 0000000180037b3c f   VImage.obj
 0001:00036b3c       ?dtor$1@?0??subtract@VImage@vips@@QEBA?AV12@V12@PEAVVOption@2@@Z@4HA 0000000180037b3c f   VImage.obj
 0001:00036b65       ?dtor$2@?0??subtract@VImage@vips@@QEBA?AV12@V12@PEAVVOption@2@@Z@4HA 0000000180037b65 f   VImage.obj
 0001:00036b65       ?dtor$2@?0??remainder@VImage@vips@@QEBA?AV12@V12@PEAVVOption@2@@Z@4HA 0000000180037b65 f   VImage.obj
 0001:00036b65       ?dtor$2@?0??spcor@VImage@vips@@QEBA?AV12@V12@PEAVVOption@2@@Z@4HA 0000000180037b65 f   VImage.obj
 0001:00036b65       ?dtor$2@?0??add@VImage@vips@@QEBA?AV12@V12@PEAVVOption@2@@Z@4HA 0000000180037b65 f   VImage.obj
 0001:00036b65       ?dtor$2@?0??dE00@VImage@vips@@QEBA?AV12@V12@PEAVVOption@2@@Z@4HA 0000000180037b65 f   VImage.obj
 0001:00036b65       ?dtor$2@?0??dE76@VImage@vips@@QEBA?AV12@V12@PEAVVOption@2@@Z@4HA 0000000180037b65 f   VImage.obj
 0001:00036b65       ?dtor$2@?0??dECMC@VImage@vips@@QEBA?AV12@V12@PEAVVOption@2@@Z@4HA 0000000180037b65 f   VImage.obj
 0001:00036b65       ?dtor$2@?0??divide@VImage@vips@@QEBA?AV12@V12@PEAVVOption@2@@Z@4HA 0000000180037b65 f   VImage.obj
 0001:00036b65       ?dtor$2@?0??phasecor@VImage@vips@@QEBA?AV12@V12@PEAVVOption@2@@Z@4HA 0000000180037b65 f   VImage.obj
 0001:00036b65       ?dtor$2@?0??fastcor@VImage@vips@@QEBA?AV12@V12@PEAVVOption@2@@Z@4HA 0000000180037b65 f   VImage.obj
 0001:00036b65       ?dtor$2@?0??freqmult@VImage@vips@@QEBA?AV12@V12@PEAVVOption@2@@Z@4HA 0000000180037b65 f   VImage.obj
 0001:00036b65       ?dtor$2@?0??hist_find_indexed@VImage@vips@@QEBA?AV12@V12@PEAVVOption@2@@Z@4HA 0000000180037b65 f   VImage.obj
 0001:00036b65       ?dtor$2@?0??hist_match@VImage@vips@@QEBA?AV12@V12@PEAVVOption@2@@Z@4HA 0000000180037b65 f   VImage.obj
 0001:00036b65       ?dtor$2@?0??multiply@VImage@vips@@QEBA?AV12@V12@PEAVVOption@2@@Z@4HA 0000000180037b65 f   VImage.obj
 0001:00036b65       ?dtor$2@?0??complexform@VImage@vips@@QEBA?AV12@V12@PEAVVOption@2@@Z@4HA 0000000180037b65 f   VImage.obj
 0001:00036b80       ?dtor$0@?0??composite2@VImage@vips@@QEBA?AV12@V12@W4VipsBlendMode@@PEAVVOption@2@@Z@4HA 0000000180037b80 f   VImage.obj
 0001:00036b80       ?dtor$0@?0??mosaic@VImage@vips@@QEBA?AV12@V12@W4VipsDirection@@HHHHPEAVVOption@2@@Z@4HA 0000000180037b80 f   VImage.obj
 0001:00036b80       ?dtor$0@?0??mosaic1@VImage@vips@@QEBA?AV12@V12@W4VipsDirection@@HHHHHHHHPEAVVOption@2@@Z@4HA 0000000180037b80 f   VImage.obj
 0001:00036b80       ?dtor$0@?0??morph@VImage@vips@@QEBA?AV12@V12@W4VipsOperationMorphology@@PEAVVOption@2@@Z@4HA 0000000180037b80 f   VImage.obj
 0001:00036b80       ?dtor$0@?0??merge@VImage@vips@@QEBA?AV12@V12@W4VipsDirection@@HHPEAVVOption@2@@Z@4HA 0000000180037b80 f   VImage.obj
 0001:00036b80       ?dtor$0@?0??math2@VImage@vips@@QEBA?AV12@V12@W4VipsOperationMath2@@PEAVVOption@2@@Z@4HA 0000000180037b80 f   VImage.obj
 0001:00036b80       ?dtor$0@?0??match@VImage@vips@@QEBA?AV12@V12@HHHHHHHHPEAVVOption@2@@Z@4HA 0000000180037b80 f   VImage.obj
 0001:00036b80       ?dtor$0@?0??join@VImage@vips@@QEBA?AV12@V12@W4VipsDirection@@PEAVVOption@2@@Z@4HA 0000000180037b80 f   VImage.obj
 0001:00036b80       ?dtor$0@?0??complex2@VImage@vips@@QEBA?AV12@V12@W4VipsOperationComplex2@@PEAVVOption@2@@Z@4HA 0000000180037b80 f   VImage.obj
 0001:00036b80       ?dtor$0@?0??insert@VImage@vips@@QEBA?AV12@V12@HHPEAVVOption@2@@Z@4HA 0000000180037b80 f   VImage.obj
 0001:00036b80       ?dtor$0@?0??boolean@VImage@vips@@QEBA?AV12@V12@W4VipsOperationBoolean@@PEAVVOption@2@@Z@4HA 0000000180037b80 f   VImage.obj
 0001:00036b80       ?dtor$0@?0??relational@VImage@vips@@QEBA?AV12@V12@W4VipsOperationRelational@@PEAVVOption@2@@Z@4HA 0000000180037b80 f   VImage.obj
 0001:00036b8c       ?dtor$1@?0??relational@VImage@vips@@QEBA?AV12@V12@W4VipsOperationRelational@@PEAVVOption@2@@Z@4HA 0000000180037b8c f   VImage.obj
 0001:00036b8c       ?dtor$1@?0??mosaic1@VImage@vips@@QEBA?AV12@V12@W4VipsDirection@@HHHHHHHHPEAVVOption@2@@Z@4HA 0000000180037b8c f   VImage.obj
 0001:00036b8c       ?dtor$1@?0??composite2@VImage@vips@@QEBA?AV12@V12@W4VipsBlendMode@@PEAVVOption@2@@Z@4HA 0000000180037b8c f   VImage.obj
 0001:00036b8c       ?dtor$1@?0??complex2@VImage@vips@@QEBA?AV12@V12@W4VipsOperationComplex2@@PEAVVOption@2@@Z@4HA 0000000180037b8c f   VImage.obj
 0001:00036b8c       ?dtor$1@?0??boolean@VImage@vips@@QEBA?AV12@V12@W4VipsOperationBoolean@@PEAVVOption@2@@Z@4HA 0000000180037b8c f   VImage.obj
 0001:00036b8c       ?dtor$1@?0??insert@VImage@vips@@QEBA?AV12@V12@HHPEAVVOption@2@@Z@4HA 0000000180037b8c f   VImage.obj
 0001:00036b8c       ?dtor$1@?0??join@VImage@vips@@QEBA?AV12@V12@W4VipsDirection@@PEAVVOption@2@@Z@4HA 0000000180037b8c f   VImage.obj
 0001:00036b8c       ?dtor$1@?0??match@VImage@vips@@QEBA?AV12@V12@HHHHHHHHPEAVVOption@2@@Z@4HA 0000000180037b8c f   VImage.obj
 0001:00036b8c       ?dtor$1@?0??math2@VImage@vips@@QEBA?AV12@V12@W4VipsOperationMath2@@PEAVVOption@2@@Z@4HA 0000000180037b8c f   VImage.obj
 0001:00036b8c       ?dtor$1@?0??morph@VImage@vips@@QEBA?AV12@V12@W4VipsOperationMorphology@@PEAVVOption@2@@Z@4HA 0000000180037b8c f   VImage.obj
 0001:00036b8c       ?dtor$1@?0??merge@VImage@vips@@QEBA?AV12@V12@W4VipsDirection@@HHPEAVVOption@2@@Z@4HA 0000000180037b8c f   VImage.obj
 0001:00036b8c       ?dtor$1@?0??mosaic@VImage@vips@@QEBA?AV12@V12@W4VipsDirection@@HHHHPEAVVOption@2@@Z@4HA 0000000180037b8c f   VImage.obj
 0001:00036bb5       ?dtor$2@?0??math2@VImage@vips@@QEBA?AV12@V12@W4VipsOperationMath2@@PEAVVOption@2@@Z@4HA 0000000180037bb5 f   VImage.obj
 0001:00036bb5       ?dtor$2@?0??merge@VImage@vips@@QEBA?AV12@V12@W4VipsDirection@@HHPEAVVOption@2@@Z@4HA 0000000180037bb5 f   VImage.obj
 0001:00036bb5       ?dtor$2@?0??complex2@VImage@vips@@QEBA?AV12@V12@W4VipsOperationComplex2@@PEAVVOption@2@@Z@4HA 0000000180037bb5 f   VImage.obj
 0001:00036bb5       ?dtor$2@?0??morph@VImage@vips@@QEBA?AV12@V12@W4VipsOperationMorphology@@PEAVVOption@2@@Z@4HA 0000000180037bb5 f   VImage.obj
 0001:00036bb5       ?dtor$2@?0??relational@VImage@vips@@QEBA?AV12@V12@W4VipsOperationRelational@@PEAVVOption@2@@Z@4HA 0000000180037bb5 f   VImage.obj
 0001:00036bb5       ?dtor$2@?0??boolean@VImage@vips@@QEBA?AV12@V12@W4VipsOperationBoolean@@PEAVVOption@2@@Z@4HA 0000000180037bb5 f   VImage.obj
 0001:00036bb5       ?dtor$2@?0??mosaic1@VImage@vips@@QEBA?AV12@V12@W4VipsDirection@@HHHHHHHHPEAVVOption@2@@Z@4HA 0000000180037bb5 f   VImage.obj
 0001:00036bb5       ?dtor$2@?0??composite2@VImage@vips@@QEBA?AV12@V12@W4VipsBlendMode@@PEAVVOption@2@@Z@4HA 0000000180037bb5 f   VImage.obj
 0001:00036bb5       ?dtor$2@?0??insert@VImage@vips@@QEBA?AV12@V12@HHPEAVVOption@2@@Z@4HA 0000000180037bb5 f   VImage.obj
 0001:00036bb5       ?dtor$2@?0??join@VImage@vips@@QEBA?AV12@V12@W4VipsDirection@@PEAVVOption@2@@Z@4HA 0000000180037bb5 f   VImage.obj
 0001:00036bb5       ?dtor$2@?0??mosaic@VImage@vips@@QEBA?AV12@V12@W4VipsDirection@@HHHHPEAVVOption@2@@Z@4HA 0000000180037bb5 f   VImage.obj
 0001:00036bb5       ?dtor$2@?0??match@VImage@vips@@QEBA?AV12@V12@HHHHHHHHPEAVVOption@2@@Z@4HA 0000000180037bb5 f   VImage.obj
 0001:00036bd0       ?dtor$0@?0??sum@VImage@vips@@SA?AV12@V?$vector@VVImage@vips@@V?$allocator@VVImage@vips@@@std@@@std@@PEAVVOption@2@@Z@4HA 0000000180037bd0 f   VImage.obj
 0001:00036bd0       ?dtor$0@?0??bandjoin@VImage@vips@@SA?AV12@V?$vector@VVImage@vips@@V?$allocator@VVImage@vips@@@std@@@std@@PEAVVOption@2@@Z@4HA 0000000180037bd0 f   VImage.obj
 0001:00036bd0       ?dtor$0@?0??arrayjoin@VImage@vips@@SA?AV12@V?$vector@VVImage@vips@@V?$allocator@VVImage@vips@@@std@@@std@@PEAVVOption@2@@Z@4HA 0000000180037bd0 f   VImage.obj
 0001:00036bd0       ?dtor$0@?0??bandrank@VImage@vips@@SA?AV12@V?$vector@VVImage@vips@@V?$allocator@VVImage@vips@@@std@@@std@@PEAVVOption@2@@Z@4HA 0000000180037bd0 f   VImage.obj
 0001:00036bdc       ?dtor$1@?0??bandrank@VImage@vips@@SA?AV12@V?$vector@VVImage@vips@@V?$allocator@VVImage@vips@@@std@@@std@@PEAVVOption@2@@Z@4HA 0000000180037bdc f   VImage.obj
 0001:00036bdc       ?dtor$1@?0??arrayjoin@VImage@vips@@SA?AV12@V?$vector@VVImage@vips@@V?$allocator@VVImage@vips@@@std@@@std@@PEAVVOption@2@@Z@4HA 0000000180037bdc f   VImage.obj
 0001:00036bdc       ?dtor$1@?0??sum@VImage@vips@@SA?AV12@V?$vector@VVImage@vips@@V?$allocator@VVImage@vips@@@std@@@std@@PEAVVOption@2@@Z@4HA 0000000180037bdc f   VImage.obj
 0001:00036bdc       ?dtor$1@?0??bandjoin@VImage@vips@@SA?AV12@V?$vector@VVImage@vips@@V?$allocator@VVImage@vips@@@std@@@std@@PEAVVOption@2@@Z@4HA 0000000180037bdc f   VImage.obj
 0001:00036c10       ?dtor$0@?0??flatten@VImage@vips@@QEBA?AV12@PEAVVOption@2@@Z@4HA 0000000180037c10 f   VImage.obj
 0001:00036c10       ?dtor$0@?0??fill_nearest@VImage@vips@@QEBA?AV12@PEAVVOption@2@@Z@4HA 0000000180037c10 f   VImage.obj
 0001:00036c10       ?dtor$0@?0??falsecolour@VImage@vips@@QEBA?AV12@PEAVVOption@2@@Z@4HA 0000000180037c10 f   VImage.obj
 0001:00036c10       ?dtor$0@?0??premultiply@VImage@vips@@QEBA?AV12@PEAVVOption@2@@Z@4HA 0000000180037c10 f   VImage.obj
 0001:00036c10       ?dtor$0@?0??globalbalance@VImage@vips@@QEBA?AV12@PEAVVOption@2@@Z@4HA 0000000180037c10 f   VImage.obj
 0001:00036c10       ?dtor$0@?0??Lab2LCh@VImage@vips@@QEBA?AV12@PEAVVOption@2@@Z@4HA 0000000180037c10 f   VImage.obj
 0001:00036c10       ?dtor$0@?0??rad2float@VImage@vips@@QEBA?AV12@PEAVVOption@2@@Z@4HA 0000000180037c10 f   VImage.obj
 0001:00036c10       ?dtor$0@?0??Lab2LabQ@VImage@vips@@QEBA?AV12@PEAVVOption@2@@Z@4HA 0000000180037c10 f   VImage.obj
 0001:00036c10       ?dtor$0@?0??Lab2LabS@VImage@vips@@QEBA?AV12@PEAVVOption@2@@Z@4HA 0000000180037c10 f   VImage.obj
 0001:00036c10       ?dtor$0@?0??Lab2XYZ@VImage@vips@@QEBA?AV12@PEAVVOption@2@@Z@4HA 0000000180037c10 f   VImage.obj
 0001:00036c10       ?dtor$0@?0??LabQ2Lab@VImage@vips@@QEBA?AV12@PEAVVOption@2@@Z@4HA 0000000180037c10 f   VImage.obj
 0001:00036c10       ?dtor$0@?0??LabQ2LabS@VImage@vips@@QEBA?AV12@PEAVVOption@2@@Z@4HA 0000000180037c10 f   VImage.obj
 0001:00036c10       ?dtor$0@?0??LabQ2sRGB@VImage@vips@@QEBA?AV12@PEAVVOption@2@@Z@4HA 0000000180037c10 f   VImage.obj
 0001:00036c10       ?dtor$0@?0??LabS2Lab@VImage@vips@@QEBA?AV12@PEAVVOption@2@@Z@4HA 0000000180037c10 f   VImage.obj
 0001:00036c10       ?dtor$0@?0??LabS2LabQ@VImage@vips@@QEBA?AV12@PEAVVOption@2@@Z@4HA 0000000180037c10 f   VImage.obj
 0001:00036c10       ?dtor$0@?0??linecache@VImage@vips@@QEBA?AV12@PEAVVOption@2@@Z@4HA 0000000180037c10 f   VImage.obj
 0001:00036c10       ?dtor$0@?0??XYZ2Lab@VImage@vips@@QEBA?AV12@PEAVVOption@2@@Z@4HA 0000000180037c10 f   VImage.obj
 0001:00036c10       ?dtor$0@?0??rot45@VImage@vips@@QEBA?AV12@PEAVVOption@2@@Z@4HA 0000000180037c10 f   VImage.obj
 0001:00036c10       ?dtor$0@?0??LCh2Lab@VImage@vips@@QEBA?AV12@PEAVVOption@2@@Z@4HA 0000000180037c10 f   VImage.obj
 0001:00036c10       ?dtor$0@?0??labelregions@VImage@vips@@QEBA?AV12@PEAVVOption@2@@Z@4HA 0000000180037c10 f   VImage.obj
 0001:00036c10       ?dtor$0@?0??XYZ2Yxy@VImage@vips@@QEBA?AV12@PEAVVOption@2@@Z@4HA 0000000180037c10 f   VImage.obj
 0001:00036c10       ?dtor$0@?0??sRGB2HSV@VImage@vips@@QEBA?AV12@PEAVVOption@2@@Z@4HA 0000000180037c10 f   VImage.obj
 0001:00036c10       ?dtor$0@?0??sRGB2scRGB@VImage@vips@@QEBA?AV12@PEAVVOption@2@@Z@4HA 0000000180037c10 f   VImage.obj
 0001:00036c10       ?dtor$0@?0??scRGB2BW@VImage@vips@@QEBA?AV12@PEAVVOption@2@@Z@4HA 0000000180037c10 f   VImage.obj
 0001:00036c10       ?dtor$0@?0??scRGB2XYZ@VImage@vips@@QEBA?AV12@PEAVVOption@2@@Z@4HA 0000000180037c10 f   VImage.obj
 0001:00036c10       ?dtor$0@?0??scRGB2sRGB@VImage@vips@@QEBA?AV12@PEAVVOption@2@@Z@4HA 0000000180037c10 f   VImage.obj
 0001:00036c10       ?dtor$0@?0??scale@VImage@vips@@QEBA?AV12@PEAVVOption@2@@Z@4HA 0000000180037c10 f   VImage.obj
 0001:00036c10       ?dtor$0@?0??gamma@VImage@vips@@QEBA?AV12@PEAVVOption@2@@Z@4HA 0000000180037c10 f   VImage.obj
 0001:00036c10       ?dtor$0@?0??XYZ2scRGB@VImage@vips@@QEBA?AV12@PEAVVOption@2@@Z@4HA 0000000180037c10 f   VImage.obj
 0001:00036c10       ?dtor$0@?0??copy@VImage@vips@@QEBA?AV12@PEAVVOption@2@@Z@4HA 0000000180037c10 f   VImage.obj
 0001:00036c10       ?dtor$0@?0??Yxy2XYZ@VImage@vips@@QEBA?AV12@PEAVVOption@2@@Z@4HA 0000000180037c10 f   VImage.obj
 0001:00036c10       ?dtor$0@?0??float2rad@VImage@vips@@QEBA?AV12@PEAVVOption@2@@Z@4HA 0000000180037c10 f   VImage.obj
 0001:00036c10       ?dtor$0@?0??sharpen@VImage@vips@@QEBA?AV12@PEAVVOption@2@@Z@4HA 0000000180037c10 f   VImage.obj
 0001:00036c10       ?dtor$0@?0??abs@VImage@vips@@QEBA?AV12@PEAVVOption@2@@Z@4HA 0000000180037c10 f   VImage.obj
 0001:00036c10       ?dtor$0@?0??invfft@VImage@vips@@QEBA?AV12@PEAVVOption@2@@Z@4HA 0000000180037c10 f   VImage.obj
 0001:00036c10       ?dtor$0@?0??invertlut@VImage@vips@@QEBA?AV12@PEAVVOption@2@@Z@4HA 0000000180037c10 f   VImage.obj
 0001:00036c10       ?dtor$0@?0??sign@VImage@vips@@QEBA?AV12@PEAVVOption@2@@Z@4HA 0000000180037c10 f   VImage.obj
 0001:00036c10       ?dtor$0@?0??similarity@VImage@vips@@QEBA?AV12@PEAVVOption@2@@Z@4HA 0000000180037c10 f   VImage.obj
 0001:00036c10       ?dtor$0@?0??autorot@VImage@vips@@QEBA?AV12@PEAVVOption@2@@Z@4HA 0000000180037c10 f   VImage.obj
 0001:00036c10       ?dtor$0@?0??sobel@VImage@vips@@QEBA?AV12@PEAVVOption@2@@Z@4HA 0000000180037c10 f   VImage.obj
 0001:00036c10       ?dtor$0@?0??hist_cum@VImage@vips@@QEBA?AV12@PEAVVOption@2@@Z@4HA 0000000180037c10 f   VImage.obj
 0001:00036c10       ?dtor$0@?0??spectrum@VImage@vips@@QEBA?AV12@PEAVVOption@2@@Z@4HA 0000000180037c10 f   VImage.obj
 0001:00036c10       ?dtor$0@?0??stats@VImage@vips@@QEBA?AV12@PEAVVOption@2@@Z@4HA 0000000180037c10 f   VImage.obj
 0001:00036c10       ?dtor$0@?0??invert@VImage@vips@@QEBA?AV12@PEAVVOption@2@@Z@4HA 0000000180037c10 f   VImage.obj
 0001:00036c10       ?dtor$0@?0??hist_equal@VImage@vips@@QEBA?AV12@PEAVVOption@2@@Z@4HA 0000000180037c10 f   VImage.obj
 0001:00036c10       ?dtor$0@?0??LCh2CMC@VImage@vips@@QEBA?AV12@PEAVVOption@2@@Z@4HA 0000000180037c10 f   VImage.obj
 0001:00036c10       ?dtor$0@?0??HSV2sRGB@VImage@vips@@QEBA?AV12@PEAVVOption@2@@Z@4HA 0000000180037c10 f   VImage.obj
 0001:00036c10       ?dtor$0@?0??icc_import@VImage@vips@@QEBA?AV12@PEAVVOption@2@@Z@4HA 0000000180037c10 f   VImage.obj
 0001:00036c10       ?dtor$0@?0??tilecache@VImage@vips@@QEBA?AV12@PEAVVOption@2@@Z@4HA 0000000180037c10 f   VImage.obj
 0001:00036c10       ?dtor$0@?0??transpose3d@VImage@vips@@QEBA?AV12@PEAVVOption@2@@Z@4HA 0000000180037c10 f   VImage.obj
 0001:00036c10       ?dtor$0@?0??unpremultiply@VImage@vips@@QEBA?AV12@PEAVVOption@2@@Z@4HA 0000000180037c10 f   VImage.obj
 0001:00036c10       ?dtor$0@?0??wrap@VImage@vips@@QEBA?AV12@PEAVVOption@2@@Z@4HA 0000000180037c10 f   VImage.obj
 0001:00036c10       ?dtor$0@?0??canny@VImage@vips@@QEBA?AV12@PEAVVOption@2@@Z@4HA 0000000180037c10 f   VImage.obj
 0001:00036c10       ?dtor$0@?0??icc_export@VImage@vips@@QEBA?AV12@PEAVVOption@2@@Z@4HA 0000000180037c10 f   VImage.obj
 0001:00036c10       ?dtor$0@?0??cache@VImage@vips@@QEBA?AV12@PEAVVOption@2@@Z@4HA 0000000180037c10 f   VImage.obj
 0001:00036c10       ?dtor$0@?0??hough_line@VImage@vips@@QEBA?AV12@PEAVVOption@2@@Z@4HA 0000000180037c10 f   VImage.obj
 0001:00036c10       ?dtor$0@?0??msb@VImage@vips@@QEBA?AV12@PEAVVOption@2@@Z@4HA 0000000180037c10 f   VImage.obj
 0001:00036c10       ?dtor$0@?0??sequential@VImage@vips@@QEBA?AV12@PEAVVOption@2@@Z@4HA 0000000180037c10 f   VImage.obj
 0001:00036c10       ?dtor$0@?0??hough_circle@VImage@vips@@QEBA?AV12@PEAVVOption@2@@Z@4HA 0000000180037c10 f   VImage.obj
 0001:00036c10       ?dtor$0@?0??fwfft@VImage@vips@@QEBA?AV12@PEAVVOption@2@@Z@4HA 0000000180037c10 f   VImage.obj
 0001:00036c10       ?dtor$0@?0??hist_plot@VImage@vips@@QEBA?AV12@PEAVVOption@2@@Z@4HA 0000000180037c10 f   VImage.obj
 0001:00036c10       ?dtor$0@?0??bandfold@VImage@vips@@QEBA?AV12@PEAVVOption@2@@Z@4HA 0000000180037c10 f   VImage.obj
 0001:00036c10       ?dtor$0@?0??hist_norm@VImage@vips@@QEBA?AV12@PEAVVOption@2@@Z@4HA 0000000180037c10 f   VImage.obj
 0001:00036c10       ?dtor$0@?0??byteswap@VImage@vips@@QEBA?AV12@PEAVVOption@2@@Z@4HA 0000000180037c10 f   VImage.obj
 0001:00036c10       ?dtor$0@?0??hist_find@VImage@vips@@QEBA?AV12@PEAVVOption@2@@Z@4HA 0000000180037c10 f   VImage.obj
 0001:00036c10       ?dtor$0@?0??buildlut@VImage@vips@@QEBA?AV12@PEAVVOption@2@@Z@4HA 0000000180037c10 f   VImage.obj
 0001:00036c10       ?dtor$0@?0??CMC2LCh@VImage@vips@@QEBA?AV12@PEAVVOption@2@@Z@4HA 0000000180037c10 f   VImage.obj
 0001:00036c10       ?dtor$0@?0??bandunfold@VImage@vips@@QEBA?AV12@PEAVVOption@2@@Z@4HA 0000000180037c10 f   VImage.obj
 0001:00036c10       ?dtor$0@?0??hist_find_ndim@VImage@vips@@QEBA?AV12@PEAVVOption@2@@Z@4HA 0000000180037c10 f   VImage.obj
 0001:00036c10       ?dtor$0@?0??bandmean@VImage@vips@@QEBA?AV12@PEAVVOption@2@@Z@4HA 0000000180037c10 f   VImage.obj
 0001:00036c40       ?dtor$0@?0??linear@VImage@vips@@QEBA?AV12@V?$vector@NV?$allocator@N@std@@@std@@0PEAVVOption@2@@Z@4HA 0000000180037c40 f   VImage.obj
 0001:00036c4c       ?dtor$1@?0??linear@VImage@vips@@QEBA?AV12@V?$vector@NV?$allocator@N@std@@@std@@0PEAVVOption@2@@Z@4HA 0000000180037c4c f   VImage.obj
 0001:00036c58       ?dtor$2@?0??linear@VImage@vips@@QEBA?AV12@V?$vector@NV?$allocator@N@std@@@std@@0PEAVVOption@2@@Z@4HA 0000000180037c58 f   VImage.obj
 0001:00036c81       ?dtor$3@?0??linear@VImage@vips@@QEBA?AV12@V?$vector@NV?$allocator@N@std@@@std@@0PEAVVOption@2@@Z@4HA 0000000180037c81 f   VImage.obj
 0001:00036c8d       ?dtor$4@?0??linear@VImage@vips@@QEBA?AV12@V?$vector@NV?$allocator@N@std@@@std@@0PEAVVOption@2@@Z@4HA 0000000180037c8d f   VImage.obj
 0001:00036ca0       ?dtor$0@?0??gaussblur@VImage@vips@@QEBA?AV12@NPEAVVOption@2@@Z@4HA 0000000180037ca0 f   VImage.obj
 0001:00036ca0       ?dtor$0@?0??math@VImage@vips@@QEBA?AV12@W4VipsOperationMath@@PEAVVOption@2@@Z@4HA 0000000180037ca0 f   VImage.obj
 0001:00036ca0       ?dtor$0@?0??reduce@VImage@vips@@QEBA?AV12@NNPEAVVOption@2@@Z@4HA 0000000180037ca0 f   VImage.obj
 0001:00036ca0       ?dtor$0@?0??reduceh@VImage@vips@@QEBA?AV12@NPEAVVOption@2@@Z@4HA 0000000180037ca0 f   VImage.obj
 0001:00036ca0       ?dtor$0@?0??reducev@VImage@vips@@QEBA?AV12@NPEAVVOption@2@@Z@4HA 0000000180037ca0 f   VImage.obj
 0001:00036ca0       ?dtor$0@?0??resize@VImage@vips@@QEBA?AV12@NPEAVVOption@2@@Z@4HA 0000000180037ca0 f   VImage.obj
 0001:00036ca0       ?dtor$0@?0??rotate@VImage@vips@@QEBA?AV12@NPEAVVOption@2@@Z@4HA 0000000180037ca0 f   VImage.obj
 0001:00036ca0       ?dtor$0@?0??round@VImage@vips@@QEBA?AV12@W4VipsOperationRound@@PEAVVOption@2@@Z@4HA 0000000180037ca0 f   VImage.obj
 0001:00036ca0       ?dtor$0@?0??shrink@VImage@vips@@QEBA?AV12@NNPEAVVOption@2@@Z@4HA 0000000180037ca0 f   VImage.obj
 0001:00036cd0       ?dtor$0@?0??boolean_const@VImage@vips@@QEBA?AV12@W4VipsOperationBoolean@@V?$vector@NV?$allocator@N@std@@@std@@PEAVVOption@2@@Z@4HA 0000000180037cd0 f   VImage.obj
 0001:00036cd0       ?dtor$0@?0??relational_const@VImage@vips@@QEBA?AV12@W4VipsOperationRelational@@V?$vector@NV?$allocator@N@std@@@std@@PEAVVOption@2@@Z@4HA 0000000180037cd0 f   VImage.obj
 0001:00036cd0       ?dtor$0@?0??math2_const@VImage@vips@@QEBA?AV12@W4VipsOperationMath2@@V?$vector@NV?$allocator@N@std@@@std@@PEAVVOption@2@@Z@4HA 0000000180037cd0 f   VImage.obj
 0001:00036cdc       ?dtor$1@?0??relational_const@VImage@vips@@QEBA?AV12@W4VipsOperationRelational@@V?$vector@NV?$allocator@N@std@@@std@@PEAVVOption@2@@Z@4HA 0000000180037cdc f   VImage.obj
 0001:00036cdc       ?dtor$1@?0??boolean_const@VImage@vips@@QEBA?AV12@W4VipsOperationBoolean@@V?$vector@NV?$allocator@N@std@@@std@@PEAVVOption@2@@Z@4HA 0000000180037cdc f   VImage.obj
 0001:00036cdc       ?dtor$1@?0??math2_const@VImage@vips@@QEBA?AV12@W4VipsOperationMath2@@V?$vector@NV?$allocator@N@std@@@std@@PEAVVOption@2@@Z@4HA 0000000180037cdc f   VImage.obj
 0001:00036d05       ?dtor$2@?0??math2_const@VImage@vips@@QEBA?AV12@W4VipsOperationMath2@@V?$vector@NV?$allocator@N@std@@@std@@PEAVVOption@2@@Z@4HA 0000000180037d05 f   VImage.obj
 0001:00036d05       ?dtor$2@?0??relational_const@VImage@vips@@QEBA?AV12@W4VipsOperationRelational@@V?$vector@NV?$allocator@N@std@@@std@@PEAVVOption@2@@Z@4HA 0000000180037d05 f   VImage.obj
 0001:00036d05       ?dtor$2@?0??boolean_const@VImage@vips@@QEBA?AV12@W4VipsOperationBoolean@@V?$vector@NV?$allocator@N@std@@@std@@PEAVVOption@2@@Z@4HA 0000000180037d05 f   VImage.obj
 0001:00036d20       ?dtor$0@?0??remainder_const@VImage@vips@@QEBA?AV12@V?$vector@NV?$allocator@N@std@@@std@@PEAVVOption@2@@Z@4HA 0000000180037d20 f   VImage.obj
 0001:00036d20       ?dtor$0@?0??bandjoin_const@VImage@vips@@QEBA?AV12@V?$vector@NV?$allocator@N@std@@@std@@PEAVVOption@2@@Z@4HA 0000000180037d20 f   VImage.obj
 0001:00036d20       ?dtor$0@?0??affine@VImage@vips@@QEBA?AV12@V?$vector@NV?$allocator@N@std@@@std@@PEAVVOption@2@@Z@4HA 0000000180037d20 f   VImage.obj
 0001:00036d2c       ?dtor$1@?0??remainder_const@VImage@vips@@QEBA?AV12@V?$vector@NV?$allocator@N@std@@@std@@PEAVVOption@2@@Z@4HA 0000000180037d2c f   VImage.obj
 0001:00036d2c       ?dtor$1@?0??bandjoin_const@VImage@vips@@QEBA?AV12@V?$vector@NV?$allocator@N@std@@@std@@PEAVVOption@2@@Z@4HA 0000000180037d2c f   VImage.obj
 0001:00036d2c       ?dtor$1@?0??affine@VImage@vips@@QEBA?AV12@V?$vector@NV?$allocator@N@std@@@std@@PEAVVOption@2@@Z@4HA 0000000180037d2c f   VImage.obj
 0001:00036d55       ?dtor$2@?0??affine@VImage@vips@@QEBA?AV12@V?$vector@NV?$allocator@N@std@@@std@@PEAVVOption@2@@Z@4HA 0000000180037d55 f   VImage.obj
 0001:00036d55       ?dtor$2@?0??bandjoin_const@VImage@vips@@QEBA?AV12@V?$vector@NV?$allocator@N@std@@@std@@PEAVVOption@2@@Z@4HA 0000000180037d55 f   VImage.obj
 0001:00036d55       ?dtor$2@?0??remainder_const@VImage@vips@@QEBA?AV12@V?$vector@NV?$allocator@N@std@@@std@@PEAVVOption@2@@Z@4HA 0000000180037d55 f   VImage.obj
 0001:00036d70       ?dtor$0@?0??colourspace@VImage@vips@@QEBA?AV12@W4VipsInterpretation@@PEAVVOption@2@@Z@4HA 0000000180037d70 f   VImage.obj
 0001:00036d70       ?dtor$0@?0??extract_area@VImage@vips@@QEBA?AV12@HHHHPEAVVOption@2@@Z@4HA 0000000180037d70 f   VImage.obj
 0001:00036d70       ?dtor$0@?0??embed@VImage@vips@@QEBA?AV12@HHHHPEAVVOption@2@@Z@4HA 0000000180037d70 f   VImage.obj
 0001:00036d70       ?dtor$0@?0??extract_band@VImage@vips@@QEBA?AV12@HPEAVVOption@2@@Z@4HA 0000000180037d70 f   VImage.obj
 0001:00036d70       ?dtor$0@?0??cast@VImage@vips@@QEBA?AV12@W4VipsBandFormat@@PEAVVOption@2@@Z@4HA 0000000180037d70 f   VImage.obj
 0001:00036d70       ?dtor$0@?0??complexget@VImage@vips@@QEBA?AV12@W4VipsOperationComplexget@@PEAVVOption@2@@Z@4HA 0000000180037d70 f   VImage.obj
 0001:00036d70       ?dtor$0@?0??thumbnail_image@VImage@vips@@QEBA?AV12@HPEAVVOption@2@@Z@4HA 0000000180037d70 f   VImage.obj
 0001:00036d70       ?dtor$0@?0??rank@VImage@vips@@QEBA?AV12@HHHPEAVVOption@2@@Z@4HA 0000000180037d70 f   VImage.obj
 0001:00036d70       ?dtor$0@?0??project@VImage@vips@@QEBA?AV12@PEAV12@PEAVVOption@2@@Z@4HA 0000000180037d70 f   VImage.obj
 0001:00036d70       ?dtor$0@?0??replicate@VImage@vips@@QEBA?AV12@HHPEAVVOption@2@@Z@4HA 0000000180037d70 f   VImage.obj
 0001:00036d70       ?dtor$0@?0??zoom@VImage@vips@@QEBA?AV12@HHPEAVVOption@2@@Z@4HA 0000000180037d70 f   VImage.obj
 0001:00036d70       ?dtor$0@?0??flip@VImage@vips@@QEBA?AV12@W4VipsDirection@@PEAVVOption@2@@Z@4HA 0000000180037d70 f   VImage.obj
 0001:00036d70       ?dtor$0@?0??subsample@VImage@vips@@QEBA?AV12@HHPEAVVOption@2@@Z@4HA 0000000180037d70 f   VImage.obj
 0001:00036d70       ?dtor$0@?0??complex@VImage@vips@@QEBA?AV12@W4VipsOperationComplex@@PEAVVOption@2@@Z@4HA 0000000180037d70 f   VImage.obj
 0001:00036d70       ?dtor$0@?0??shrinkv@VImage@vips@@QEBA?AV12@HPEAVVOption@2@@Z@4HA 0000000180037d70 f   VImage.obj
 0001:00036d70       ?dtor$0@?0??measure@VImage@vips@@QEBA?AV12@HHPEAVVOption@2@@Z@4HA 0000000180037d70 f   VImage.obj
 0001:00036d70       ?dtor$0@?0??rot@VImage@vips@@QEBA?AV12@W4VipsAngle@@PEAVVOption@2@@Z@4HA 0000000180037d70 f   VImage.obj
 0001:00036d70       ?dtor$0@?0??bandbool@VImage@vips@@QEBA?AV12@W4VipsOperationBoolean@@PEAVVOption@2@@Z@4HA 0000000180037d70 f   VImage.obj
 0001:00036d70       ?dtor$0@?0??gravity@VImage@vips@@QEBA?AV12@W4VipsCompassDirection@@HHPEAVVOption@2@@Z@4HA 0000000180037d70 f   VImage.obj
 0001:00036d70       ?dtor$0@?0??stdif@VImage@vips@@QEBA?AV12@HHPEAVVOption@2@@Z@4HA 0000000180037d70 f   VImage.obj
 0001:00036d70       ?dtor$0@?0??grid@VImage@vips@@QEBA?AV12@HHHPEAVVOption@2@@Z@4HA 0000000180037d70 f   VImage.obj
 0001:00036d70       ?dtor$0@?0??shrinkh@VImage@vips@@QEBA?AV12@HPEAVVOption@2@@Z@4HA 0000000180037d70 f   VImage.obj
 0001:00036d70       ?dtor$0@?0??hist_local@VImage@vips@@QEBA?AV12@HHPEAVVOption@2@@Z@4HA 0000000180037d70 f   VImage.obj
 0001:00036d70       ?dtor$0@?0??profile@VImage@vips@@QEBA?AV12@PEAV12@PEAVVOption@2@@Z@4HA 0000000180037d70 f   VImage.obj
 0001:00036d70       ?dtor$0@?0??icc_transform@VImage@vips@@QEBA?AV12@PEADPEAVVOption@2@@Z@4HA 0000000180037d70 f   VImage.obj
 0001:00036d70       ?dtor$0@?0??smartcrop@VImage@vips@@QEBA?AV12@HHPEAVVOption@2@@Z@4HA 0000000180037d70 f   VImage.obj
 0001:00036da0       ?dtor$0@?0??getpoint@VImage@vips@@QEBA?AV?$vector@NV?$allocator@N@std@@@std@@HHPEAVVOption@2@@Z@4HA 0000000180037da0 f   VImage.obj
 0001:00036dd0       ?dtor$0@?0??ifthenelse@VImage@vips@@QEBA?AV12@V12@0PEAVVOption@2@@Z@4HA 0000000180037dd0 f   VImage.obj
 0001:00036ddc       ?dtor$1@?0??ifthenelse@VImage@vips@@QEBA?AV12@V12@0PEAVVOption@2@@Z@4HA 0000000180037ddc f   VImage.obj
 0001:00036de8       ?dtor$2@?0??ifthenelse@VImage@vips@@QEBA?AV12@V12@0PEAVVOption@2@@Z@4HA 0000000180037de8 f   VImage.obj
 0001:00036e11       ?dtor$3@?0??ifthenelse@VImage@vips@@QEBA?AV12@V12@0PEAVVOption@2@@Z@4HA 0000000180037e11 f   VImage.obj
 0001:00036e1d       ?dtor$4@?0??ifthenelse@VImage@vips@@QEBA?AV12@V12@0PEAVVOption@2@@Z@4HA 0000000180037e1d f   VImage.obj
 0001:00036e30       ?dtor$0@?0??convsep@VImage@vips@@QEBA?AV12@V12@PEAVVOption@2@@Z@4HA 0000000180037e30 f   VImage.obj
 0001:00036e30       ?dtor$0@?0??convi@VImage@vips@@QEBA?AV12@V12@PEAVVOption@2@@Z@4HA 0000000180037e30 f   VImage.obj
 0001:00036e30       ?dtor$0@?0??convf@VImage@vips@@QEBA?AV12@V12@PEAVVOption@2@@Z@4HA 0000000180037e30 f   VImage.obj
 0001:00036e30       ?dtor$0@?0??maplut@VImage@vips@@QEBA?AV12@V12@PEAVVOption@2@@Z@4HA 0000000180037e30 f   VImage.obj
 0001:00036e30       ?dtor$0@?0??convasep@VImage@vips@@QEBA?AV12@V12@PEAVVOption@2@@Z@4HA 0000000180037e30 f   VImage.obj
 0001:00036e30       ?dtor$0@?0??conv@VImage@vips@@QEBA?AV12@V12@PEAVVOption@2@@Z@4HA 0000000180037e30 f   VImage.obj
 0001:00036e30       ?dtor$0@?0??compass@VImage@vips@@QEBA?AV12@V12@PEAVVOption@2@@Z@4HA 0000000180037e30 f   VImage.obj
 0001:00036e30       ?dtor$0@?0??conva@VImage@vips@@QEBA?AV12@V12@PEAVVOption@2@@Z@4HA 0000000180037e30 f   VImage.obj
 0001:00036e30       ?dtor$0@?0??quadratic@VImage@vips@@QEBA?AV12@V12@PEAVVOption@2@@Z@4HA 0000000180037e30 f   VImage.obj
 0001:00036e30       ?dtor$0@?0??mapim@VImage@vips@@QEBA?AV12@V12@PEAVVOption@2@@Z@4HA 0000000180037e30 f   VImage.obj
 0001:00036e30       ?dtor$0@?0??recomb@VImage@vips@@QEBA?AV12@V12@PEAVVOption@2@@Z@4HA 0000000180037e30 f   VImage.obj
 0001:00036e3c       ?dtor$1@?0??maplut@VImage@vips@@QEBA?AV12@V12@PEAVVOption@2@@Z@4HA 0000000180037e3c f   VImage.obj
 0001:00036e3c       ?dtor$1@?0??mapim@VImage@vips@@QEBA?AV12@V12@PEAVVOption@2@@Z@4HA 0000000180037e3c f   VImage.obj
 0001:00036e3c       ?dtor$1@?0??recomb@VImage@vips@@QEBA?AV12@V12@PEAVVOption@2@@Z@4HA 0000000180037e3c f   VImage.obj
 0001:00036e3c       ?dtor$1@?0??compass@VImage@vips@@QEBA?AV12@V12@PEAVVOption@2@@Z@4HA 0000000180037e3c f   VImage.obj
 0001:00036e3c       ?dtor$1@?0??convsep@VImage@vips@@QEBA?AV12@V12@PEAVVOption@2@@Z@4HA 0000000180037e3c f   VImage.obj
 0001:00036e3c       ?dtor$1@?0??convi@VImage@vips@@QEBA?AV12@V12@PEAVVOption@2@@Z@4HA 0000000180037e3c f   VImage.obj
 0001:00036e3c       ?dtor$1@?0??convf@VImage@vips@@QEBA?AV12@V12@PEAVVOption@2@@Z@4HA 0000000180037e3c f   VImage.obj
 0001:00036e3c       ?dtor$1@?0??convasep@VImage@vips@@QEBA?AV12@V12@PEAVVOption@2@@Z@4HA 0000000180037e3c f   VImage.obj
 0001:00036e3c       ?dtor$1@?0??conva@VImage@vips@@QEBA?AV12@V12@PEAVVOption@2@@Z@4HA 0000000180037e3c f   VImage.obj
 0001:00036e3c       ?dtor$1@?0??conv@VImage@vips@@QEBA?AV12@V12@PEAVVOption@2@@Z@4HA 0000000180037e3c f   VImage.obj
 0001:00036e3c       ?dtor$1@?0??quadratic@VImage@vips@@QEBA?AV12@V12@PEAVVOption@2@@Z@4HA 0000000180037e3c f   VImage.obj
 0001:00036e65       ?dtor$2@?0??quadratic@VImage@vips@@QEBA?AV12@V12@PEAVVOption@2@@Z@4HA 0000000180037e65 f   VImage.obj
 0001:00036e65       ?dtor$2@?0??maplut@VImage@vips@@QEBA?AV12@V12@PEAVVOption@2@@Z@4HA 0000000180037e65 f   VImage.obj
 0001:00036e65       ?dtor$2@?0??conva@VImage@vips@@QEBA?AV12@V12@PEAVVOption@2@@Z@4HA 0000000180037e65 f   VImage.obj
 0001:00036e65       ?dtor$2@?0??mapim@VImage@vips@@QEBA?AV12@V12@PEAVVOption@2@@Z@4HA 0000000180037e65 f   VImage.obj
 0001:00036e65       ?dtor$2@?0??compass@VImage@vips@@QEBA?AV12@V12@PEAVVOption@2@@Z@4HA 0000000180037e65 f   VImage.obj
 0001:00036e65       ?dtor$2@?0??convsep@VImage@vips@@QEBA?AV12@V12@PEAVVOption@2@@Z@4HA 0000000180037e65 f   VImage.obj
 0001:00036e65       ?dtor$2@?0??convi@VImage@vips@@QEBA?AV12@V12@PEAVVOption@2@@Z@4HA 0000000180037e65 f   VImage.obj
 0001:00036e65       ?dtor$2@?0??convf@VImage@vips@@QEBA?AV12@V12@PEAVVOption@2@@Z@4HA 0000000180037e65 f   VImage.obj
 0001:00036e65       ?dtor$2@?0??convasep@VImage@vips@@QEBA?AV12@V12@PEAVVOption@2@@Z@4HA 0000000180037e65 f   VImage.obj
 0001:00036e65       ?dtor$2@?0??conv@VImage@vips@@QEBA?AV12@V12@PEAVVOption@2@@Z@4HA 0000000180037e65 f   VImage.obj
 0001:00036e65       ?dtor$2@?0??recomb@VImage@vips@@QEBA?AV12@V12@PEAVVOption@2@@Z@4HA 0000000180037e65 f   VImage.obj
 0001:00036e80       ?dtor$0@?0??composite@VImage@vips@@SA?AV12@V?$vector@VVImage@vips@@V?$allocator@VVImage@vips@@@std@@@std@@V?$vector@HV?$allocator@H@std@@@4@PEAVVOption@2@@Z@4HA 0000000180037e80 f   VImage.obj
 0001:00036e8c       ?dtor$1@?0??composite@VImage@vips@@SA?AV12@V?$vector@VVImage@vips@@V?$allocator@VVImage@vips@@@std@@@std@@V?$vector@HV?$allocator@H@std@@@4@PEAVVOption@2@@Z@4HA 0000000180037e8c f   VImage.obj
 0001:00036e98       ?dtor$2@?0??composite@VImage@vips@@SA?AV12@V?$vector@VVImage@vips@@V?$allocator@VVImage@vips@@@std@@@std@@V?$vector@HV?$allocator@H@std@@@4@PEAVVOption@2@@Z@4HA 0000000180037e98 f   VImage.obj
 0001:00036ec1       ?dtor$3@?0??composite@VImage@vips@@SA?AV12@V?$vector@VVImage@vips@@V?$allocator@VVImage@vips@@@std@@@std@@V?$vector@HV?$allocator@H@std@@@4@PEAVVOption@2@@Z@4HA 0000000180037ec1 f   VImage.obj
 0001:00036ed0       ?dtor$0@?0??sines@VImage@vips@@SA?AV12@HHPEAVVOption@2@@Z@4HA 0000000180037ed0 f   VImage.obj
 0001:00036ed0       ?dtor$0@?0??perlin@VImage@vips@@SA?AV12@HHPEAVVOption@2@@Z@4HA 0000000180037ed0 f   VImage.obj
 0001:00036ed0       ?dtor$0@?0??eye@VImage@vips@@SA?AV12@HHPEAVVOption@2@@Z@4HA 0000000180037ed0 f   VImage.obj
 0001:00036ed0       ?dtor$0@?0??grey@VImage@vips@@SA?AV12@HHPEAVVOption@2@@Z@4HA 0000000180037ed0 f   VImage.obj
 0001:00036ed0       ?dtor$0@?0??worley@VImage@vips@@SA?AV12@HHPEAVVOption@2@@Z@4HA 0000000180037ed0 f   VImage.obj
 0001:00036ed0       ?dtor$0@?0??text@VImage@vips@@SA?AV12@PEADPEAVVOption@2@@Z@4HA 0000000180037ed0 f   VImage.obj
 0001:00036ed0       ?dtor$0@?0??xyz@VImage@vips@@SA?AV12@HHPEAVVOption@2@@Z@4HA 0000000180037ed0 f   VImage.obj
 0001:00036ed0       ?dtor$0@?0??gaussnoise@VImage@vips@@SA?AV12@HHPEAVVOption@2@@Z@4HA 0000000180037ed0 f   VImage.obj
 0001:00036ed0       ?dtor$0@?0??black@VImage@vips@@SA?AV12@HHPEAVVOption@2@@Z@4HA 0000000180037ed0 f   VImage.obj
 0001:00036ed0       ?dtor$0@?0??thumbnail@VImage@vips@@SA?AV12@PEADHPEAVVOption@2@@Z@4HA 0000000180037ed0 f   VImage.obj
 0001:00036ed0       ?dtor$0@?0??thumbnail_buffer@VImage@vips@@SA?AV12@PEAU_VipsBlob@@HPEAVVOption@2@@Z@4HA 0000000180037ed0 f   VImage.obj
 0001:00036ed0       ?dtor$0@?0??rawload@VImage@vips@@SA?AV12@PEADHHHPEAVVOption@2@@Z@4HA 0000000180037ed0 f   VImage.obj
 0001:00036ed0       ?dtor$0@?0??zone@VImage@vips@@SA?AV12@HHPEAVVOption@2@@Z@4HA 0000000180037ed0 f   VImage.obj
 0001:00036f00       ?dtor$0@?0??mask_butterworth@VImage@vips@@SA?AV12@HHNNNPEAVVOption@2@@Z@4HA 0000000180037f00 f   VImage.obj
 0001:00036f00       ?dtor$0@?0??gaussmat@VImage@vips@@SA?AV12@NNPEAVVOption@2@@Z@4HA 0000000180037f00 f   VImage.obj
 0001:00036f00       ?dtor$0@?0??mask_ideal_ring@VImage@vips@@SA?AV12@HHNNPEAVVOption@2@@Z@4HA 0000000180037f00 f   VImage.obj
 0001:00036f00       ?dtor$0@?0??fractsurf@VImage@vips@@SA?AV12@HHNPEAVVOption@2@@Z@4HA 0000000180037f00 f   VImage.obj
 0001:00036f00       ?dtor$0@?0??mask_ideal_band@VImage@vips@@SA?AV12@HHNNNPEAVVOption@2@@Z@4HA 0000000180037f00 f   VImage.obj
 0001:00036f00       ?dtor$0@?0??logmat@VImage@vips@@SA?AV12@NNPEAVVOption@2@@Z@4HA 0000000180037f00 f   VImage.obj
 0001:00036f00       ?dtor$0@?0??mask_ideal@VImage@vips@@SA?AV12@HHNPEAVVOption@2@@Z@4HA 0000000180037f00 f   VImage.obj
 0001:00036f00       ?dtor$0@?0??mask_gaussian_ring@VImage@vips@@SA?AV12@HHNNNPEAVVOption@2@@Z@4HA 0000000180037f00 f   VImage.obj
 0001:00036f00       ?dtor$0@?0??mask_butterworth_ring@VImage@vips@@SA?AV12@HHNNNNPEAVVOption@2@@Z@4HA 0000000180037f00 f   VImage.obj
 0001:00036f00       ?dtor$0@?0??mask_fractal@VImage@vips@@SA?AV12@HHNPEAVVOption@2@@Z@4HA 0000000180037f00 f   VImage.obj
 0001:00036f00       ?dtor$0@?0??mask_gaussian_band@VImage@vips@@SA?AV12@HHNNNNPEAVVOption@2@@Z@4HA 0000000180037f00 f   VImage.obj
 0001:00036f00       ?dtor$0@?0??mask_gaussian@VImage@vips@@SA?AV12@HHNNPEAVVOption@2@@Z@4HA 0000000180037f00 f   VImage.obj
 0001:00036f00       ?dtor$0@?0??mask_butterworth_band@VImage@vips@@SA?AV12@HHNNNNNPEAVVOption@2@@Z@4HA 0000000180037f00 f   VImage.obj
 0001:00036f30       ?dtor$0@?0??identity@VImage@vips@@SA?AV12@PEAVVOption@2@@Z@4HA 0000000180037f30 f   VImage.obj
 0001:00036f30       ?dtor$0@?0??tonelut@VImage@vips@@SA?AV12@PEAVVOption@2@@Z@4HA 0000000180037f30 f   VImage.obj
 0001:00036f60       ?dtor$0@?0??ppmload@VImage@vips@@SA?AV12@PEADPEAVVOption@2@@Z@4HA 0000000180037f60 f   VImage.obj
 0001:00036f60       ?dtor$0@?0??jpegload_buffer@VImage@vips@@SA?AV12@PEAU_VipsBlob@@PEAVVOption@2@@Z@4HA 0000000180037f60 f   VImage.obj
 0001:00036f60       ?dtor$0@?0??pngload_buffer@VImage@vips@@SA?AV12@PEAU_VipsBlob@@PEAVVOption@2@@Z@4HA 0000000180037f60 f   VImage.obj
 0001:00036f60       ?dtor$0@?0??pngload@VImage@vips@@SA?AV12@PEADPEAVVOption@2@@Z@4HA 0000000180037f60 f   VImage.obj
 0001:00036f60       ?dtor$0@?0??svgload@VImage@vips@@SA?AV12@PEADPEAVVOption@2@@Z@4HA 0000000180037f60 f   VImage.obj
 0001:00036f60       ?dtor$0@?0??pdfload_buffer@VImage@vips@@SA?AV12@PEAU_VipsBlob@@PEAVVOption@2@@Z@4HA 0000000180037f60 f   VImage.obj
 0001:00036f60       ?dtor$0@?0??jpegload@VImage@vips@@SA?AV12@PEADPEAVVOption@2@@Z@4HA 0000000180037f60 f   VImage.obj
 0001:00036f60       ?dtor$0@?0??svgload_buffer@VImage@vips@@SA?AV12@PEAU_VipsBlob@@PEAVVOption@2@@Z@4HA 0000000180037f60 f   VImage.obj
 0001:00036f60       ?dtor$0@?0??pdfload@VImage@vips@@SA?AV12@PEADPEAVVOption@2@@Z@4HA 0000000180037f60 f   VImage.obj
 0001:00036f60       ?dtor$0@?0??openslideload@VImage@vips@@SA?AV12@PEADPEAVVOption@2@@Z@4HA 0000000180037f60 f   VImage.obj
 0001:00036f60       ?dtor$0@?0??analyzeload@VImage@vips@@SA?AV12@PEADPEAVVOption@2@@Z@4HA 0000000180037f60 f   VImage.obj
 0001:00036f60       ?dtor$0@?0??gifload_buffer@VImage@vips@@SA?AV12@PEAU_VipsBlob@@PEAVVOption@2@@Z@4HA 0000000180037f60 f   VImage.obj
 0001:00036f60       ?dtor$0@?0??openexrload@VImage@vips@@SA?AV12@PEADPEAVVOption@2@@Z@4HA 0000000180037f60 f   VImage.obj
 0001:00036f60       ?dtor$0@?0??matrixload@VImage@vips@@SA?AV12@PEADPEAVVOption@2@@Z@4HA 0000000180037f60 f   VImage.obj
 0001:00036f60       ?dtor$0@?0??tiffload@VImage@vips@@SA?AV12@PEADPEAVVOption@2@@Z@4HA 0000000180037f60 f   VImage.obj
 0001:00036f60       ?dtor$0@?0??matload@VImage@vips@@SA?AV12@PEADPEAVVOption@2@@Z@4HA 0000000180037f60 f   VImage.obj
 0001:00036f60       ?dtor$0@?0??gifload@VImage@vips@@SA?AV12@PEADPEAVVOption@2@@Z@4HA 0000000180037f60 f   VImage.obj
 0001:00036f60       ?dtor$0@?0??radload@VImage@vips@@SA?AV12@PEADPEAVVOption@2@@Z@4HA 0000000180037f60 f   VImage.obj
 0001:00036f60       ?dtor$0@?0??vipsload@VImage@vips@@SA?AV12@PEADPEAVVOption@2@@Z@4HA 0000000180037f60 f   VImage.obj
 0001:00036f60       ?dtor$0@?0??webpload@VImage@vips@@SA?AV12@PEADPEAVVOption@2@@Z@4HA 0000000180037f60 f   VImage.obj
 0001:00036f60       ?dtor$0@?0??webpload_buffer@VImage@vips@@SA?AV12@PEAU_VipsBlob@@PEAVVOption@2@@Z@4HA 0000000180037f60 f   VImage.obj
 0001:00036f60       ?dtor$0@?0??fitsload@VImage@vips@@SA?AV12@PEADPEAVVOption@2@@Z@4HA 0000000180037f60 f   VImage.obj
 0001:00036f60       ?dtor$0@?0??csvload@VImage@vips@@SA?AV12@PEADPEAVVOption@2@@Z@4HA 0000000180037f60 f   VImage.obj
 0001:00036f60       ?dtor$0@?0??tiffload_buffer@VImage@vips@@SA?AV12@PEAU_VipsBlob@@PEAVVOption@2@@Z@4HA 0000000180037f60 f   VImage.obj
 0001:00036f60       ?dtor$0@?0??magickload_buffer@VImage@vips@@SA?AV12@PEAU_VipsBlob@@PEAVVOption@2@@Z@4HA 0000000180037f60 f   VImage.obj
 0001:00036f60       ?dtor$0@?0??magickload@VImage@vips@@SA?AV12@PEADPEAVVOption@2@@Z@4HA 0000000180037f60 f   VImage.obj
 0001:00036f90       ?dtor$0@?0??draw_circle@VImage@vips@@QEBAXV?$vector@NV?$allocator@N@std@@@std@@HHHPEAVVOption@2@@Z@4HA 0000000180037f90 f   VImage.obj
 0001:00036f90       ?dtor$0@?0??draw_flood@VImage@vips@@QEBAXV?$vector@NV?$allocator@N@std@@@std@@HHPEAVVOption@2@@Z@4HA 0000000180037f90 f   VImage.obj
 0001:00036f90       ?dtor$0@?0??draw_line@VImage@vips@@QEBAXV?$vector@NV?$allocator@N@std@@@std@@HHHHPEAVVOption@2@@Z@4HA 0000000180037f90 f   VImage.obj
 0001:00036f90       ?dtor$0@?0??draw_rect@VImage@vips@@QEBAXV?$vector@NV?$allocator@N@std@@@std@@HHHHPEAVVOption@2@@Z@4HA 0000000180037f90 f   VImage.obj
 0001:00036f9c       ?dtor$1@?0??draw_line@VImage@vips@@QEBAXV?$vector@NV?$allocator@N@std@@@std@@HHHHPEAVVOption@2@@Z@4HA 0000000180037f9c f   VImage.obj
 0001:00036f9c       ?dtor$1@?0??draw_rect@VImage@vips@@QEBAXV?$vector@NV?$allocator@N@std@@@std@@HHHHPEAVVOption@2@@Z@4HA 0000000180037f9c f   VImage.obj
 0001:00036f9c       ?dtor$1@?0??draw_flood@VImage@vips@@QEBAXV?$vector@NV?$allocator@N@std@@@std@@HHPEAVVOption@2@@Z@4HA 0000000180037f9c f   VImage.obj
 0001:00036f9c       ?dtor$1@?0??draw_circle@VImage@vips@@QEBAXV?$vector@NV?$allocator@N@std@@@std@@HHHPEAVVOption@2@@Z@4HA 0000000180037f9c f   VImage.obj
 0001:00036fb0       ?dtor$0@?0??draw_mask@VImage@vips@@QEBAXV?$vector@NV?$allocator@N@std@@@std@@V12@HHPEAVVOption@2@@Z@4HA 0000000180037fb0 f   VImage.obj
 0001:00036fbc       ?dtor$1@?0??draw_mask@VImage@vips@@QEBAXV?$vector@NV?$allocator@N@std@@@std@@V12@HHPEAVVOption@2@@Z@4HA 0000000180037fbc f   VImage.obj
 0001:00036fc8       ?dtor$2@?0??draw_mask@VImage@vips@@QEBAXV?$vector@NV?$allocator@N@std@@@std@@V12@HHPEAVVOption@2@@Z@4HA 0000000180037fc8 f   VImage.obj
 0001:00036fd4       ?dtor$3@?0??draw_mask@VImage@vips@@QEBAXV?$vector@NV?$allocator@N@std@@@std@@V12@HHPEAVVOption@2@@Z@4HA 0000000180037fd4 f   VImage.obj
 0001:00036fe0       ?dtor$0@?0??draw_image@VImage@vips@@QEBAXV12@HHPEAVVOption@2@@Z@4HA 0000000180037fe0 f   VImage.obj
 0001:00036fec       ?dtor$1@?0??draw_image@VImage@vips@@QEBAXV12@HHPEAVVOption@2@@Z@4HA 0000000180037fec f   VImage.obj
 0001:00037000       ?dtor$0@?0??bandsplit@VImage@vips@@QEBA?AV?$vector@VVImage@vips@@V?$allocator@VVImage@vips@@@std@@@std@@PEAVVOption@2@@Z@4HA 0000000180038000 f   VImage.obj
 0001:00037026       ?dtor$1@?0??bandsplit@VImage@vips@@QEBA?AV?$vector@VVImage@vips@@V?$allocator@VVImage@vips@@@std@@@std@@PEAVVOption@2@@Z@4HA 0000000180038026 f   VImage.obj
 0001:00037040       ?dtor$0@?0??bandjoin@VImage@vips@@QEBA?AV12@V12@PEAVVOption@2@@Z@4HA 0000000180038040 f   VImage.obj
 0001:0003704c       ?dtor$3@?0??bandjoin@VImage@vips@@QEBA?AV12@V12@PEAVVOption@2@@Z@4HA 000000018003804c f   VImage.obj
 0001:00037076       ?dtor$4@?0??bandjoin@VImage@vips@@QEBA?AV12@V12@PEAVVOption@2@@Z@4HA 0000000180038076 f   VImage.obj
 0001:00037082       ?dtor$6@?0??bandjoin@VImage@vips@@QEBA?AV12@V12@PEAVVOption@2@@Z@4HA 0000000180038082 f   VImage.obj
 0001:000370b0       ?dtor$0@?0??composite@VImage@vips@@QEBA?AV12@V12@W4VipsBlendMode@@PEAVVOption@2@@Z@4HA 00000001800380b0 f   VImage.obj
 0001:000370bc       ?dtor$3@?0??composite@VImage@vips@@QEBA?AV12@V12@W4VipsBlendMode@@PEAVVOption@2@@Z@4HA 00000001800380bc f   VImage.obj
 0001:000370e6       ?dtor$4@?0??composite@VImage@vips@@QEBA?AV12@V12@W4VipsBlendMode@@PEAVVOption@2@@Z@4HA 00000001800380e6 f   VImage.obj
 0001:000370f2       ?dtor$5@?0??composite@VImage@vips@@QEBA?AV12@V12@W4VipsBlendMode@@PEAVVOption@2@@Z@4HA 00000001800380f2 f   VImage.obj
 0001:000370fe       ?dtor$6@?0??composite@VImage@vips@@QEBA?AV12@V12@W4VipsBlendMode@@PEAVVOption@2@@Z@4HA 00000001800380fe f   VImage.obj
 0001:0003710a       ?dtor$8@?0??composite@VImage@vips@@QEBA?AV12@V12@W4VipsBlendMode@@PEAVVOption@2@@Z@4HA 000000018003810a f   VImage.obj
 0001:00037140       ?dtor$0@?0???Nvips@@YA?AVVImage@0@V10@0@Z@4HA 0000000180038140 f   VImage.obj
 0001:00037140       ?dtor$0@?0???8vips@@YA?AVVImage@0@V10@0@Z@4HA 0000000180038140 f   VImage.obj
 0001:00037140       ?dtor$0@?0???Mvips@@YA?AVVImage@0@V10@0@Z@4HA 0000000180038140 f   VImage.obj
 0001:00037140       ?dtor$0@?0???Ovips@@YA?AVVImage@0@V10@0@Z@4HA 0000000180038140 f   VImage.obj
 0001:00037140       ?dtor$0@?0???9vips@@YA?AVVImage@0@V10@0@Z@4HA 0000000180038140 f   VImage.obj
 0001:00037140       ?dtor$0@?0???6vips@@YA?AVVImage@0@V10@0@Z@4HA 0000000180038140 f   VImage.obj
 0001:00037140       ?dtor$0@?0???Hvips@@YA?AVVImage@0@V10@0@Z@4HA 0000000180038140 f   VImage.obj
 0001:00037140       ?dtor$0@?0???Gvips@@YA?AVVImage@0@V10@0@Z@4HA 0000000180038140 f   VImage.obj
 0001:00037140       ?dtor$0@?0???Lvips@@YA?AVVImage@0@V10@0@Z@4HA 0000000180038140 f   VImage.obj
 0001:00037140       ?dtor$0@?0???Uvips@@YA?AVVImage@0@V10@0@Z@4HA 0000000180038140 f   VImage.obj
 0001:00037140       ?dtor$0@?0???Dvips@@YA?AVVImage@0@V10@0@Z@4HA 0000000180038140 f   VImage.obj
 0001:00037140       ?dtor$0@?0???5vips@@YA?AVVImage@0@V10@0@Z@4HA 0000000180038140 f   VImage.obj
 0001:00037140       ?dtor$0@?0???Ivips@@YA?AVVImage@0@V10@0@Z@4HA 0000000180038140 f   VImage.obj
 0001:00037140       ?dtor$0@?0???Tvips@@YA?AVVImage@0@V10@0@Z@4HA 0000000180038140 f   VImage.obj
 0001:00037140       ?dtor$0@?0???Kvips@@YA?AVVImage@0@V10@0@Z@4HA 0000000180038140 f   VImage.obj
 0001:00037140       ?dtor$0@?0???Pvips@@YA?AVVImage@0@V10@0@Z@4HA 0000000180038140 f   VImage.obj
 0001:0003714c       ?dtor$1@?0???Gvips@@YA?AVVImage@0@V10@0@Z@4HA 000000018003814c f   VImage.obj
 0001:0003714c       ?dtor$1@?0???Nvips@@YA?AVVImage@0@V10@0@Z@4HA 000000018003814c f   VImage.obj
 0001:0003714c       ?dtor$1@?0???Uvips@@YA?AVVImage@0@V10@0@Z@4HA 000000018003814c f   VImage.obj
 0001:0003714c       ?dtor$1@?0???Dvips@@YA?AVVImage@0@V10@0@Z@4HA 000000018003814c f   VImage.obj
 0001:0003714c       ?dtor$1@?0???8vips@@YA?AVVImage@0@V10@0@Z@4HA 000000018003814c f   VImage.obj
 0001:0003714c       ?dtor$1@?0???Pvips@@YA?AVVImage@0@V10@0@Z@4HA 000000018003814c f   VImage.obj
 0001:0003714c       ?dtor$1@?0???Ovips@@YA?AVVImage@0@V10@0@Z@4HA 000000018003814c f   VImage.obj
 0001:0003714c       ?dtor$1@?0???Ivips@@YA?AVVImage@0@V10@0@Z@4HA 000000018003814c f   VImage.obj
 0001:0003714c       ?dtor$1@?0???9vips@@YA?AVVImage@0@V10@0@Z@4HA 000000018003814c f   VImage.obj
 0001:0003714c       ?dtor$1@?0???Lvips@@YA?AVVImage@0@V10@0@Z@4HA 000000018003814c f   VImage.obj
 0001:0003714c       ?dtor$1@?0???Tvips@@YA?AVVImage@0@V10@0@Z@4HA 000000018003814c f   VImage.obj
 0001:0003714c       ?dtor$1@?0???Kvips@@YA?AVVImage@0@V10@0@Z@4HA 000000018003814c f   VImage.obj
 0001:0003714c       ?dtor$1@?0???6vips@@YA?AVVImage@0@V10@0@Z@4HA 000000018003814c f   VImage.obj
 0001:0003714c       ?dtor$1@?0???5vips@@YA?AVVImage@0@V10@0@Z@4HA 000000018003814c f   VImage.obj
 0001:0003714c       ?dtor$1@?0???Mvips@@YA?AVVImage@0@V10@0@Z@4HA 000000018003814c f   VImage.obj
 0001:0003714c       ?dtor$1@?0???Hvips@@YA?AVVImage@0@V10@0@Z@4HA 000000018003814c f   VImage.obj
 0001:00037160       ?dtor$0@?0???Dvips@@YA?AVVImage@0@NV10@@Z@4HA 0000000180038160 f   VImage.obj
 0001:00037160       ?dtor$0@?0???Gvips@@YA?AVVImage@0@NV10@@Z@4HA 0000000180038160 f   VImage.obj
 0001:00037160       ?dtor$0@?0???Hvips@@YA?AVVImage@0@NV10@@Z@4HA 0000000180038160 f   VImage.obj
 0001:00037170       ?dtor$0@?0???Hvips@@YA?AVVImage@0@V10@N@Z@4HA 0000000180038170 f   VImage.obj
 0001:00037170       ?dtor$0@?0???Gvips@@YA?AVVImage@0@V10@@Z@4HA 0000000180038170 f   VImage.obj
 0001:00037170       ?dtor$0@?0???Gvips@@YA?AVVImage@0@V10@N@Z@4HA 0000000180038170 f   VImage.obj
 0001:00037170       ?dtor$0@?0???Dvips@@YA?AVVImage@0@V10@N@Z@4HA 0000000180038170 f   VImage.obj
 0001:00037170       ?dtor$0@?0???Kvips@@YA?AVVImage@0@V10@N@Z@4HA 0000000180038170 f   VImage.obj
 0001:00037180       ?dtor$0@?0???Tvips@@YA?AVVImage@0@V?$vector@NV?$allocator@N@std@@@std@@V10@@Z@4HA 0000000180038180 f   VImage.obj
 0001:00037180       ?dtor$0@?0???Ovips@@YA?AVVImage@0@V?$vector@NV?$allocator@N@std@@@std@@V10@@Z@4HA 0000000180038180 f   VImage.obj
 0001:00037180       ?dtor$0@?0???Uvips@@YA?AVVImage@0@V?$vector@NV?$allocator@N@std@@@std@@V10@@Z@4HA 0000000180038180 f   VImage.obj
 0001:00037180       ?dtor$0@?0???Hvips@@YA?AVVImage@0@V?$vector@NV?$allocator@N@std@@@std@@V10@@Z@4HA 0000000180038180 f   VImage.obj
 0001:00037180       ?dtor$0@?0???Pvips@@YA?AVVImage@0@V?$vector@NV?$allocator@N@std@@@std@@V10@@Z@4HA 0000000180038180 f   VImage.obj
 0001:00037180       ?dtor$0@?0???9vips@@YA?AVVImage@0@V?$vector@NV?$allocator@N@std@@@std@@V10@@Z@4HA 0000000180038180 f   VImage.obj
 0001:00037180       ?dtor$0@?0???Mvips@@YA?AVVImage@0@V?$vector@NV?$allocator@N@std@@@std@@V10@@Z@4HA 0000000180038180 f   VImage.obj
 0001:00037180       ?dtor$0@?0???Nvips@@YA?AVVImage@0@V?$vector@NV?$allocator@N@std@@@std@@V10@@Z@4HA 0000000180038180 f   VImage.obj
 0001:00037180       ?dtor$0@?0???8vips@@YA?AVVImage@0@V?$vector@NV?$allocator@N@std@@@std@@V10@@Z@4HA 0000000180038180 f   VImage.obj
 0001:00037180       ?dtor$0@?0???Dvips@@YA?AVVImage@0@V?$vector@NV?$allocator@N@std@@@std@@V10@@Z@4HA 0000000180038180 f   VImage.obj
 0001:00037180       ?dtor$0@?0???Ivips@@YA?AVVImage@0@V?$vector@NV?$allocator@N@std@@@std@@V10@@Z@4HA 0000000180038180 f   VImage.obj
 0001:00037180       ?dtor$0@?0???Gvips@@YA?AVVImage@0@V?$vector@NV?$allocator@N@std@@@std@@V10@@Z@4HA 0000000180038180 f   VImage.obj
 0001:0003718c       ?dtor$1@?0???Ovips@@YA?AVVImage@0@V?$vector@NV?$allocator@N@std@@@std@@V10@@Z@4HA 000000018003818c f   VImage.obj
 0001:0003718c       ?dtor$1@?0???Ivips@@YA?AVVImage@0@V?$vector@NV?$allocator@N@std@@@std@@V10@@Z@4HA 000000018003818c f   VImage.obj
 0001:0003718c       ?dtor$1@?0???Tvips@@YA?AVVImage@0@V?$vector@NV?$allocator@N@std@@@std@@V10@@Z@4HA 000000018003818c f   VImage.obj
 0001:0003718c       ?dtor$1@?0???Nvips@@YA?AVVImage@0@V?$vector@NV?$allocator@N@std@@@std@@V10@@Z@4HA 000000018003818c f   VImage.obj
 0001:0003718c       ?dtor$1@?0???Hvips@@YA?AVVImage@0@V?$vector@NV?$allocator@N@std@@@std@@V10@@Z@4HA 000000018003818c f   VImage.obj
 0001:0003718c       ?dtor$1@?0???Gvips@@YA?AVVImage@0@V?$vector@NV?$allocator@N@std@@@std@@V10@@Z@4HA 000000018003818c f   VImage.obj
 0001:0003718c       ?dtor$1@?0???Pvips@@YA?AVVImage@0@V?$vector@NV?$allocator@N@std@@@std@@V10@@Z@4HA 000000018003818c f   VImage.obj
 0001:0003718c       ?dtor$1@?0???Dvips@@YA?AVVImage@0@V?$vector@NV?$allocator@N@std@@@std@@V10@@Z@4HA 000000018003818c f   VImage.obj
 0001:0003718c       ?dtor$1@?0???9vips@@YA?AVVImage@0@V?$vector@NV?$allocator@N@std@@@std@@V10@@Z@4HA 000000018003818c f   VImage.obj
 0001:0003718c       ?dtor$1@?0???Mvips@@YA?AVVImage@0@V?$vector@NV?$allocator@N@std@@@std@@V10@@Z@4HA 000000018003818c f   VImage.obj
 0001:0003718c       ?dtor$1@?0???8vips@@YA?AVVImage@0@V?$vector@NV?$allocator@N@std@@@std@@V10@@Z@4HA 000000018003818c f   VImage.obj
 0001:0003718c       ?dtor$1@?0???Uvips@@YA?AVVImage@0@V?$vector@NV?$allocator@N@std@@@std@@V10@@Z@4HA 000000018003818c f   VImage.obj
 0001:000371a0       ?dtor$0@?0???6vips@@YA?AVVImage@0@V10@V?$vector@NV?$allocator@N@std@@@std@@@Z@4HA 00000001800381a0 f   VImage.obj
 0001:000371a0       ?dtor$0@?0???5vips@@YA?AVVImage@0@V10@V?$vector@NV?$allocator@N@std@@@std@@@Z@4HA 00000001800381a0 f   VImage.obj
 0001:000371a0       ?dtor$0@?0???Tvips@@YA?AVVImage@0@V10@V?$vector@NV?$allocator@N@std@@@std@@@Z@4HA 00000001800381a0 f   VImage.obj
 0001:000371a0       ?dtor$0@?0???Pvips@@YA?AVVImage@0@V10@V?$vector@NV?$allocator@N@std@@@std@@@Z@4HA 00000001800381a0 f   VImage.obj
 0001:000371a0       ?dtor$0@?0???Ovips@@YA?AVVImage@0@V10@V?$vector@NV?$allocator@N@std@@@std@@@Z@4HA 00000001800381a0 f   VImage.obj
 0001:000371a0       ?dtor$0@?0???Dvips@@YA?AVVImage@0@V10@V?$vector@NV?$allocator@N@std@@@std@@@Z@4HA 00000001800381a0 f   VImage.obj
 0001:000371a0       ?dtor$0@?0???Hvips@@YA?AVVImage@0@V10@V?$vector@NV?$allocator@N@std@@@std@@@Z@4HA 00000001800381a0 f   VImage.obj
 0001:000371a0       ?dtor$0@?0???8vips@@YA?AVVImage@0@V10@V?$vector@NV?$allocator@N@std@@@std@@@Z@4HA 00000001800381a0 f   VImage.obj
 0001:000371a0       ?dtor$0@?0???Nvips@@YA?AVVImage@0@V10@V?$vector@NV?$allocator@N@std@@@std@@@Z@4HA 00000001800381a0 f   VImage.obj
 0001:000371a0       ?dtor$0@?0???Ivips@@YA?AVVImage@0@V10@V?$vector@NV?$allocator@N@std@@@std@@@Z@4HA 00000001800381a0 f   VImage.obj
 0001:000371a0       ?dtor$0@?0???Mvips@@YA?AVVImage@0@V10@V?$vector@NV?$allocator@N@std@@@std@@@Z@4HA 00000001800381a0 f   VImage.obj
 0001:000371a0       ?dtor$0@?0???Uvips@@YA?AVVImage@0@V10@V?$vector@NV?$allocator@N@std@@@std@@@Z@4HA 00000001800381a0 f   VImage.obj
 0001:000371a0       ?dtor$0@?0???Lvips@@YA?AVVImage@0@V10@V?$vector@NV?$allocator@N@std@@@std@@@Z@4HA 00000001800381a0 f   VImage.obj
 0001:000371a0       ?dtor$0@?0???9vips@@YA?AVVImage@0@V10@V?$vector@NV?$allocator@N@std@@@std@@@Z@4HA 00000001800381a0 f   VImage.obj
 0001:000371ac       ?dtor$1@?0???Uvips@@YA?AVVImage@0@V10@V?$vector@NV?$allocator@N@std@@@std@@@Z@4HA 00000001800381ac f   VImage.obj
 0001:000371ac       ?dtor$1@?0???Pvips@@YA?AVVImage@0@V10@V?$vector@NV?$allocator@N@std@@@std@@@Z@4HA 00000001800381ac f   VImage.obj
 0001:000371ac       ?dtor$1@?0???Dvips@@YA?AVVImage@0@V10@V?$vector@NV?$allocator@N@std@@@std@@@Z@4HA 00000001800381ac f   VImage.obj
 0001:000371ac       ?dtor$1@?0???9vips@@YA?AVVImage@0@V10@V?$vector@NV?$allocator@N@std@@@std@@@Z@4HA 00000001800381ac f   VImage.obj
 0001:000371ac       ?dtor$1@?0???8vips@@YA?AVVImage@0@V10@V?$vector@NV?$allocator@N@std@@@std@@@Z@4HA 00000001800381ac f   VImage.obj
 0001:000371ac       ?dtor$1@?0???Hvips@@YA?AVVImage@0@V10@V?$vector@NV?$allocator@N@std@@@std@@@Z@4HA 00000001800381ac f   VImage.obj
 0001:000371ac       ?dtor$1@?0???Tvips@@YA?AVVImage@0@V10@V?$vector@NV?$allocator@N@std@@@std@@@Z@4HA 00000001800381ac f   VImage.obj
 0001:000371ac       ?dtor$1@?0???Mvips@@YA?AVVImage@0@V10@V?$vector@NV?$allocator@N@std@@@std@@@Z@4HA 00000001800381ac f   VImage.obj
 0001:000371ac       ?dtor$1@?0???5vips@@YA?AVVImage@0@V10@V?$vector@NV?$allocator@N@std@@@std@@@Z@4HA 00000001800381ac f   VImage.obj
 0001:000371ac       ?dtor$1@?0???6vips@@YA?AVVImage@0@V10@V?$vector@NV?$allocator@N@std@@@std@@@Z@4HA 00000001800381ac f   VImage.obj
 0001:000371ac       ?dtor$1@?0???Lvips@@YA?AVVImage@0@V10@V?$vector@NV?$allocator@N@std@@@std@@@Z@4HA 00000001800381ac f   VImage.obj
 0001:000371ac       ?dtor$1@?0???Ovips@@YA?AVVImage@0@V10@V?$vector@NV?$allocator@N@std@@@std@@@Z@4HA 00000001800381ac f   VImage.obj
 0001:000371ac       ?dtor$1@?0???Ivips@@YA?AVVImage@0@V10@V?$vector@NV?$allocator@N@std@@@std@@@Z@4HA 00000001800381ac f   VImage.obj
 0001:000371ac       ?dtor$1@?0???Nvips@@YA?AVVImage@0@V10@V?$vector@NV?$allocator@N@std@@@std@@@Z@4HA 00000001800381ac f   VImage.obj
 0001:000371c0       ?dtor$0@?0???_3vips@@YAAEAVVImage@0@AEAV10@V10@@Z@4HA 00000001800381c0 f   VImage.obj
 0001:000371c0       ?dtor$0@?0???Pvips@@YA?AVVImage@0@V10@N@Z@4HA 00000001800381c0 f   VImage.obj
 0001:000371c0       ?dtor$0@?0???Ovips@@YA?AVVImage@0@V10@N@Z@4HA 00000001800381c0 f   VImage.obj
 0001:000371c0       ?dtor$0@?0???Nvips@@YA?AVVImage@0@V10@N@Z@4HA 00000001800381c0 f   VImage.obj
 0001:000371c0       ?dtor$0@?0???Mvips@@YA?AVVImage@0@V10@N@Z@4HA 00000001800381c0 f   VImage.obj
 0001:000371c0       ?dtor$0@?0???Uvips@@YA?AVVImage@0@V10@N@Z@4HA 00000001800381c0 f   VImage.obj
 0001:000371c0       ?dtor$0@?0???Xvips@@YAAEAVVImage@0@AEAV10@V10@@Z@4HA 00000001800381c0 f   VImage.obj
 0001:000371c0       ?dtor$0@?0???Lvips@@YA?AVVImage@0@V10@N@Z@4HA 00000001800381c0 f   VImage.obj
 0001:000371c0       ?dtor$0@?0???Yvips@@YAAEAVVImage@0@AEAV10@V10@@Z@4HA 00000001800381c0 f   VImage.obj
 0001:000371c0       ?dtor$0@?0???Zvips@@YAAEAVVImage@0@AEAV10@V10@@Z@4HA 00000001800381c0 f   VImage.obj
 0001:000371c0       ?dtor$0@?0???_0vips@@YAAEAVVImage@0@AEAV10@V10@@Z@4HA 00000001800381c0 f   VImage.obj
 0001:000371c0       ?dtor$0@?0???_1vips@@YAAEAVVImage@0@AEAV10@V10@@Z@4HA 00000001800381c0 f   VImage.obj
 0001:000371c0       ?dtor$0@?0???_2vips@@YAAEAVVImage@0@AEAV10@V10@@Z@4HA 00000001800381c0 f   VImage.obj
 0001:000371c0       ?dtor$0@?0???Tvips@@YA?AVVImage@0@V10@N@Z@4HA 00000001800381c0 f   VImage.obj
 0001:000371c0       ?dtor$0@?0???_4vips@@YAAEAVVImage@0@AEAV10@V10@@Z@4HA 00000001800381c0 f   VImage.obj
 0001:000371c0       ?dtor$0@?0???_5vips@@YAAEAVVImage@0@AEAV10@V10@@Z@4HA 00000001800381c0 f   VImage.obj
 0001:000371c0       ?dtor$0@?0???9vips@@YA?AVVImage@0@V10@N@Z@4HA 00000001800381c0 f   VImage.obj
 0001:000371c0       ?dtor$0@?0???_6vips@@YAAEAVVImage@0@AEAV10@V10@@Z@4HA 00000001800381c0 f   VImage.obj
 0001:000371c0       ?dtor$0@?0???Ivips@@YA?AVVImage@0@V10@N@Z@4HA 00000001800381c0 f   VImage.obj
 0001:000371c0       ?dtor$0@?0???5vips@@YA?AVVImage@0@V10@N@Z@4HA 00000001800381c0 f   VImage.obj
 0001:000371c0       ?dtor$0@?0???6vips@@YA?AVVImage@0@V10@N@Z@4HA 00000001800381c0 f   VImage.obj
 0001:000371c0       ?dtor$0@?0???8vips@@YA?AVVImage@0@V10@N@Z@4HA 00000001800381c0 f   VImage.obj
 0001:000371d0       ?dtor$2@?0???Yvips@@YAAEAVVImage@0@AEAV10@N@Z@4HA 00000001800381d0 f   VImage.obj
 0001:000371d0       ?dtor$2@?0???Xvips@@YAAEAVVImage@0@AEAV10@N@Z@4HA 00000001800381d0 f   VImage.obj
 0001:000371e0       ?dtor$0@?0???Yvips@@YAAEAVVImage@0@AEAV10@V?$vector@NV?$allocator@N@std@@@std@@@Z@4HA 00000001800381e0 f   VImage.obj
 0001:000371e0       ?dtor$0@?0???_2vips@@YAAEAVVImage@0@AEAV10@V?$vector@NV?$allocator@N@std@@@std@@@Z@4HA 00000001800381e0 f   VImage.obj
 0001:000371e0       ?dtor$0@?0???Zvips@@YAAEAVVImage@0@AEAV10@V?$vector@NV?$allocator@N@std@@@std@@@Z@4HA 00000001800381e0 f   VImage.obj
 0001:000371e0       ?dtor$0@?0???_0vips@@YAAEAVVImage@0@AEAV10@V?$vector@NV?$allocator@N@std@@@std@@@Z@4HA 00000001800381e0 f   VImage.obj
 0001:000371e0       ?dtor$0@?0???_5vips@@YAAEAVVImage@0@AEAV10@V?$vector@NV?$allocator@N@std@@@std@@@Z@4HA 00000001800381e0 f   VImage.obj
 0001:000371e0       ?dtor$0@?0???Xvips@@YAAEAVVImage@0@AEAV10@V?$vector@NV?$allocator@N@std@@@std@@@Z@4HA 00000001800381e0 f   VImage.obj
 0001:000371e0       ?dtor$0@?0???_6vips@@YAAEAVVImage@0@AEAV10@V?$vector@NV?$allocator@N@std@@@std@@@Z@4HA 00000001800381e0 f   VImage.obj
 0001:000371e0       ?dtor$0@?0???_1vips@@YAAEAVVImage@0@AEAV10@V?$vector@NV?$allocator@N@std@@@std@@@Z@4HA 00000001800381e0 f   VImage.obj
 0001:000371e0       ?dtor$0@?0???_3vips@@YAAEAVVImage@0@AEAV10@V?$vector@NV?$allocator@N@std@@@std@@@Z@4HA 00000001800381e0 f   VImage.obj
 0001:000371e0       ?dtor$0@?0???_4vips@@YAAEAVVImage@0@AEAV10@V?$vector@NV?$allocator@N@std@@@std@@@Z@4HA 00000001800381e0 f   VImage.obj
 0001:000371f0       ?dtor$0@?0???Kvips@@YA?AVVImage@0@V10@V?$vector@NV?$allocator@N@std@@@std@@@Z@4HA 00000001800381f0 f   VImage.obj
 0001:000371f0       ?dtor$0@?0???Gvips@@YA?AVVImage@0@V10@V?$vector@NV?$allocator@N@std@@@std@@@Z@4HA 00000001800381f0 f   VImage.obj
 0001:000371fc       ?dtor$1@?0???Gvips@@YA?AVVImage@0@V10@V?$vector@NV?$allocator@N@std@@@std@@@Z@4HA 00000001800381fc f   VImage.obj
 0001:000371fc       ?dtor$1@?0???Kvips@@YA?AVVImage@0@V10@V?$vector@NV?$allocator@N@std@@@std@@@Z@4HA 00000001800381fc f   VImage.obj
 0001:00037210       ?dtor$0@?0???Kvips@@YA?AVVImage@0@NV10@@Z@4HA 0000000180038210 f   VImage.obj
 0001:0003721c       ?dtor$1@?0???Kvips@@YA?AVVImage@0@NV10@@Z@4HA 000000018003821c f   VImage.obj
 0001:00037230       ?dtor$0@?0???Kvips@@YA?AVVImage@0@V?$vector@NV?$allocator@N@std@@@std@@V10@@Z@4HA 0000000180038230 f   VImage.obj
 0001:0003723c       ?dtor$1@?0???Kvips@@YA?AVVImage@0@V?$vector@NV?$allocator@N@std@@@std@@V10@@Z@4HA 000000018003823c f   VImage.obj
 0001:00037248       ?dtor$2@?0???Kvips@@YA?AVVImage@0@V?$vector@NV?$allocator@N@std@@@std@@V10@@Z@4HA 0000000180038248 f   VImage.obj
 0001:00037254       ?dtor$3@?0???Kvips@@YA?AVVImage@0@V?$vector@NV?$allocator@N@std@@@std@@V10@@Z@4HA 0000000180038254 f   VImage.obj
 0001:00037260       ?dtor$2@?0???_2vips@@YAAEAVVImage@0@AEAV10@N@Z@4HA 0000000180038260 f   VImage.obj
 0001:00037260       ?dtor$2@?0???_4vips@@YAAEAVVImage@0@AEAV10@N@Z@4HA 0000000180038260 f   VImage.obj
 0001:00037260       ?dtor$2@?0???_1vips@@YAAEAVVImage@0@AEAV10@N@Z@4HA 0000000180038260 f   VImage.obj
 0001:00037260       ?dtor$2@?0???_5vips@@YAAEAVVImage@0@AEAV10@N@Z@4HA 0000000180038260 f   VImage.obj
 0001:00037260       ?dtor$2@?0???_3vips@@YAAEAVVImage@0@AEAV10@N@Z@4HA 0000000180038260 f   VImage.obj
 0001:00037260       ?dtor$2@?0???_6vips@@YAAEAVVImage@0@AEAV10@N@Z@4HA 0000000180038260 f   VImage.obj
 0001:0003726c       ?fin$0@?0???_M@YAXPEAX_K1P6AX0@Z@Z@4HA 000000018003826c f   LIBCMT:ehvecdtr.obj
 0001:00037298       ?filt$0@?0??__ArrayUnwind@@YAXPEAX_K1P6AX0@Z@Z@4HA 0000000180038298 f   LIBCMT:ehvecdtr.obj
 0001:000372d9       ?fin$0@?0??dllmain_crt_process_attach@@YAHQEAUHINSTANCE__@@QEAX@Z@4HA 00000001800382d9 f   LIBCMT:dll_dllmain.obj
 0001:000372f0       ?fin$0@?0??dllmain_crt_process_detach@@YAH_N@Z@4HA 00000001800382f0 f   LIBCMT:dll_dllmain.obj
 0001:0003730c       ?filt$0@?0??dllmain_dispatch@@YAHQEAUHINSTANCE__@@KQEAX@Z@4HA 000000018003830c f   LIBCMT:dll_dllmain.obj
 0001:00037342       __scrt_is_nonwritable_in_current_image$filt$0 0000000180038342 f   LIBCMT:utility.obj
 0001:0003735a       ?filt$0@?0???$_CallSETranslator@V__FrameHandler3@@@@YAHPEAUEHExceptionRecord@@PEA_KPEAU_CONTEXT@@PEAU_xDISPATCHER_CONTEXT@@PEBU_s_FuncInfo@@K1@Z@4HA 000000018003835a f   libvcruntime:risctrnsctrl.obj
 0001:000373eb       __DestructExceptionObject$filt$0 00000001800383eb f   libvcruntime:ehhelpers.obj
 0001:00037403       ?filt$0@?0??CxxCallCatchBlock@__FrameHandler3@@SAPEAXPEAU_EXCEPTION_RECORD@@@Z@4HA 0000000180038403 f   libvcruntime:frame.obj
 0001:00037428       ?fin$1@?0??CxxCallCatchBlock@__FrameHandler3@@SAPEAXPEAU_EXCEPTION_RECORD@@@Z@4HA 0000000180038428 f   libvcruntime:frame.obj
 0001:000374a0       ?filt$0@?0??FrameUnwindToState@__FrameHandler3@@SAXPEA_KPEAU_xDISPATCHER_CONTEXT@@PEBU_s_FuncInfo@@H@Z@4HA 00000001800384a0 f   libvcruntime:frame.obj
 0001:000374b6       ?fin$1@?0??FrameUnwindToState@__FrameHandler3@@SAXPEA_KPEAU_xDISPATCHER_CONTEXT@@PEBU_s_FuncInfo@@H@Z@4HA 00000001800384b6 f   libvcruntime:frame.obj
 0001:000374d9       _query_new_handler$fin$0   00000001800384d9 f   libucrt:new_handler.obj
 0001:000374ef       ?fin$0@?0???$?RV<lambda_efdfa57d1f175319df784efa44bb7b81>@@AEAV<lambda_5f0a4c1567f8adc6734073e5d1e1b35c>@@V<lambda_2e8a7d3640ea6ccb4c2413664c2db6fd>@@@?$__crt_seh_guarded_call@X@@QEAAX$$QEAV<lambda_efdfa57d1f175319df784efa44bb7b81>@@AEAV<lambda_5f0a4c1567f8adc6734073e5d1e1b35c>@@$$QEAV<lambda_2e8a7d3640ea6ccb4c2413664c2db6fd>@@@Z@4HA 00000001800384ef f   libucrt:mbctype.obj
 0001:000374ef       ?fin$0@?0???$?RV<lambda_f2e299630e499de9f9a165e60fcd3db5>@@AEAV<lambda_2ae9d31cdba2644fcbeaf08da7c24588>@@V<lambda_40d01ff24d0e7b3814fdbdcee8eab3c7>@@@?$__crt_seh_guarded_call@X@@QEAAX$$QEAV<lambda_f2e299630e499de9f9a165e60fcd3db5>@@AEAV<lambda_2ae9d31cdba2644fcbeaf08da7c24588>@@$$QEAV<lambda_40d01ff24d0e7b3814fdbdcee8eab3c7>@@@Z@4HA 00000001800384ef f   libucrt:per_thread_data.obj
 0001:000374ef       ?fin$0@?0???$?RV<lambda_450d765d439847d4c735a33c368b5fc0>@@AEAV<lambda_44731a7d0e6d81c3e6aa82d741081786>@@V<lambda_601a2a7da3b7a96e9554ac7215c4b07c>@@@?$__crt_seh_guarded_call@P6AXH@Z@@QEAAP6AXH@Z$$QEAV<lambda_450d765d439847d4c735a33c368b5fc0>@@AEAV<lambda_44731a7d0e6d81c3e6aa82d741081786>@@$$QEAV<lambda_601a2a7da3b7a96e9554ac7215c4b07c>@@@Z@4HA 00000001800384ef f   libucrt:signal.obj
 0001:000374ef       ?fin$0@?0???$?RV<lambda_aa87e3671a710a21b5dc78c0bdf72e11>@@AEAV<lambda_92619d2358a28f41a33ba319515a20b9>@@V<lambda_6992ecaafeb10aed2b74cb1fae11a551>@@@?$__crt_seh_guarded_call@X@@QEAAX$$QEAV<lambda_aa87e3671a710a21b5dc78c0bdf72e11>@@AEAV<lambda_92619d2358a28f41a33ba319515a20b9>@@$$QEAV<lambda_6992ecaafeb10aed2b74cb1fae11a551>@@@Z@4HA 00000001800384ef f   libucrt:per_thread_data.obj
 0001:000374ef       ?fin$0@?0???$?RV<lambda_7777bce6b2f8c936911f934f8298dc43>@@AEAV<lambda_f03950bc5685219e0bcd2087efbe011e>@@V<lambda_3883c3dff614d5e0c5f61bb1ac94921c>@@@?$__crt_seh_guarded_call@H@@QEAAH$$QEAV<lambda_7777bce6b2f8c936911f934f8298dc43>@@AEAV<lambda_f03950bc5685219e0bcd2087efbe011e>@@$$QEAV<lambda_3883c3dff614d5e0c5f61bb1ac94921c>@@@Z@4HA 00000001800384ef f   libucrt:onexit.obj
 0001:000374ef       ?fin$0@?0???$?RV<lambda_d80eeec6fff315bfe5c115232f3240e3>@@AEAV<lambda_6e4b09c48022b2350581041d5f6b0c4c>@@V<lambda_2358e3775559c9db80273638284d5e45>@@@?$__crt_seh_guarded_call@X@@QEAAX$$QEAV<lambda_d80eeec6fff315bfe5c115232f3240e3>@@AEAV<lambda_6e4b09c48022b2350581041d5f6b0c4c>@@$$QEAV<lambda_2358e3775559c9db80273638284d5e45>@@@Z@4HA 00000001800384ef f   libucrt:exit.obj
 0001:000374ef       ?fin$0@?0???$?RV<lambda_2d41944a1d46af3157314b8a01080d33>@@AEAV<lambda_8f455de75cd7d7f24b4096f044d8b9e6>@@V<lambda_aa500f224e6afead328df44964fe2772>@@@?$__crt_seh_guarded_call@X@@QEAAX$$QEAV<lambda_2d41944a1d46af3157314b8a01080d33>@@AEAV<lambda_8f455de75cd7d7f24b4096f044d8b9e6>@@$$QEAV<lambda_aa500f224e6afead328df44964fe2772>@@@Z@4HA 00000001800384ef f   libucrt:per_thread_data.obj
 0001:000374ef       ?fin$0@?0???$?RV<lambda_0ae27a3a962d80f24befdcbee591983d>@@AEAV<lambda_8d0ee55de4b1038c4002e0adecdf1839>@@V<lambda_dc504788e8f1664fe9b84e20bfb512f2>@@@?$__crt_seh_guarded_call@X@@QEAAX$$QEAV<lambda_0ae27a3a962d80f24befdcbee591983d>@@AEAV<lambda_8d0ee55de4b1038c4002e0adecdf1839>@@$$QEAV<lambda_dc504788e8f1664fe9b84e20bfb512f2>@@@Z@4HA 00000001800384ef f   libucrt:per_thread_data.obj
 0001:00037509       ?filt$0@?0???R<lambda_6e4b09c48022b2350581041d5f6b0c4c>@@QEBA@XZ@4HA 0000000180038509 f   libucrt:exit.obj
 0001:00037524       ?fin$0@?0???$?RV<lambda_410d79af7f07d98d83a3f525b3859a53>@@AEAV<lambda_3e16ef9562a7dcce91392c22ab16ea36>@@V<lambda_38119f0e861e05405d8a144b9b982f0a>@@@?$__crt_seh_guarded_call@X@@QEAAX$$QEAV<lambda_410d79af7f07d98d83a3f525b3859a53>@@AEAV<lambda_3e16ef9562a7dcce91392c22ab16ea36>@@$$QEAV<lambda_38119f0e861e05405d8a144b9b982f0a>@@@Z@4HA 0000000180038524 f   libucrt:wsetlocale.obj
 0001:0003753e       ?fin$0@?0??update_thread_multibyte_data_internal@@YAPEAU__crt_multibyte_data@@QEAU__acrt_ptd@@QEAPEAU1@@Z@4HA 000000018003853e f   libucrt:mbctype.obj
 0001:00037557       __acrt_lowio_ensure_fh_exists$fin$0 0000000180038557 f   libucrt:osfinfo.obj
 0001:00037557       __acrt_initialize_lowio$fin$0 0000000180038557 f   libucrt:ioinit.obj
 0001:00037570       raise$fin$0                0000000180038570 f   libucrt:signal.obj
 0001:00037591       ?fin$0@?0???$?RV<lambda_842d9ff0dc9ef11c61343bbaebe7f885>@@AEAV<lambda_c5860995281e5c4ce005b3de8f5874ee>@@V<lambda_d90129c13df834fdcbf8d2b88dafcf2d>@@@?$__crt_seh_guarded_call@X@@QEAAX$$QEAV<lambda_842d9ff0dc9ef11c61343bbaebe7f885>@@AEAV<lambda_c5860995281e5c4ce005b3de8f5874ee>@@$$QEAV<lambda_d90129c13df834fdcbf8d2b88dafcf2d>@@@Z@4HA 0000000180038591 f   libucrt:fflush.obj
 0001:000375ac       ?fin$0@?0???$?RV<lambda_886d6c58226a84441f68b9f2b8217b83>@@AEAV<lambda_ab61a845afdef5b7c387490eaf3616ee>@@V<lambda_f7f22ab5edc0698d5f6905b0d3f44752>@@@?$__crt_seh_guarded_call@X@@QEAAX$$QEAV<lambda_886d6c58226a84441f68b9f2b8217b83>@@AEAV<lambda_ab61a845afdef5b7c387490eaf3616ee>@@$$QEAV<lambda_f7f22ab5edc0698d5f6905b0d3f44752>@@@Z@4HA 00000001800385ac f   libucrt:fflush.obj
 0001:000375c9       __acrt_update_thread_locale_data$fin$0 00000001800385c9 f   libucrt:locale_refcounting.obj
 0001:000375e2       ?fin$0@?0???$?RV<lambda_a37b2b86f63e897a80ea819b0eb08c01>@@AEAV<lambda_38ce7e780aa69e748d6df282ebc68efe>@@V<lambda_99fb1378e971ab6e7edea83e3a7a83a2>@@@?$__crt_seh_guarded_call@H@@QEAAH$$QEAV<lambda_a37b2b86f63e897a80ea819b0eb08c01>@@AEAV<lambda_38ce7e780aa69e748d6df282ebc68efe>@@$$QEAV<lambda_99fb1378e971ab6e7edea83e3a7a83a2>@@@Z@4HA 00000001800385e2 f   libucrt:commit.obj
 0001:000375e2       ?fin$0@?0???$?RV<lambda_751a882b2c74d4b022dec766aa51a29a>@@AEAV<lambda_628dfdc04ba53c8bfc02c9951375f3f5>@@V<lambda_f6c7be5f7998530c34de24c7437d6b54>@@@?$__crt_seh_guarded_call@H@@QEAAH$$QEAV<lambda_751a882b2c74d4b022dec766aa51a29a>@@AEAV<lambda_628dfdc04ba53c8bfc02c9951375f3f5>@@$$QEAV<lambda_f6c7be5f7998530c34de24c7437d6b54>@@@Z@4HA 00000001800385e2 f   libucrt:close.obj
 0001:000375fc       _write$fin$0               00000001800385fc f   libucrt:write.obj
 0001:00037613       _fcloseall$fin$0           0000000180038613 f   libucrt:closeall.obj
 0001:0003762c       ?dtor$0@?0??_wcstombs_l_helper@@YA_KPEADPEB_W_KPEAU__crt_locale_pointers@@@Z@4HA 000000018003862c f   libucrt:wcstombs.obj
 0001:00037638       fclose$fin$0               0000000180038638 f   libucrt:fclose.obj
 0001:00037650       _ctrlfp$filt$0             0000000180038650 f   libucrt:fpctrl.obj
 0001:00037680       _IsNonwritableInCurrentImage$filt$0 0000000180038680 f   LIBCMT:pesect.obj
 0002:00000230       .idata$5                   0000000180039230     libvips:dfijs00702.o
 0002:00000238       .idata$5                   0000000180039238     libvips:dfijs00891.o
 0002:00000240       .idata$5                   0000000180039240     libvips:dfijs00905.o
 0002:00000248       .idata$5                   0000000180039248     libvips:dfijs00911.o
 0002:00000250       .idata$5                   0000000180039250     libvips:dfijs00916.o
 0002:00000258       .idata$5                   0000000180039258     libvips:dfijs00962.o
 0002:00000260       .idata$5                   0000000180039260     libvips:dfijs00963.o
 0002:00000268       .idata$5                   0000000180039268     libvips:dfijs01015.o
 0002:00000270       .idata$5                   0000000180039270     libvips:dfijs01224.o
 0002:00000278       .idata$5                   0000000180039278     libvips:dfijs01234.o
 0002:00000280       .idata$5                   0000000180039280     libvips:dfijs01235.o
 0002:00000288       .idata$5                   0000000180039288     libvips:dfijs01282.o
 0002:00000290       .idata$5                   0000000180039290     libvips:dfijs01283.o
 0002:00000298       .idata$5                   0000000180039298     libvips:dfijs01284.o
 0002:000002a0       .idata$5                   00000001800392a0     libvips:dfijs01285.o
 0002:000002a8       .idata$5                   00000001800392a8     libvips:dfijs01367.o
 0002:000002b0       .idata$5                   00000001800392b0     libvips:dfijs01468.o
 0002:000002b8       .idata$5                   00000001800392b8     libvips:dfijs01469.o
 0002:000002c0       .idata$5                   00000001800392c0     libvips:dfijs01470.o
 0002:000002c8       .idata$5                   00000001800392c8     libvips:dfijs01471.o
 0002:000002d0       .idata$5                   00000001800392d0     libvips:dfijs01472.o
 0002:000002d8       .idata$5                   00000001800392d8     libvips:dfijs01474.o
 0002:000002e0       .idata$5                   00000001800392e0     libvips:dfijs01475.o
 0002:000002e8       .idata$5                   00000001800392e8     libvips:dfijs01476.o
 0002:000002f0       .idata$5                   00000001800392f0     libvips:dfijs01478.o
 0002:000002f8       .idata$5                   00000001800392f8     libvips:dfijs01479.o
 0002:00000300       .idata$5                   0000000180039300     libvips:dfijs01483.o
 0002:00000308       .idata$5                   0000000180039308     libvips:dfijs01484.o
 0002:00000310       .idata$5                   0000000180039310     libvips:dfijs01485.o
 0002:00000318       .idata$5                   0000000180039318     libvips:dfijs01486.o
 0002:00000320       .idata$5                   0000000180039320     libvips:dfijs01487.o
 0002:00000328       .idata$5                   0000000180039328     libvips:dfijs01488.o
 0002:00000330       .idata$5                   0000000180039330     libvips:dfijs01489.o
 0002:00000338       .idata$5                   0000000180039338     libvips:dfijs01490.o
 0002:00000340       .idata$5                   0000000180039340     libvips:dfijs01492.o
 0002:00000348       .idata$5                   0000000180039348     libvips:dfijs01514.o
 0002:00000350       .idata$5                   0000000180039350     libvips:dfijs01516.o
 0002:00000358       .idata$5                   0000000180039358     libvips:dfijs01518.o
 0002:00000360       .idata$5                   0000000180039360     libvips:dfijs01519.o
 0002:00000368       .idata$5                   0000000180039368     libvips:dfijs01521.o
 0002:00000370       .idata$5                   0000000180039370     libvips:dfijs01523.o
 0002:00000378       .idata$5                   0000000180039378     libvips:dfijs01536.o
 0002:00000380       .idata$5                   0000000180039380     libvips:dfijs01538.o
 0002:00000388       .idata$5                   0000000180039388     libvips:dfijs01539.o
 0002:00000390       .idata$5                   0000000180039390     libvips:dfijs01542.o
 0002:00000398       .idata$5                   0000000180039398     libvips:dfijs01545.o
 0002:000003a0       .idata$5                   00000001800393a0     libvips:dfijs01550.o
 0002:000003a8       .idata$5                   00000001800393a8     libvips:dfijs01565.o
 0002:000003b0       .idata$5                   00000001800393b0     libvips:dfijs01572.o
 0002:000003b8       .idata$5                   00000001800393b8     libvips:dfijs01701.o
 0002:000003c0       .idata$5                   00000001800393c0     libvips:dfijs01707.o
 0002:000003c8       .idata$5                   00000001800393c8     libvips:dfijs01724.o
 0002:000003d0       .idata$5                   00000001800393d0     libvips:dfijs01731.o
 0002:000003d8       .idata$5                   00000001800393d8     libvips:dfijs01746.o
 0002:000003e0       .idata$5                   00000001800393e0     libvips:dfijs02017.o
 0002:000003e8       .idata$5                   00000001800393e8     libvips:dfijs02018.o
 0002:000003f0       .idata$5                   00000001800393f0     libvips:dfijs02019.o
 0002:000003f8       .idata$5                   00000001800393f8     libvips:dfijs02027.o
 0002:00000400       .idata$5                   0000000180039400     libvips:dfijs02028.o
 0002:00000408       .idata$5                   0000000180039408     libvips:dfijs02029.o
 0002:00000418       .idata$5                   0000000180039418     libgobject-2.0:djejs00127.o
 0002:00000420       .idata$5                   0000000180039420     libgobject-2.0:djejs00142.o
 0002:00000428       .idata$5                   0000000180039428     libgobject-2.0:djejs00152.o
 0002:00000430       .idata$5                   0000000180039430     libgobject-2.0:djejs00160.o
 0002:00000438       .idata$5                   0000000180039438     libgobject-2.0:djejs00201.o
 0002:00000440       .idata$5                   0000000180039440     libgobject-2.0:djejs00276.o
 0002:00000448       .idata$5                   0000000180039448     libgobject-2.0:djejs00277.o
 0002:00000450       .idata$5                   0000000180039450     libgobject-2.0:djejs00358.o
 0002:00000458       .idata$5                   0000000180039458     libgobject-2.0:djejs00364.o
 0002:00000460       .idata$5                   0000000180039460     libgobject-2.0:djejs00367.o
 0002:00000468       .idata$5                   0000000180039468     libgobject-2.0:djejs00372.o
 0002:00000470       .idata$5                   0000000180039470     libgobject-2.0:djejs00375.o
 0002:00000478       .idata$5                   0000000180039478     libgobject-2.0:djejs00379.o
 0002:00000480       .idata$5                   0000000180039480     libgobject-2.0:djejs00386.o
 0002:00000488       .idata$5                   0000000180039488     libgobject-2.0:djejs00391.o
 0002:00000490       .idata$5                   0000000180039490     libgobject-2.0:djejs00392.o
 0002:00000498       .idata$5                   0000000180039498     libgobject-2.0:djejs00395.o
 0002:000004a0       .idata$5                   00000001800394a0     libgobject-2.0:djejs00396.o
 0002:000004a8       .idata$5                   00000001800394a8     libgobject-2.0:djejs00401.o
 0002:000004b0       .idata$5                   00000001800394b0     libgobject-2.0:djejs00404.o
 0002:000004b8       .idata$5                   00000001800394b8     libgobject-2.0:djejs00412.o
 0002:000004c0       .idata$5                   00000001800394c0     libgobject-2.0:djejs00427.o
 0002:000004d0       .idata$5                   00000001800394d0     libglib-2.0:dzdjs00043.o
 0002:000004d8       .idata$5                   00000001800394d8     libglib-2.0:dzdjs00631.o
 0002:00000510       ?pinit@@3P6AHXZEA          0000000180039510     libcpmt:winapisupp.obj
 0002:00000640       ?_Win_errtab@std@@3QBU_Win_errtab_t@1@B 0000000180039640     libcpmt:syserror.obj
 0002:000008b0       ?_Sys_errtab@std@@3QBU_Sys_errtab_t@1@B 00000001800398b0     libcpmt:syserror.obj
 0002:00001850       GS_ExceptionPointers       000000018003a850     LIBCMT:gs_report.obj
 0002:00001890       ?ExceptionTemplate@?1??UnwindNestedFrames@__FrameHandler3@@SAXPEA_KPEAUEHExceptionRecord@@PEAU_CONTEXT@@0PEAXPEBU_s_FuncInfo@@HHPEBU_s_HandlerType@@PEAU_xDISPATCHER_CONTEXT@@E@Z@4U_EXCEPTION_RECORD@@B 000000018003a890     libvcruntime:risctrnsctrl.obj
 0002:00001930       ?ExceptionTemplate@?1??_CxxThrowException@@9@4UEHExceptionRecord@@B 000000018003a930     libvcruntime:throw.obj
 0002:000019a0       ?tokenTable@@3QBQEBDB      000000018003a9a0     libvcruntime:undname.obj
 0002:00001a20       ?nameTable@@3QBQEBDB       000000018003aa20     libvcruntime:undname.obj
 0002:00001cb0       ?rttiTable@@3QBQEBDB       000000018003acb0     libvcruntime:undname.obj
 0002:00002368       ?module_names@?A0xcc2f1bd3@@3QBQEB_WB 000000018003b368     libvcruntime:winapi_downlevel.obj
 0002:00002438       ?candidate_modules@?1??try_get_FlsAlloc@@YAP6AKP6AXPEAX@Z@ZXZ@4QBW4module_id@?A0xcc2f1bd3@@B 000000018003b438     libvcruntime:winapi_downlevel.obj
 0002:00002440       ?candidate_modules@?1??try_get_FlsFree@@YAP6AHK@ZXZ@4QBW4module_id@?A0xcc2f1bd3@@B 000000018003b440     libvcruntime:winapi_downlevel.obj
 0002:00002448       ?candidate_modules@?1??try_get_FlsGetValue@@YAP6APEAXK@ZXZ@4QBW4module_id@?A0xcc2f1bd3@@B 000000018003b448     libvcruntime:winapi_downlevel.obj
 0002:00002450       ?candidate_modules@?1??try_get_FlsSetValue@@YAP6AHKPEAX@ZXZ@4QBW4module_id@?A0xcc2f1bd3@@B 000000018003b450     libvcruntime:winapi_downlevel.obj
 0002:00002458       ?candidate_modules@?1??try_get_InitializeCriticalSectionEx@@YAP6AHPEAU_RTL_CRITICAL_SECTION@@KK@ZXZ@4QBW4module_id@?A0xcc2f1bd3@@B 000000018003b458     libvcruntime:winapi_downlevel.obj
 0002:00002560       __acrt_initializers        000000018003b560     libucrt:initialization.obj
 0002:00002660       ?errtable@@3QBUerrentry@?A0x31fdb9ec@@B 000000018003b660     libucrt:errno.obj
 0002:00002e40       ?_mb_locale_names@@3QBQEB_WB 000000018003be40     libucrt:mbctype.obj
 0002:00002ea0       ?module_names@?A0x391cf84c@@3QBQEB_WB 000000018003bea0     libucrt:winapi_thunks.obj
 0002:00003448       ?candidate_modules@?1??try_get_FlsAlloc@@YAP6AKP6AXPEAX@Z@ZXZ@4QBW4module_id@?A0x391cf84c@@B 000000018003c448     libucrt:winapi_thunks.obj
 0002:00003460       ?candidate_modules@?1??try_get_FlsFree@@YAP6AHK@ZXZ@4QBW4module_id@?A0x391cf84c@@B 000000018003c460     libucrt:winapi_thunks.obj
 0002:00003470       ?candidate_modules@?1??try_get_FlsGetValue@@YAP6APEAXK@ZXZ@4QBW4module_id@?A0x391cf84c@@B 000000018003c470     libucrt:winapi_thunks.obj
 0002:00003488       ?candidate_modules@?1??try_get_FlsSetValue@@YAP6AHKPEAX@ZXZ@4QBW4module_id@?A0x391cf84c@@B 000000018003c488     libucrt:winapi_thunks.obj
 0002:000034a0       ?candidate_modules@?1??try_get_InitializeCriticalSectionEx@@YAP6AHPEAU_RTL_CRITICAL_SECTION@@KK@ZXZ@4QBW4module_id@?A0x391cf84c@@B 000000018003c4a0     libucrt:winapi_thunks.obj
 0002:000034c8       ?candidate_modules@?1??try_get_LCMapStringEx@@YAP6AHPEB_WK0HPEA_WHPEAU_nlsversioninfo@@PEAX_J@ZXZ@4QBW4module_id@?A0x391cf84c@@B 000000018003c4c8     libucrt:winapi_thunks.obj
 0002:000034e0       ?candidate_modules@?1??try_get_LocaleNameToLCID@@YAP6AKPEB_WK@ZXZ@4QBW4module_id@?A0x391cf84c@@B 000000018003c4e0     libucrt:winapi_thunks.obj
 0002:000034fc       ?candidate_modules@?1??try_get_AppPolicyGetProcessTerminationMethod@@YAP6AJPEAXPEAW4AppPolicyProcessTerminationMethod@@@ZXZ@4QBW4module_id@?A0x391cf84c@@B 000000018003c4fc     libucrt:winapi_thunks.obj
 0002:00003b40       ?LcidToLocaleNameTable@?A0x881e4c05@@3QBULcidToLocaleName@1@B 000000018003cb40     libucrt:lcidtoname_downlevel.obj
 0002:000055a0       ?LocaleNameToIndexTable@?A0x881e4c05@@3QBULocaleNameIndex@1@B 000000018003e5a0     libucrt:lcidtoname_downlevel.obj
 0002:00006e38       $cppxdata$?_wcstombs_l_helper@@YA_KPEADPEB_W_KPEAU__crt_locale_pointers@@@Z 000000018003fe38     libucrt:wcstombs.obj
 0002:00006e60       __real_ninf                000000018003fe60     libucrt:log10.obj
 0002:00006e70       __real_inf                 000000018003fe70     libucrt:log10.obj
 0002:00006e80       __real_neg_qnan            000000018003fe80     libucrt:log10.obj
 0002:00006e90       __real_qnanbit             000000018003fe90     libucrt:log10.obj
 0002:00006ea0       __int_1023                 000000018003fea0     libucrt:log10.obj
 0002:00006eb0       __mask_001                 000000018003feb0     libucrt:log10.obj
 0002:00006ec0       __mask_mant                000000018003fec0     libucrt:log10.obj
 0002:00006ed0       __mask_mant_top8           000000018003fed0     libucrt:log10.obj
 0002:00006ee0       __mask_mant9               000000018003fee0     libucrt:log10.obj
 0002:00006ef0       __real_log10_e             000000018003fef0     libucrt:log10.obj
 0002:00006f00       __real_log10_e_lead        000000018003ff00     libucrt:log10.obj
 0002:00006f10       __real_log10_e_tail        000000018003ff10     libucrt:log10.obj
 0002:00006f20       __real_log10_2_lead        000000018003ff20     libucrt:log10.obj
 0002:00006f30       __real_log10_2_tail        000000018003ff30     libucrt:log10.obj
 0002:00006f40       __real_two                 000000018003ff40     libucrt:log10.obj
 0002:00006f50       __real_one                 000000018003ff50     libucrt:log10.obj
 0002:00006f60       __real_half                000000018003ff60     libucrt:log10.obj
 0002:00006f70       __mask_100                 000000018003ff70     libucrt:log10.obj
 0002:00006f80       __real_1_over_512          000000018003ff80     libucrt:log10.obj
 0002:00006f90       __real_1_over_2            000000018003ff90     libucrt:log10.obj
 0002:00006fa0       __real_1_over_3            000000018003ffa0     libucrt:log10.obj
 0002:00006fb0       __real_1_over_4            000000018003ffb0     libucrt:log10.obj
 0002:00006fc0       __real_1_over_5            000000018003ffc0     libucrt:log10.obj
 0002:00006fd0       __real_1_over_6            000000018003ffd0     libucrt:log10.obj
 0002:00006fe0       __real_neg_1023            000000018003ffe0     libucrt:log10.obj
 0002:00006ff0       __mask_2045                000000018003fff0     libucrt:log10.obj
 0002:00007000       __real_threshold           0000000180040000     libucrt:log10.obj
 0002:00007010       __real_near_one_lt         0000000180040010     libucrt:log10.obj
 0002:00007020       __real_near_one_gt         0000000180040020     libucrt:log10.obj
 0002:00007030       __real_min_norm            0000000180040030     libucrt:log10.obj
 0002:00007040       __real_notsign             0000000180040040     libucrt:log10.obj
 0002:00007050       __real_ca1                 0000000180040050     libucrt:log10.obj
 0002:00007060       __real_ca2                 0000000180040060     libucrt:log10.obj
 0002:00007070       __real_ca3                 0000000180040070     libucrt:log10.obj
 0002:00007080       __real_ca4                 0000000180040080     libucrt:log10.obj
 0002:00007090       __mask_lower               0000000180040090     libucrt:log10.obj
 0002:000070a0       __flag_x_zero              00000001800400a0     libucrt:log10.obj
 0002:000070a4       __flag_x_neg               00000001800400a4     libucrt:log10.obj
 0002:000070a8       __flag_x_nan               00000001800400a8     libucrt:log10.obj
 0002:00008900       __real@433fffffffffffff    0000000180041900     libucrt:fpsr.obj
 0002:00008908       __real@c33fffffffffffff    0000000180041908     libucrt:fpsr.obj
 0002:00009b30       $cppxdata$??1_Sentry_base@?$basic_ostream@DU?$char_traits@D@std@@@std@@QEAA@XZ 0000000180042b30     VError.obj
 0002:00009b58       $cppxdata$?setstate@?$basic_ios@DU?$char_traits@D@std@@@std@@QEAAXH_N@Z 0000000180042b58     VError.obj
 0002:00009b80       $cppxdata$??0sentry@?$basic_ostream@DU?$char_traits@D@std@@@std@@QEAA@AEAV12@@Z 0000000180042b80     VError.obj
 0002:00009ba8       $cppxdata$??1sentry@?$basic_ostream@DU?$char_traits@D@std@@@std@@QEAA@XZ 0000000180042ba8     VError.obj
 0002:00009bd0       $cppxdata$??$_Insert_string@DU?$char_traits@D@std@@_K@std@@YAAEAV?$basic_ostream@DU?$char_traits@D@std@@@0@AEAV10@QEBD_K@Z 0000000180042bd0     VError.obj
 0002:00009bf8       $cppxdata$?ifthenelse@VImage@vips@@QEBA?AV12@NNPEAVVOption@2@@Z 0000000180042bf8     VError.obj
 0002:00009c20       $cppxdata$?ifthenelse@VImage@vips@@QEBA?AV12@V12@NPEAVVOption@2@@Z 0000000180042c20     VError.obj
 0002:00009c48       $cppxdata$?ifthenelse@VImage@vips@@QEBA?AV12@NV12@PEAVVOption@2@@Z 0000000180042c48     VError.obj
 0002:00009c70       $cppxdata$?ifthenelse@VImage@vips@@QEBA?AV12@V?$vector@NV?$allocator@N@std@@@std@@0PEAVVOption@2@@Z 0000000180042c70     VError.obj
 0002:00009c98       $cppxdata$?ifthenelse@VImage@vips@@QEBA?AV12@V12@V?$vector@NV?$allocator@N@std@@@std@@PEAVVOption@2@@Z 0000000180042c98     VError.obj
 0002:00009cc0       $cppxdata$?ifthenelse@VImage@vips@@QEBA?AV12@V?$vector@NV?$allocator@N@std@@@std@@V12@PEAVVOption@2@@Z 0000000180042cc0     VError.obj
 0002:00009ce8       $cppxdata$?wop@VImage@vips@@QEBA?AV12@V?$vector@NV?$allocator@N@std@@@std@@PEAVVOption@2@@Z 0000000180042ce8     VError.obj
 0002:00009d10       $cppxdata$?wop@VImage@vips@@QEBA?AV12@V12@PEAVVOption@2@@Z 0000000180042d10     VError.obj
 0002:00009d38       $cppxdata$?pow@VImage@vips@@QEBA?AV12@V?$vector@NV?$allocator@N@std@@@std@@PEAVVOption@2@@Z 0000000180042d38     VError.obj
 0002:00009d60       $cppxdata$?pow@VImage@vips@@QEBA?AV12@V12@PEAVVOption@2@@Z 0000000180042d60     VError.obj
 0002:00009d88       $cppxdata$?erode@VImage@vips@@QEBA?AV12@V12@PEAVVOption@2@@Z 0000000180042d88     VError.obj
 0002:00009db0       $cppxdata$?dilate@VImage@vips@@QEBA?AV12@V12@PEAVVOption@2@@Z 0000000180042db0     VError.obj
 0002:00009dd8       $cppxdata$?bandjoin@VImage@vips@@QEBA?AV12@V?$vector@NV?$allocator@N@std@@@std@@PEAVVOption@2@@Z 0000000180042dd8     VError.obj
 0002:00009e00       $cppxdata$?linear@VImage@vips@@QEBA?AV12@NV?$vector@NV?$allocator@N@std@@@std@@PEAVVOption@2@@Z 0000000180042e00     VError.obj
 0002:00009e28       $cppxdata$?linear@VImage@vips@@QEBA?AV12@V?$vector@NV?$allocator@N@std@@@std@@NPEAVVOption@2@@Z 0000000180042e28     VError.obj
 0002:00009e50       $cppxdata$?linear@VImage@vips@@QEBA?AV12@NNPEAVVOption@2@@Z 0000000180042e50     VError.obj
 0002:00009e78       $cppxdata$?new_from_image@VImage@vips@@QEBA?AV12@V?$vector@NV?$allocator@N@std@@@std@@@Z 0000000180042e78     VError.obj
 0002:00009ea0       $cppxdata$?option@VImage@vips@@SAPEAVVOption@2@XZ 0000000180042ea0     VError.obj
 0002:00009ec8       $cppxdata$??_EVOption@vips@@UEAAPEAXI@Z 0000000180042ec8     VError.obj
 0002:00009ef0       $cppxdata$??0VOption@vips@@QEAA@AEBV01@@Z 0000000180042ef0     VError.obj
 0002:00009f18       $cppxdata$??0VError@vips@@QEAA@AEBV01@@Z 0000000180042f18     VError.obj
 0002:00009f40       $cppxdata$??0VError@vips@@QEAA@XZ 0000000180042f40     VError.obj
 0002:00009f68       $cppxdata$??0VError@vips@@QEAA@V?$basic_string@DU?$char_traits@D@std@@V?$allocator@D@2@@std@@@Z 0000000180042f68     VError.obj
 0002:00009f90       $cppxdata$??0failure@ios_base@std@@QEAA@PEBDAEBVerror_code@2@@Z 0000000180042f90     VError.obj
 0002:00009fb8       $cppxdata$??0_System_error@std@@IEAA@Verror_code@1@AEBV?$basic_string@DU?$char_traits@D@std@@V?$allocator@D@2@@1@@Z 0000000180042fb8     VError.obj
 0002:0000a010       $cppxdata$?set@VOption@vips@@QEAAPEAV12@PEBDVVInterpolate@2@@Z 0000000180043010     VInterpolate.obj
 0002:0000a038       $cppxdata$??_2vips@@YAAEAVVImage@0@AEAV10@V?$vector@NV?$allocator@N@std@@@std@@@Z 0000000180043038     VImage.obj
 0002:0000a038       $cppxdata$??_3vips@@YAAEAVVImage@0@AEAV10@V?$vector@NV?$allocator@N@std@@@std@@@Z 0000000180043038     VImage.obj
 0002:0000a060       $cppxdata$??_2vips@@YAAEAVVImage@0@AEAV10@N@Z 0000000180043060     VImage.obj
 0002:0000a060       $cppxdata$??_3vips@@YAAEAVVImage@0@AEAV10@N@Z 0000000180043060     VImage.obj
 0002:0000a088       $cppxdata$??_2vips@@YAAEAVVImage@0@AEAV10@V10@@Z 0000000180043088     VImage.obj
 0002:0000a088       $cppxdata$??_3vips@@YAAEAVVImage@0@AEAV10@V10@@Z 0000000180043088     VImage.obj
 0002:0000a0b0       $cppxdata$??5vips@@YA?AVVImage@0@V10@V?$vector@NV?$allocator@N@std@@@std@@@Z 00000001800430b0     VImage.obj
 0002:0000a0d8       $cppxdata$??5vips@@YA?AVVImage@0@V10@N@Z 00000001800430d8     VImage.obj
 0002:0000a100       $cppxdata$??5vips@@YA?AVVImage@0@V10@0@Z 0000000180043100     VImage.obj
 0002:0000a128       $cppxdata$??6vips@@YA?AVVImage@0@V10@V?$vector@NV?$allocator@N@std@@@std@@@Z 0000000180043128     VImage.obj
 0002:0000a150       $cppxdata$??6vips@@YA?AVVImage@0@V10@N@Z 0000000180043150     VImage.obj
 0002:0000a178       $cppxdata$??6vips@@YA?AVVImage@0@V10@0@Z 0000000180043178     VImage.obj
 0002:0000a1a0       $cppxdata$??_6vips@@YAAEAVVImage@0@AEAV10@V?$vector@NV?$allocator@N@std@@@std@@@Z 00000001800431a0     VImage.obj
 0002:0000a1c8       $cppxdata$??_6vips@@YAAEAVVImage@0@AEAV10@N@Z 00000001800431c8     VImage.obj
 0002:0000a1f0       $cppxdata$??_6vips@@YAAEAVVImage@0@AEAV10@V10@@Z 00000001800431f0     VImage.obj
 0002:0000a218       $cppxdata$??Tvips@@YA?AVVImage@0@V10@V?$vector@NV?$allocator@N@std@@@std@@@Z 0000000180043218     VImage.obj
 0002:0000a240       $cppxdata$??Tvips@@YA?AVVImage@0@V?$vector@NV?$allocator@N@std@@@std@@V10@@Z 0000000180043240     VImage.obj
 0002:0000a268       $cppxdata$??Tvips@@YA?AVVImage@0@V10@N@Z 0000000180043268     VImage.obj
 0002:0000a290       $cppxdata$??Tvips@@YA?AVVImage@0@NV10@@Z 0000000180043290     VImage.obj
 0002:0000a2b8       $cppxdata$??Tvips@@YA?AVVImage@0@V10@0@Z 00000001800432b8     VImage.obj
 0002:0000a2e0       $cppxdata$??_5vips@@YAAEAVVImage@0@AEAV10@V?$vector@NV?$allocator@N@std@@@std@@@Z 00000001800432e0     VImage.obj
 0002:0000a308       $cppxdata$??_5vips@@YAAEAVVImage@0@AEAV10@N@Z 0000000180043308     VImage.obj
 0002:0000a330       $cppxdata$??_5vips@@YAAEAVVImage@0@AEAV10@V10@@Z 0000000180043330     VImage.obj
 0002:0000a358       $cppxdata$??Uvips@@YA?AVVImage@0@V10@V?$vector@NV?$allocator@N@std@@@std@@@Z 0000000180043358     VImage.obj
 0002:0000a380       $cppxdata$??Uvips@@YA?AVVImage@0@V?$vector@NV?$allocator@N@std@@@std@@V10@@Z 0000000180043380     VImage.obj
 0002:0000a3a8       $cppxdata$??Uvips@@YA?AVVImage@0@V10@N@Z 00000001800433a8     VImage.obj
 0002:0000a3d0       $cppxdata$??Uvips@@YA?AVVImage@0@NV10@@Z 00000001800433d0     VImage.obj
 0002:0000a3f8       $cppxdata$??Uvips@@YA?AVVImage@0@V10@0@Z 00000001800433f8     VImage.obj
 0002:0000a420       $cppxdata$??_4vips@@YAAEAVVImage@0@AEAV10@V?$vector@NV?$allocator@N@std@@@std@@@Z 0000000180043420     VImage.obj
 0002:0000a448       $cppxdata$??_4vips@@YAAEAVVImage@0@AEAV10@N@Z 0000000180043448     VImage.obj
 0002:0000a470       $cppxdata$??_4vips@@YAAEAVVImage@0@AEAV10@V10@@Z 0000000180043470     VImage.obj
 0002:0000a498       $cppxdata$??Ivips@@YA?AVVImage@0@V10@V?$vector@NV?$allocator@N@std@@@std@@@Z 0000000180043498     VImage.obj
 0002:0000a4c0       $cppxdata$??Ivips@@YA?AVVImage@0@V?$vector@NV?$allocator@N@std@@@std@@V10@@Z 00000001800434c0     VImage.obj
 0002:0000a4e8       $cppxdata$??Ivips@@YA?AVVImage@0@V10@N@Z 00000001800434e8     VImage.obj
 0002:0000a510       $cppxdata$??Ivips@@YA?AVVImage@0@NV10@@Z 0000000180043510     VImage.obj
 0002:0000a538       $cppxdata$??Ivips@@YA?AVVImage@0@V10@0@Z 0000000180043538     VImage.obj
 0002:0000a560       $cppxdata$??9vips@@YA?AVVImage@0@V10@V?$vector@NV?$allocator@N@std@@@std@@@Z 0000000180043560     VImage.obj
 0002:0000a588       $cppxdata$??9vips@@YA?AVVImage@0@V?$vector@NV?$allocator@N@std@@@std@@V10@@Z 0000000180043588     VImage.obj
 0002:0000a5b0       $cppxdata$??9vips@@YA?AVVImage@0@V10@N@Z 00000001800435b0     VImage.obj
 0002:0000a5d8       $cppxdata$??9vips@@YA?AVVImage@0@NV10@@Z 00000001800435d8     VImage.obj
 0002:0000a600       $cppxdata$??9vips@@YA?AVVImage@0@V10@0@Z 0000000180043600     VImage.obj
 0002:0000a628       $cppxdata$??8vips@@YA?AVVImage@0@V10@V?$vector@NV?$allocator@N@std@@@std@@@Z 0000000180043628     VImage.obj
 0002:0000a650       $cppxdata$??8vips@@YA?AVVImage@0@V?$vector@NV?$allocator@N@std@@@std@@V10@@Z 0000000180043650     VImage.obj
 0002:0000a678       $cppxdata$??8vips@@YA?AVVImage@0@V10@N@Z 0000000180043678     VImage.obj
 0002:0000a6a0       $cppxdata$??8vips@@YA?AVVImage@0@NV10@@Z 00000001800436a0     VImage.obj
 0002:0000a6c8       $cppxdata$??8vips@@YA?AVVImage@0@V10@0@Z 00000001800436c8     VImage.obj
 0002:0000a6f0       $cppxdata$??Pvips@@YA?AVVImage@0@V10@V?$vector@NV?$allocator@N@std@@@std@@@Z 00000001800436f0     VImage.obj
 0002:0000a718       $cppxdata$??Pvips@@YA?AVVImage@0@V?$vector@NV?$allocator@N@std@@@std@@V10@@Z 0000000180043718     VImage.obj
 0002:0000a740       $cppxdata$??Pvips@@YA?AVVImage@0@V10@N@Z 0000000180043740     VImage.obj
 0002:0000a768       $cppxdata$??Pvips@@YA?AVVImage@0@NV10@@Z 0000000180043768     VImage.obj
 0002:0000a790       $cppxdata$??Pvips@@YA?AVVImage@0@V10@0@Z 0000000180043790     VImage.obj
 0002:0000a7b8       $cppxdata$??Ovips@@YA?AVVImage@0@V10@V?$vector@NV?$allocator@N@std@@@std@@@Z 00000001800437b8     VImage.obj
 0002:0000a7e0       $cppxdata$??Ovips@@YA?AVVImage@0@V?$vector@NV?$allocator@N@std@@@std@@V10@@Z 00000001800437e0     VImage.obj
 0002:0000a808       $cppxdata$??Ovips@@YA?AVVImage@0@V10@N@Z 0000000180043808     VImage.obj
 0002:0000a830       $cppxdata$??Ovips@@YA?AVVImage@0@NV10@@Z 0000000180043830     VImage.obj
 0002:0000a858       $cppxdata$??Ovips@@YA?AVVImage@0@V10@0@Z 0000000180043858     VImage.obj
 0002:0000a880       $cppxdata$??Nvips@@YA?AVVImage@0@V10@V?$vector@NV?$allocator@N@std@@@std@@@Z 0000000180043880     VImage.obj
 0002:0000a8a8       $cppxdata$??Nvips@@YA?AVVImage@0@V?$vector@NV?$allocator@N@std@@@std@@V10@@Z 00000001800438a8     VImage.obj
 0002:0000a8d0       $cppxdata$??Nvips@@YA?AVVImage@0@V10@N@Z 00000001800438d0     VImage.obj
 0002:0000a8f8       $cppxdata$??Nvips@@YA?AVVImage@0@NV10@@Z 00000001800438f8     VImage.obj
 0002:0000a920       $cppxdata$??Nvips@@YA?AVVImage@0@V10@0@Z 0000000180043920     VImage.obj
 0002:0000a948       $cppxdata$??Mvips@@YA?AVVImage@0@V10@V?$vector@NV?$allocator@N@std@@@std@@@Z 0000000180043948     VImage.obj
 0002:0000a970       $cppxdata$??Mvips@@YA?AVVImage@0@V?$vector@NV?$allocator@N@std@@@std@@V10@@Z 0000000180043970     VImage.obj
 0002:0000a998       $cppxdata$??Mvips@@YA?AVVImage@0@V10@N@Z 0000000180043998     VImage.obj
 0002:0000a9c0       $cppxdata$??Mvips@@YA?AVVImage@0@NV10@@Z 00000001800439c0     VImage.obj
 0002:0000a9e8       $cppxdata$??Mvips@@YA?AVVImage@0@V10@0@Z 00000001800439e8     VImage.obj
 0002:0000aa10       $cppxdata$??_1vips@@YAAEAVVImage@0@AEAV10@V?$vector@NV?$allocator@N@std@@@std@@@Z 0000000180043a10     VImage.obj
 0002:0000aa38       $cppxdata$??_1vips@@YAAEAVVImage@0@AEAV10@N@Z 0000000180043a38     VImage.obj
 0002:0000aa60       $cppxdata$??_1vips@@YAAEAVVImage@0@AEAV10@V10@@Z 0000000180043a60     VImage.obj
 0002:0000aa88       $cppxdata$??Lvips@@YA?AVVImage@0@V10@V?$vector@NV?$allocator@N@std@@@std@@@Z 0000000180043a88     VImage.obj
 0002:0000aab0       $cppxdata$??Lvips@@YA?AVVImage@0@V10@N@Z 0000000180043ab0     VImage.obj
 0002:0000aad8       $cppxdata$??Lvips@@YA?AVVImage@0@V10@0@Z 0000000180043ad8     VImage.obj
 0002:0000ab00       $cppxdata$??_0vips@@YAAEAVVImage@0@AEAV10@V?$vector@NV?$allocator@N@std@@@std@@@Z 0000000180043b00     VImage.obj
 0002:0000ab28       $cppxdata$??_0vips@@YAAEAVVImage@0@AEAV10@N@Z 0000000180043b28     VImage.obj
 0002:0000ab50       $cppxdata$??_0vips@@YAAEAVVImage@0@AEAV10@V10@@Z 0000000180043b50     VImage.obj
 0002:0000ab78       $cppxdata$??Kvips@@YA?AVVImage@0@V10@V?$vector@NV?$allocator@N@std@@@std@@@Z 0000000180043b78     VImage.obj
 0002:0000aba0       $cppxdata$??Kvips@@YA?AVVImage@0@V?$vector@NV?$allocator@N@std@@@std@@V10@@Z 0000000180043ba0     VImage.obj
 0002:0000abc8       $cppxdata$??Kvips@@YA?AVVImage@0@V10@N@Z 0000000180043bc8     VImage.obj
 0002:0000abf0       $cppxdata$??Kvips@@YA?AVVImage@0@NV10@@Z 0000000180043bf0     VImage.obj
 0002:0000ac18       $cppxdata$??Kvips@@YA?AVVImage@0@V10@0@Z 0000000180043c18     VImage.obj
 0002:0000ac40       $cppxdata$??Xvips@@YAAEAVVImage@0@AEAV10@V?$vector@NV?$allocator@N@std@@@std@@@Z 0000000180043c40     VImage.obj
 0002:0000ac68       $cppxdata$??Xvips@@YAAEAVVImage@0@AEAV10@N@Z 0000000180043c68     VImage.obj
 0002:0000ac90       $cppxdata$??Xvips@@YAAEAVVImage@0@AEAV10@V10@@Z 0000000180043c90     VImage.obj
 0002:0000acb8       $cppxdata$??Dvips@@YA?AVVImage@0@V10@V?$vector@NV?$allocator@N@std@@@std@@@Z 0000000180043cb8     VImage.obj
 0002:0000ace0       $cppxdata$??Dvips@@YA?AVVImage@0@V?$vector@NV?$allocator@N@std@@@std@@V10@@Z 0000000180043ce0     VImage.obj
 0002:0000ad08       $cppxdata$??Dvips@@YA?AVVImage@0@V10@N@Z 0000000180043d08     VImage.obj
 0002:0000ad30       $cppxdata$??Dvips@@YA?AVVImage@0@NV10@@Z 0000000180043d30     VImage.obj
 0002:0000ad58       $cppxdata$??Dvips@@YA?AVVImage@0@V10@0@Z 0000000180043d58     VImage.obj
 0002:0000ad80       $cppxdata$??Gvips@@YA?AVVImage@0@V10@@Z 0000000180043d80     VImage.obj
 0002:0000ada8       $cppxdata$??Zvips@@YAAEAVVImage@0@AEAV10@V?$vector@NV?$allocator@N@std@@@std@@@Z 0000000180043da8     VImage.obj
 0002:0000add0       $cppxdata$??Zvips@@YAAEAVVImage@0@AEAV10@N@Z 0000000180043dd0     VImage.obj
 0002:0000adf8       $cppxdata$??Zvips@@YAAEAVVImage@0@AEAV10@V10@@Z 0000000180043df8     VImage.obj
 0002:0000ae20       $cppxdata$??Gvips@@YA?AVVImage@0@V10@V?$vector@NV?$allocator@N@std@@@std@@@Z 0000000180043e20     VImage.obj
 0002:0000ae48       $cppxdata$??Gvips@@YA?AVVImage@0@V?$vector@NV?$allocator@N@std@@@std@@V10@@Z 0000000180043e48     VImage.obj
 0002:0000ae70       $cppxdata$??Gvips@@YA?AVVImage@0@V10@N@Z 0000000180043e70     VImage.obj
 0002:0000ae98       $cppxdata$??Gvips@@YA?AVVImage@0@NV10@@Z 0000000180043e98     VImage.obj
 0002:0000aec0       $cppxdata$??Gvips@@YA?AVVImage@0@V10@0@Z 0000000180043ec0     VImage.obj
 0002:0000aee8       $cppxdata$??Yvips@@YAAEAVVImage@0@AEAV10@V?$vector@NV?$allocator@N@std@@@std@@@Z 0000000180043ee8     VImage.obj
 0002:0000af10       $cppxdata$??Yvips@@YAAEAVVImage@0@AEAV10@N@Z 0000000180043f10     VImage.obj
 0002:0000af38       $cppxdata$??Yvips@@YAAEAVVImage@0@AEAV10@V10@@Z 0000000180043f38     VImage.obj
 0002:0000af60       $cppxdata$??Hvips@@YA?AVVImage@0@V10@V?$vector@NV?$allocator@N@std@@@std@@@Z 0000000180043f60     VImage.obj
 0002:0000af88       $cppxdata$??Hvips@@YA?AVVImage@0@V?$vector@NV?$allocator@N@std@@@std@@V10@@Z 0000000180043f88     VImage.obj
 0002:0000afb0       $cppxdata$??Hvips@@YA?AVVImage@0@V10@N@Z 0000000180043fb0     VImage.obj
 0002:0000afd8       $cppxdata$??Hvips@@YA?AVVImage@0@NV10@@Z 0000000180043fd8     VImage.obj
 0002:0000b000       $cppxdata$??Hvips@@YA?AVVImage@0@V10@0@Z 0000000180044000     VImage.obj
 0002:0000b028       $cppxdata$?composite@VImage@vips@@QEBA?AV12@V12@W4VipsBlendMode@@PEAVVOption@2@@Z 0000000180044028     VImage.obj
 0002:0000b050       $cppxdata$?bandjoin@VImage@vips@@QEBA?AV12@V12@PEAVVOption@2@@Z 0000000180044050     VImage.obj
 0002:0000b078       $cppxdata$?bandsplit@VImage@vips@@QEBA?AV?$vector@VVImage@vips@@V?$allocator@VVImage@vips@@@std@@@std@@PEAVVOption@2@@Z 0000000180044078     VImage.obj
 0002:0000b0a0       $cppxdata$?globalbalance@VImage@vips@@QEBA?AV12@PEAVVOption@2@@Z 00000001800440a0     VImage.obj
 0002:0000b0c8       $cppxdata$?match@VImage@vips@@QEBA?AV12@V12@HHHHHHHHPEAVVOption@2@@Z 00000001800440c8     VImage.obj
 0002:0000b0f0       $cppxdata$?mosaic1@VImage@vips@@QEBA?AV12@V12@W4VipsDirection@@HHHHHHHHPEAVVOption@2@@Z 00000001800440f0     VImage.obj
 0002:0000b118       $cppxdata$?mosaic@VImage@vips@@QEBA?AV12@V12@W4VipsDirection@@HHHHPEAVVOption@2@@Z 0000000180044118     VImage.obj
 0002:0000b140       $cppxdata$?merge@VImage@vips@@QEBA?AV12@V12@W4VipsDirection@@HHPEAVVOption@2@@Z 0000000180044140     VImage.obj
 0002:0000b168       $cppxdata$?draw_image@VImage@vips@@QEBAXV12@HHPEAVVOption@2@@Z 0000000180044168     VImage.obj
 0002:0000b190       $cppxdata$?draw_flood@VImage@vips@@QEBAXV?$vector@NV?$allocator@N@std@@@std@@HHPEAVVOption@2@@Z 0000000180044190     VImage.obj
 0002:0000b1b8       $cppxdata$?draw_circle@VImage@vips@@QEBAXV?$vector@NV?$allocator@N@std@@@std@@HHHPEAVVOption@2@@Z 00000001800441b8     VImage.obj
 0002:0000b1e0       $cppxdata$?draw_line@VImage@vips@@QEBAXV?$vector@NV?$allocator@N@std@@@std@@HHHHPEAVVOption@2@@Z 00000001800441e0     VImage.obj
 0002:0000b208       $cppxdata$?draw_mask@VImage@vips@@QEBAXV?$vector@NV?$allocator@N@std@@@std@@V12@HHPEAVVOption@2@@Z 0000000180044208     VImage.obj
 0002:0000b230       $cppxdata$?draw_rect@VImage@vips@@QEBAXV?$vector@NV?$allocator@N@std@@@std@@HHHHPEAVVOption@2@@Z 0000000180044230     VImage.obj
 0002:0000b258       $cppxdata$?fill_nearest@VImage@vips@@QEBA?AV12@PEAVVOption@2@@Z 0000000180044258     VImage.obj
 0002:0000b280       $cppxdata$?labelregions@VImage@vips@@QEBA?AV12@PEAVVOption@2@@Z 0000000180044280     VImage.obj
 0002:0000b2a8       $cppxdata$?phasecor@VImage@vips@@QEBA?AV12@V12@PEAVVOption@2@@Z 00000001800442a8     VImage.obj
 0002:0000b2d0       $cppxdata$?spectrum@VImage@vips@@QEBA?AV12@PEAVVOption@2@@Z 00000001800442d0     VImage.obj
 0002:0000b2f8       $cppxdata$?freqmult@VImage@vips@@QEBA?AV12@V12@PEAVVOption@2@@Z 00000001800442f8     VImage.obj
 0002:0000b320       $cppxdata$?invfft@VImage@vips@@QEBA?AV12@PEAVVOption@2@@Z 0000000180044320     VImage.obj
 0002:0000b348       $cppxdata$?fwfft@VImage@vips@@QEBA?AV12@PEAVVOption@2@@Z 0000000180044348     VImage.obj
 0002:0000b370       $cppxdata$?sobel@VImage@vips@@QEBA?AV12@PEAVVOption@2@@Z 0000000180044370     VImage.obj
 0002:0000b398       $cppxdata$?canny@VImage@vips@@QEBA?AV12@PEAVVOption@2@@Z 0000000180044398     VImage.obj
 0002:0000b3c0       $cppxdata$?gaussblur@VImage@vips@@QEBA?AV12@NPEAVVOption@2@@Z 00000001800443c0     VImage.obj
 0002:0000b3e8       $cppxdata$?sharpen@VImage@vips@@QEBA?AV12@PEAVVOption@2@@Z 00000001800443e8     VImage.obj
 0002:0000b410       $cppxdata$?spcor@VImage@vips@@QEBA?AV12@V12@PEAVVOption@2@@Z 0000000180044410     VImage.obj
 0002:0000b438       $cppxdata$?fastcor@VImage@vips@@QEBA?AV12@V12@PEAVVOption@2@@Z 0000000180044438     VImage.obj
 0002:0000b460       $cppxdata$?convasep@VImage@vips@@QEBA?AV12@V12@PEAVVOption@2@@Z 0000000180044460     VImage.obj
 0002:0000b488       $cppxdata$?convsep@VImage@vips@@QEBA?AV12@V12@PEAVVOption@2@@Z 0000000180044488     VImage.obj
 0002:0000b4b0       $cppxdata$?compass@VImage@vips@@QEBA?AV12@V12@PEAVVOption@2@@Z 00000001800444b0     VImage.obj
 0002:0000b4d8       $cppxdata$?convi@VImage@vips@@QEBA?AV12@V12@PEAVVOption@2@@Z 00000001800444d8     VImage.obj
 0002:0000b500       $cppxdata$?convf@VImage@vips@@QEBA?AV12@V12@PEAVVOption@2@@Z 0000000180044500     VImage.obj
 0002:0000b528       $cppxdata$?conva@VImage@vips@@QEBA?AV12@V12@PEAVVOption@2@@Z 0000000180044528     VImage.obj
 0002:0000b550       $cppxdata$?conv@VImage@vips@@QEBA?AV12@V12@PEAVVOption@2@@Z 0000000180044550     VImage.obj
 0002:0000b578       $cppxdata$?hist_local@VImage@vips@@QEBA?AV12@HHPEAVVOption@2@@Z 0000000180044578     VImage.obj
 0002:0000b5a0       $cppxdata$?hist_plot@VImage@vips@@QEBA?AV12@PEAVVOption@2@@Z 00000001800445a0     VImage.obj
 0002:0000b5c8       $cppxdata$?hist_equal@VImage@vips@@QEBA?AV12@PEAVVOption@2@@Z 00000001800445c8     VImage.obj
 0002:0000b5f0       $cppxdata$?hist_norm@VImage@vips@@QEBA?AV12@PEAVVOption@2@@Z 00000001800445f0     VImage.obj
 0002:0000b618       $cppxdata$?hist_match@VImage@vips@@QEBA?AV12@V12@PEAVVOption@2@@Z 0000000180044618     VImage.obj
 0002:0000b640       $cppxdata$?hist_cum@VImage@vips@@QEBA?AV12@PEAVVOption@2@@Z 0000000180044640     VImage.obj
 0002:0000b668       $cppxdata$?stdif@VImage@vips@@QEBA?AV12@HHPEAVVOption@2@@Z 0000000180044668     VImage.obj
 0002:0000b690       $cppxdata$?maplut@VImage@vips@@QEBA?AV12@V12@PEAVVOption@2@@Z 0000000180044690     VImage.obj
 0002:0000b6b8       $cppxdata$?scRGB2sRGB@VImage@vips@@QEBA?AV12@PEAVVOption@2@@Z 00000001800446b8     VImage.obj
 0002:0000b6e0       $cppxdata$?scRGB2BW@VImage@vips@@QEBA?AV12@PEAVVOption@2@@Z 00000001800446e0     VImage.obj
 0002:0000b708       $cppxdata$?sRGB2scRGB@VImage@vips@@QEBA?AV12@PEAVVOption@2@@Z 0000000180044708     VImage.obj
 0002:0000b730       $cppxdata$?dECMC@VImage@vips@@QEBA?AV12@V12@PEAVVOption@2@@Z 0000000180044730     VImage.obj
 0002:0000b758       $cppxdata$?dE00@VImage@vips@@QEBA?AV12@V12@PEAVVOption@2@@Z 0000000180044758     VImage.obj
 0002:0000b780       $cppxdata$?dE76@VImage@vips@@QEBA?AV12@V12@PEAVVOption@2@@Z 0000000180044780     VImage.obj
 0002:0000b7a8       $cppxdata$?icc_transform@VImage@vips@@QEBA?AV12@PEADPEAVVOption@2@@Z 00000001800447a8     VImage.obj
 0002:0000b7d0       $cppxdata$?icc_export@VImage@vips@@QEBA?AV12@PEAVVOption@2@@Z 00000001800447d0     VImage.obj
 0002:0000b7f8       $cppxdata$?icc_import@VImage@vips@@QEBA?AV12@PEAVVOption@2@@Z 00000001800447f8     VImage.obj
 0002:0000b820       $cppxdata$?HSV2sRGB@VImage@vips@@QEBA?AV12@PEAVVOption@2@@Z 0000000180044820     VImage.obj
 0002:0000b848       $cppxdata$?sRGB2HSV@VImage@vips@@QEBA?AV12@PEAVVOption@2@@Z 0000000180044848     VImage.obj
 0002:0000b870       $cppxdata$?LabQ2sRGB@VImage@vips@@QEBA?AV12@PEAVVOption@2@@Z 0000000180044870     VImage.obj
 0002:0000b898       $cppxdata$?float2rad@VImage@vips@@QEBA?AV12@PEAVVOption@2@@Z 0000000180044898     VImage.obj
 0002:0000b8c0       $cppxdata$?rad2float@VImage@vips@@QEBA?AV12@PEAVVOption@2@@Z 00000001800448c0     VImage.obj
 0002:0000b8e8       $cppxdata$?Lab2LabS@VImage@vips@@QEBA?AV12@PEAVVOption@2@@Z 00000001800448e8     VImage.obj
 0002:0000b910       $cppxdata$?LabS2Lab@VImage@vips@@QEBA?AV12@PEAVVOption@2@@Z 0000000180044910     VImage.obj
 0002:0000b938       $cppxdata$?LabS2LabQ@VImage@vips@@QEBA?AV12@PEAVVOption@2@@Z 0000000180044938     VImage.obj
 0002:0000b960       $cppxdata$?LabQ2LabS@VImage@vips@@QEBA?AV12@PEAVVOption@2@@Z 0000000180044960     VImage.obj
 0002:0000b988       $cppxdata$?Lab2LabQ@VImage@vips@@QEBA?AV12@PEAVVOption@2@@Z 0000000180044988     VImage.obj
 0002:0000b9b0       $cppxdata$?LabQ2Lab@VImage@vips@@QEBA?AV12@PEAVVOption@2@@Z 00000001800449b0     VImage.obj
 0002:0000b9d8       $cppxdata$?XYZ2scRGB@VImage@vips@@QEBA?AV12@PEAVVOption@2@@Z 00000001800449d8     VImage.obj
 0002:0000ba00       $cppxdata$?scRGB2XYZ@VImage@vips@@QEBA?AV12@PEAVVOption@2@@Z 0000000180044a00     VImage.obj
 0002:0000ba28       $cppxdata$?Yxy2XYZ@VImage@vips@@QEBA?AV12@PEAVVOption@2@@Z 0000000180044a28     VImage.obj
 0002:0000ba50       $cppxdata$?XYZ2Yxy@VImage@vips@@QEBA?AV12@PEAVVOption@2@@Z 0000000180044a50     VImage.obj
 0002:0000ba78       $cppxdata$?CMC2LCh@VImage@vips@@QEBA?AV12@PEAVVOption@2@@Z 0000000180044a78     VImage.obj
 0002:0000baa0       $cppxdata$?LCh2CMC@VImage@vips@@QEBA?AV12@PEAVVOption@2@@Z 0000000180044aa0     VImage.obj
 0002:0000bac8       $cppxdata$?LCh2Lab@VImage@vips@@QEBA?AV12@PEAVVOption@2@@Z 0000000180044ac8     VImage.obj
 0002:0000baf0       $cppxdata$?Lab2LCh@VImage@vips@@QEBA?AV12@PEAVVOption@2@@Z 0000000180044af0     VImage.obj
 0002:0000bb18       $cppxdata$?XYZ2Lab@VImage@vips@@QEBA?AV12@PEAVVOption@2@@Z 0000000180044b18     VImage.obj
 0002:0000bb40       $cppxdata$?Lab2XYZ@VImage@vips@@QEBA?AV12@PEAVVOption@2@@Z 0000000180044b40     VImage.obj
 0002:0000bb68       $cppxdata$?colourspace@VImage@vips@@QEBA?AV12@W4VipsInterpretation@@PEAVVOption@2@@Z 0000000180044b68     VImage.obj
 0002:0000bb90       $cppxdata$?resize@VImage@vips@@QEBA?AV12@NPEAVVOption@2@@Z 0000000180044b90     VImage.obj
 0002:0000bbb8       $cppxdata$?rotate@VImage@vips@@QEBA?AV12@NPEAVVOption@2@@Z 0000000180044bb8     VImage.obj
 0002:0000bbe0       $cppxdata$?similarity@VImage@vips@@QEBA?AV12@PEAVVOption@2@@Z 0000000180044be0     VImage.obj
 0002:0000bc08       $cppxdata$?affine@VImage@vips@@QEBA?AV12@V?$vector@NV?$allocator@N@std@@@std@@PEAVVOption@2@@Z 0000000180044c08     VImage.obj
 0002:0000bc30       $cppxdata$?quadratic@VImage@vips@@QEBA?AV12@V12@PEAVVOption@2@@Z 0000000180044c30     VImage.obj
 0002:0000bc58       $cppxdata$?reduce@VImage@vips@@QEBA?AV12@NNPEAVVOption@2@@Z 0000000180044c58     VImage.obj
 0002:0000bc80       $cppxdata$?reducev@VImage@vips@@QEBA?AV12@NPEAVVOption@2@@Z 0000000180044c80     VImage.obj
 0002:0000bca8       $cppxdata$?reduceh@VImage@vips@@QEBA?AV12@NPEAVVOption@2@@Z 0000000180044ca8     VImage.obj
 0002:0000bcd0       $cppxdata$?shrinkv@VImage@vips@@QEBA?AV12@HPEAVVOption@2@@Z 0000000180044cd0     VImage.obj
 0002:0000bcf8       $cppxdata$?shrinkh@VImage@vips@@QEBA?AV12@HPEAVVOption@2@@Z 0000000180044cf8     VImage.obj
 0002:0000bd20       $cppxdata$?shrink@VImage@vips@@QEBA?AV12@NNPEAVVOption@2@@Z 0000000180044d20     VImage.obj
 0002:0000bd48       $cppxdata$?mapim@VImage@vips@@QEBA?AV12@V12@PEAVVOption@2@@Z 0000000180044d48     VImage.obj
 0002:0000bd70       $cppxdata$?thumbnail_image@VImage@vips@@QEBA?AV12@HPEAVVOption@2@@Z 0000000180044d70     VImage.obj
 0002:0000bd98       $cppxdata$?thumbnail_buffer@VImage@vips@@SA?AV12@PEAU_VipsBlob@@HPEAVVOption@2@@Z 0000000180044d98     VImage.obj
 0002:0000bdc0       $cppxdata$?thumbnail@VImage@vips@@SA?AV12@PEADHPEAVVOption@2@@Z 0000000180044dc0     VImage.obj
 0002:0000bde8       $cppxdata$?openexrload@VImage@vips@@SA?AV12@PEADPEAVVOption@2@@Z 0000000180044de8     VImage.obj
 0002:0000be10       $cppxdata$?fitsload@VImage@vips@@SA?AV12@PEADPEAVVOption@2@@Z 0000000180044e10     VImage.obj
 0002:0000be38       $cppxdata$?magickload_buffer@VImage@vips@@SA?AV12@PEAU_VipsBlob@@PEAVVOption@2@@Z 0000000180044e38     VImage.obj
 0002:0000be60       $cppxdata$?magickload@VImage@vips@@SA?AV12@PEADPEAVVOption@2@@Z 0000000180044e60     VImage.obj
 0002:0000be88       $cppxdata$?openslideload@VImage@vips@@SA?AV12@PEADPEAVVOption@2@@Z 0000000180044e88     VImage.obj
 0002:0000beb0       $cppxdata$?tiffload_buffer@VImage@vips@@SA?AV12@PEAU_VipsBlob@@PEAVVOption@2@@Z 0000000180044eb0     VImage.obj
 0002:0000bed8       $cppxdata$?tiffload@VImage@vips@@SA?AV12@PEADPEAVVOption@2@@Z 0000000180044ed8     VImage.obj
 0002:0000bf00       $cppxdata$?webpload_buffer@VImage@vips@@SA?AV12@PEAU_VipsBlob@@PEAVVOption@2@@Z 0000000180044f00     VImage.obj
 0002:0000bf28       $cppxdata$?webpload@VImage@vips@@SA?AV12@PEADPEAVVOption@2@@Z 0000000180044f28     VImage.obj
 0002:0000bf50       $cppxdata$?jpegload_buffer@VImage@vips@@SA?AV12@PEAU_VipsBlob@@PEAVVOption@2@@Z 0000000180044f50     VImage.obj
 0002:0000bf78       $cppxdata$?jpegload@VImage@vips@@SA?AV12@PEADPEAVVOption@2@@Z 0000000180044f78     VImage.obj
 0002:0000bfa0       $cppxdata$?matload@VImage@vips@@SA?AV12@PEADPEAVVOption@2@@Z 0000000180044fa0     VImage.obj
 0002:0000bfc8       $cppxdata$?pngload_buffer@VImage@vips@@SA?AV12@PEAU_VipsBlob@@PEAVVOption@2@@Z 0000000180044fc8     VImage.obj
 0002:0000bff0       $cppxdata$?pngload@VImage@vips@@SA?AV12@PEADPEAVVOption@2@@Z 0000000180044ff0     VImage.obj
 0002:0000c018       $cppxdata$?gifload_buffer@VImage@vips@@SA?AV12@PEAU_VipsBlob@@PEAVVOption@2@@Z 0000000180045018     VImage.obj
 0002:0000c040       $cppxdata$?gifload@VImage@vips@@SA?AV12@PEADPEAVVOption@2@@Z 0000000180045040     VImage.obj
 0002:0000c068       $cppxdata$?svgload_buffer@VImage@vips@@SA?AV12@PEAU_VipsBlob@@PEAVVOption@2@@Z 0000000180045068     VImage.obj
 0002:0000c090       $cppxdata$?svgload@VImage@vips@@SA?AV12@PEADPEAVVOption@2@@Z 0000000180045090     VImage.obj
 0002:0000c0b8       $cppxdata$?pdfload_buffer@VImage@vips@@SA?AV12@PEAU_VipsBlob@@PEAVVOption@2@@Z 00000001800450b8     VImage.obj
 0002:0000c0e0       $cppxdata$?pdfload@VImage@vips@@SA?AV12@PEADPEAVVOption@2@@Z 00000001800450e0     VImage.obj
 0002:0000c108       $cppxdata$?radload@VImage@vips@@SA?AV12@PEADPEAVVOption@2@@Z 0000000180045108     VImage.obj
 0002:0000c130       $cppxdata$?ppmload@VImage@vips@@SA?AV12@PEADPEAVVOption@2@@Z 0000000180045130     VImage.obj
 0002:0000c158       $cppxdata$?analyzeload@VImage@vips@@SA?AV12@PEADPEAVVOption@2@@Z 0000000180045158     VImage.obj
 0002:0000c180       $cppxdata$?vipsload@VImage@vips@@SA?AV12@PEADPEAVVOption@2@@Z 0000000180045180     VImage.obj
 0002:0000c1a8       $cppxdata$?rawload@VImage@vips@@SA?AV12@PEADHHHPEAVVOption@2@@Z 00000001800451a8     VImage.obj
 0002:0000c1d0       $cppxdata$?matrixload@VImage@vips@@SA?AV12@PEADPEAVVOption@2@@Z 00000001800451d0     VImage.obj
 0002:0000c1f8       $cppxdata$?csvload@VImage@vips@@SA?AV12@PEADPEAVVOption@2@@Z 00000001800451f8     VImage.obj
 0002:0000c220       $cppxdata$?perlin@VImage@vips@@SA?AV12@HHPEAVVOption@2@@Z 0000000180045220     VImage.obj
 0002:0000c248       $cppxdata$?worley@VImage@vips@@SA?AV12@HHPEAVVOption@2@@Z 0000000180045248     VImage.obj
 0002:0000c270       $cppxdata$?fractsurf@VImage@vips@@SA?AV12@HHNPEAVVOption@2@@Z 0000000180045270     VImage.obj
 0002:0000c298       $cppxdata$?identity@VImage@vips@@SA?AV12@PEAVVOption@2@@Z 0000000180045298     VImage.obj
 0002:0000c2c0       $cppxdata$?tonelut@VImage@vips@@SA?AV12@PEAVVOption@2@@Z 00000001800452c0     VImage.obj
 0002:0000c2e8       $cppxdata$?invertlut@VImage@vips@@QEBA?AV12@PEAVVOption@2@@Z 00000001800452e8     VImage.obj
 0002:0000c310       $cppxdata$?buildlut@VImage@vips@@QEBA?AV12@PEAVVOption@2@@Z 0000000180045310     VImage.obj
 0002:0000c338       $cppxdata$?mask_fractal@VImage@vips@@SA?AV12@HHNPEAVVOption@2@@Z 0000000180045338     VImage.obj
 0002:0000c360       $cppxdata$?mask_gaussian_band@VImage@vips@@SA?AV12@HHNNNNPEAVVOption@2@@Z 0000000180045360     VImage.obj
 0002:0000c388       $cppxdata$?mask_gaussian_ring@VImage@vips@@SA?AV12@HHNNNPEAVVOption@2@@Z 0000000180045388     VImage.obj
 0002:0000c3b0       $cppxdata$?mask_gaussian@VImage@vips@@SA?AV12@HHNNPEAVVOption@2@@Z 00000001800453b0     VImage.obj
 0002:0000c3d8       $cppxdata$?mask_butterworth_band@VImage@vips@@SA?AV12@HHNNNNNPEAVVOption@2@@Z 00000001800453d8     VImage.obj
 0002:0000c400       $cppxdata$?mask_butterworth_ring@VImage@vips@@SA?AV12@HHNNNNPEAVVOption@2@@Z 0000000180045400     VImage.obj
 0002:0000c428       $cppxdata$?mask_butterworth@VImage@vips@@SA?AV12@HHNNNPEAVVOption@2@@Z 0000000180045428     VImage.obj
 0002:0000c450       $cppxdata$?mask_ideal_band@VImage@vips@@SA?AV12@HHNNNPEAVVOption@2@@Z 0000000180045450     VImage.obj
 0002:0000c478       $cppxdata$?mask_ideal_ring@VImage@vips@@SA?AV12@HHNNPEAVVOption@2@@Z 0000000180045478     VImage.obj
 0002:0000c4a0       $cppxdata$?mask_ideal@VImage@vips@@SA?AV12@HHNPEAVVOption@2@@Z 00000001800454a0     VImage.obj
 0002:0000c4c8       $cppxdata$?sines@VImage@vips@@SA?AV12@HHPEAVVOption@2@@Z 00000001800454c8     VImage.obj
 0002:0000c4f0       $cppxdata$?zone@VImage@vips@@SA?AV12@HHPEAVVOption@2@@Z 00000001800454f0     VImage.obj
 0002:0000c518       $cppxdata$?grey@VImage@vips@@SA?AV12@HHPEAVVOption@2@@Z 0000000180045518     VImage.obj
 0002:0000c540       $cppxdata$?eye@VImage@vips@@SA?AV12@HHPEAVVOption@2@@Z 0000000180045540     VImage.obj
 0002:0000c568       $cppxdata$?logmat@VImage@vips@@SA?AV12@NNPEAVVOption@2@@Z 0000000180045568     VImage.obj
 0002:0000c590       $cppxdata$?gaussmat@VImage@vips@@SA?AV12@NNPEAVVOption@2@@Z 0000000180045590     VImage.obj
 0002:0000c5b8       $cppxdata$?xyz@VImage@vips@@SA?AV12@HHPEAVVOption@2@@Z 00000001800455b8     VImage.obj
 0002:0000c5e0       $cppxdata$?text@VImage@vips@@SA?AV12@PEADPEAVVOption@2@@Z 00000001800455e0     VImage.obj
 0002:0000c608       $cppxdata$?gaussnoise@VImage@vips@@SA?AV12@HHPEAVVOption@2@@Z 0000000180045608     VImage.obj
 0002:0000c630       $cppxdata$?black@VImage@vips@@SA?AV12@HHPEAVVOption@2@@Z 0000000180045630     VImage.obj
 0002:0000c658       $cppxdata$?composite2@VImage@vips@@QEBA?AV12@V12@W4VipsBlendMode@@PEAVVOption@2@@Z 0000000180045658     VImage.obj
 0002:0000c680       $cppxdata$?composite@VImage@vips@@SA?AV12@V?$vector@VVImage@vips@@V?$allocator@VVImage@vips@@@std@@@std@@V?$vector@HV?$allocator@H@std@@@4@PEAVVOption@2@@Z 0000000180045680     VImage.obj
 0002:0000c6a8       $cppxdata$?gamma@VImage@vips@@QEBA?AV12@PEAVVOption@2@@Z 00000001800456a8     VImage.obj
 0002:0000c6d0       $cppxdata$?falsecolour@VImage@vips@@QEBA?AV12@PEAVVOption@2@@Z 00000001800456d0     VImage.obj
 0002:0000c6f8       $cppxdata$?byteswap@VImage@vips@@QEBA?AV12@PEAVVOption@2@@Z 00000001800456f8     VImage.obj
 0002:0000c720       $cppxdata$?msb@VImage@vips@@QEBA?AV12@PEAVVOption@2@@Z 0000000180045720     VImage.obj
 0002:0000c748       $cppxdata$?subsample@VImage@vips@@QEBA?AV12@HHPEAVVOption@2@@Z 0000000180045748     VImage.obj
 0002:0000c770       $cppxdata$?zoom@VImage@vips@@QEBA?AV12@HHPEAVVOption@2@@Z 0000000180045770     VImage.obj
 0002:0000c798       $cppxdata$?wrap@VImage@vips@@QEBA?AV12@PEAVVOption@2@@Z 0000000180045798     VImage.obj
 0002:0000c7c0       $cppxdata$?scale@VImage@vips@@QEBA?AV12@PEAVVOption@2@@Z 00000001800457c0     VImage.obj
 0002:0000c7e8       $cppxdata$?transpose3d@VImage@vips@@QEBA?AV12@PEAVVOption@2@@Z 00000001800457e8     VImage.obj
 0002:0000c810       $cppxdata$?grid@VImage@vips@@QEBA?AV12@HHHPEAVVOption@2@@Z 0000000180045810     VImage.obj
 0002:0000c838       $cppxdata$?unpremultiply@VImage@vips@@QEBA?AV12@PEAVVOption@2@@Z 0000000180045838     VImage.obj
 0002:0000c860       $cppxdata$?premultiply@VImage@vips@@QEBA?AV12@PEAVVOption@2@@Z 0000000180045860     VImage.obj
 0002:0000c888       $cppxdata$?flatten@VImage@vips@@QEBA?AV12@PEAVVOption@2@@Z 0000000180045888     VImage.obj
 0002:0000c8b0       $cppxdata$?bandunfold@VImage@vips@@QEBA?AV12@PEAVVOption@2@@Z 00000001800458b0     VImage.obj
 0002:0000c8d8       $cppxdata$?bandfold@VImage@vips@@QEBA?AV12@PEAVVOption@2@@Z 00000001800458d8     VImage.obj
 0002:0000c900       $cppxdata$?recomb@VImage@vips@@QEBA?AV12@V12@PEAVVOption@2@@Z 0000000180045900     VImage.obj
 0002:0000c928       $cppxdata$?autorot@VImage@vips@@QEBA?AV12@PEAVVOption@2@@Z 0000000180045928     VImage.obj
 0002:0000c950       $cppxdata$?rot45@VImage@vips@@QEBA?AV12@PEAVVOption@2@@Z 0000000180045950     VImage.obj
 0002:0000c978       $cppxdata$?cast@VImage@vips@@QEBA?AV12@W4VipsBandFormat@@PEAVVOption@2@@Z 0000000180045978     VImage.obj
 0002:0000c9a0       $cppxdata$?replicate@VImage@vips@@QEBA?AV12@HHPEAVVOption@2@@Z 00000001800459a0     VImage.obj
 0002:0000c9c8       $cppxdata$?bandbool@VImage@vips@@QEBA?AV12@W4VipsOperationBoolean@@PEAVVOption@2@@Z 00000001800459c8     VImage.obj
 0002:0000c9f0       $cppxdata$?bandmean@VImage@vips@@QEBA?AV12@PEAVVOption@2@@Z 00000001800459f0     VImage.obj
 0002:0000ca18       $cppxdata$?bandrank@VImage@vips@@SA?AV12@V?$vector@VVImage@vips@@V?$allocator@VVImage@vips@@@std@@@std@@PEAVVOption@2@@Z 0000000180045a18     VImage.obj
 0002:0000ca40       $cppxdata$?bandjoin@VImage@vips@@SA?AV12@V?$vector@VVImage@vips@@V?$allocator@VVImage@vips@@@std@@@std@@PEAVVOption@2@@Z 0000000180045a40     VImage.obj
 0002:0000ca68       $cppxdata$?extract_band@VImage@vips@@QEBA?AV12@HPEAVVOption@2@@Z 0000000180045a68     VImage.obj
 0002:0000ca90       $cppxdata$?smartcrop@VImage@vips@@QEBA?AV12@HHPEAVVOption@2@@Z 0000000180045a90     VImage.obj
 0002:0000cab8       $cppxdata$?extract_area@VImage@vips@@QEBA?AV12@HHHHPEAVVOption@2@@Z 0000000180045ab8     VImage.obj
 0002:0000cae0       $cppxdata$?arrayjoin@VImage@vips@@SA?AV12@V?$vector@VVImage@vips@@V?$allocator@VVImage@vips@@@std@@@std@@PEAVVOption@2@@Z 0000000180045ae0     VImage.obj
 0002:0000cb08       $cppxdata$?join@VImage@vips@@QEBA?AV12@V12@W4VipsDirection@@PEAVVOption@2@@Z 0000000180045b08     VImage.obj
 0002:0000cb30       $cppxdata$?insert@VImage@vips@@QEBA?AV12@V12@HHPEAVVOption@2@@Z 0000000180045b30     VImage.obj
 0002:0000cb58       $cppxdata$?gravity@VImage@vips@@QEBA?AV12@W4VipsCompassDirection@@HHPEAVVOption@2@@Z 0000000180045b58     VImage.obj
 0002:0000cb80       $cppxdata$?embed@VImage@vips@@QEBA?AV12@HHHHPEAVVOption@2@@Z 0000000180045b80     VImage.obj
 0002:0000cba8       $cppxdata$?cache@VImage@vips@@QEBA?AV12@PEAVVOption@2@@Z 0000000180045ba8     VImage.obj
 0002:0000cbd0       $cppxdata$?sequential@VImage@vips@@QEBA?AV12@PEAVVOption@2@@Z 0000000180045bd0     VImage.obj
 0002:0000cbf8       $cppxdata$?linecache@VImage@vips@@QEBA?AV12@PEAVVOption@2@@Z 0000000180045bf8     VImage.obj
 0002:0000cc20       $cppxdata$?tilecache@VImage@vips@@QEBA?AV12@PEAVVOption@2@@Z 0000000180045c20     VImage.obj
 0002:0000cc48       $cppxdata$?copy@VImage@vips@@QEBA?AV12@PEAVVOption@2@@Z 0000000180045c48     VImage.obj
 0002:0000cc70       $cppxdata$?getpoint@VImage@vips@@QEBA?AV?$vector@NV?$allocator@N@std@@@std@@HHPEAVVOption@2@@Z 0000000180045c70     VImage.obj
 0002:0000cc98       $cppxdata$?measure@VImage@vips@@QEBA?AV12@HHPEAVVOption@2@@Z 0000000180045c98     VImage.obj
 0002:0000ccc0       $cppxdata$?profile@VImage@vips@@QEBA?AV12@PEAV12@PEAVVOption@2@@Z 0000000180045cc0     VImage.obj
 0002:0000cce8       $cppxdata$?project@VImage@vips@@QEBA?AV12@PEAV12@PEAVVOption@2@@Z 0000000180045ce8     VImage.obj
 0002:0000cd10       $cppxdata$?hough_circle@VImage@vips@@QEBA?AV12@PEAVVOption@2@@Z 0000000180045d10     VImage.obj
 0002:0000cd38       $cppxdata$?hough_line@VImage@vips@@QEBA?AV12@PEAVVOption@2@@Z 0000000180045d38     VImage.obj
 0002:0000cd60       $cppxdata$?hist_find_indexed@VImage@vips@@QEBA?AV12@V12@PEAVVOption@2@@Z 0000000180045d60     VImage.obj
 0002:0000cd88       $cppxdata$?hist_find_ndim@VImage@vips@@QEBA?AV12@PEAVVOption@2@@Z 0000000180045d88     VImage.obj
 0002:0000cdb0       $cppxdata$?hist_find@VImage@vips@@QEBA?AV12@PEAVVOption@2@@Z 0000000180045db0     VImage.obj
 0002:0000cdd8       $cppxdata$?stats@VImage@vips@@QEBA?AV12@PEAVVOption@2@@Z 0000000180045dd8     VImage.obj
 0002:0000ce00       $cppxdata$?boolean_const@VImage@vips@@QEBA?AV12@W4VipsOperationBoolean@@V?$vector@NV?$allocator@N@std@@@std@@PEAVVOption@2@@Z 0000000180045e00     VImage.obj
 0002:0000ce28       $cppxdata$?remainder_const@VImage@vips@@QEBA?AV12@V?$vector@NV?$allocator@N@std@@@std@@PEAVVOption@2@@Z 0000000180045e28     VImage.obj
 0002:0000ce50       $cppxdata$?relational_const@VImage@vips@@QEBA?AV12@W4VipsOperationRelational@@V?$vector@NV?$allocator@N@std@@@std@@PEAVVOption@2@@Z 0000000180045e50     VImage.obj
 0002:0000ce78       $cppxdata$?sign@VImage@vips@@QEBA?AV12@PEAVVOption@2@@Z 0000000180045e78     VImage.obj
 0002:0000cea0       $cppxdata$?abs@VImage@vips@@QEBA?AV12@PEAVVOption@2@@Z 0000000180045ea0     VImage.obj
 0002:0000cec8       $cppxdata$?invert@VImage@vips@@QEBA?AV12@PEAVVOption@2@@Z 0000000180045ec8     VImage.obj
 0002:0000cef0       $cppxdata$?sum@VImage@vips@@SA?AV12@V?$vector@VVImage@vips@@V?$allocator@VVImage@vips@@@std@@@std@@PEAVVOption@2@@Z 0000000180045ef0     VImage.obj
 0002:0000cf18       $cppxdata$?complexform@VImage@vips@@QEBA?AV12@V12@PEAVVOption@2@@Z 0000000180045f18     VImage.obj
 0002:0000cf40       $cppxdata$?complex2@VImage@vips@@QEBA?AV12@V12@W4VipsOperationComplex2@@PEAVVOption@2@@Z 0000000180045f40     VImage.obj
 0002:0000cf68       $cppxdata$?boolean@VImage@vips@@QEBA?AV12@V12@W4VipsOperationBoolean@@PEAVVOption@2@@Z 0000000180045f68     VImage.obj
 0002:0000cf90       $cppxdata$?remainder@VImage@vips@@QEBA?AV12@V12@PEAVVOption@2@@Z 0000000180045f90     VImage.obj
 0002:0000cfb8       $cppxdata$?relational@VImage@vips@@QEBA?AV12@V12@W4VipsOperationRelational@@PEAVVOption@2@@Z 0000000180045fb8     VImage.obj
 0002:0000cfe0       $cppxdata$?divide@VImage@vips@@QEBA?AV12@V12@PEAVVOption@2@@Z 0000000180045fe0     VImage.obj
 0002:0000d008       $cppxdata$?multiply@VImage@vips@@QEBA?AV12@V12@PEAVVOption@2@@Z 0000000180046008     VImage.obj
 0002:0000d030       $cppxdata$?subtract@VImage@vips@@QEBA?AV12@V12@PEAVVOption@2@@Z 0000000180046030     VImage.obj
 0002:0000d058       $cppxdata$?add@VImage@vips@@QEBA?AV12@V12@PEAVVOption@2@@Z 0000000180046058     VImage.obj
 0002:0000d080       $cppxdata$?write@VImage@vips@@QEBA?AV12@V12@@Z 0000000180046080     VImage.obj
 0002:0000d0a8       $cppxdata$?new_from_buffer@VImage@vips@@SA?AV12@PEAX_KPEBDPEAVVOption@2@@Z 00000001800460a8     VImage.obj
 0002:0000d0d0       $cppxdata$?new_from_file@VImage@vips@@SA?AV12@PEBDPEAVVOption@2@@Z 00000001800460d0     VImage.obj
 0002:0000d0f8       $cppxdata$?set@VOption@vips@@QEAAPEAV12@PEBDV?$vector@VVImage@vips@@V?$allocator@VVImage@vips@@@std@@@std@@@Z 00000001800460f8     VImage.obj
 0002:0000d120       $cppxdata$?set@VOption@vips@@QEAAPEAV12@PEBDV?$vector@HV?$allocator@H@std@@@std@@@Z 0000000180046120     VImage.obj
 0002:0000d148       $cppxdata$?set@VOption@vips@@QEAAPEAV12@PEBDV?$vector@NV?$allocator@N@std@@@std@@@Z 0000000180046148     VImage.obj
 0002:0000d170       $cppxdata$?set@VOption@vips@@QEAAPEAV12@PEBDVVImage@2@@Z 0000000180046170     VImage.obj
 0002:0000d198       $cppxdata$?invert@vips@@YA?AV?$vector@NV?$allocator@N@std@@@std@@V23@@Z 0000000180046198     VImage.obj
 0002:0000d1c0       $cppxdata$?negate@vips@@YA?AV?$vector@NV?$allocator@N@std@@@std@@V23@@Z 00000001800461c0     VImage.obj
 0002:0000d1e8       $cppxdata$?rank@VImage@vips@@QEBA?AV12@HHHPEAVVOption@2@@Z 00000001800461e8     VImage.obj
 0002:0000d210       $cppxdata$?morph@VImage@vips@@QEBA?AV12@V12@W4VipsOperationMorphology@@PEAVVOption@2@@Z 0000000180046210     VImage.obj
 0002:0000d238       $cppxdata$?ifthenelse@VImage@vips@@QEBA?AV12@V12@0PEAVVOption@2@@Z 0000000180046238     VImage.obj
 0002:0000d260       $cppxdata$?rot@VImage@vips@@QEBA?AV12@W4VipsAngle@@PEAVVOption@2@@Z 0000000180046260     VImage.obj
 0002:0000d288       $cppxdata$?bandjoin_const@VImage@vips@@QEBA?AV12@V?$vector@NV?$allocator@N@std@@@std@@PEAVVOption@2@@Z 0000000180046288     VImage.obj
 0002:0000d2b0       $cppxdata$?flip@VImage@vips@@QEBA?AV12@W4VipsDirection@@PEAVVOption@2@@Z 00000001800462b0     VImage.obj
 0002:0000d2d8       $cppxdata$?complexget@VImage@vips@@QEBA?AV12@W4VipsOperationComplexget@@PEAVVOption@2@@Z 00000001800462d8     VImage.obj
 0002:0000d300       $cppxdata$?complex@VImage@vips@@QEBA?AV12@W4VipsOperationComplex@@PEAVVOption@2@@Z 0000000180046300     VImage.obj
 0002:0000d328       $cppxdata$?math2_const@VImage@vips@@QEBA?AV12@W4VipsOperationMath2@@V?$vector@NV?$allocator@N@std@@@std@@PEAVVOption@2@@Z 0000000180046328     VImage.obj
 0002:0000d350       $cppxdata$?round@VImage@vips@@QEBA?AV12@W4VipsOperationRound@@PEAVVOption@2@@Z 0000000180046350     VImage.obj
 0002:0000d378       $cppxdata$?math@VImage@vips@@QEBA?AV12@W4VipsOperationMath@@PEAVVOption@2@@Z 0000000180046378     VImage.obj
 0002:0000d3a0       $cppxdata$?linear@VImage@vips@@QEBA?AV12@V?$vector@NV?$allocator@N@std@@@std@@0PEAVVOption@2@@Z 00000001800463a0     VImage.obj
 0002:0000d3c8       $cppxdata$?math2@VImage@vips@@QEBA?AV12@V12@W4VipsOperationMath2@@PEAVVOption@2@@Z 00000001800463c8     VImage.obj
 0002:0000dd80       $unwind$??RVImage@vips@@QEBA?AV?$vector@NV?$allocator@N@std@@@std@@HH@Z 0000000180046d80     VImage.obj
 0002:0000dd80       $unwind$?interpretation@VImage@vips@@QEBA?AW4VipsInterpretation@@XZ 0000000180046d80     VError.obj
 0002:0000dd80       $unwind$?guess_interpretation@VImage@vips@@QEBA?AW4VipsInterpretation@@XZ 0000000180046d80     VError.obj
 0002:0000dd80       $unwind$??0length_error@std@@QEAA@PEBD@Z 0000000180046d80     libcpmt:xthrow.obj
 0002:0000dd80       $unwind$?xres@VImage@vips@@QEBANXZ 0000000180046d80     VError.obj
 0002:0000dd80       $unwind$?yres@VImage@vips@@QEBANXZ 0000000180046d80     VError.obj
 0002:0000dd80       $unwind$?coding@VImage@vips@@QEBA?AW4VipsCoding@@XZ 0000000180046d80     VError.obj
 0002:0000dd80       $unwind$?get_image@VImage@vips@@QEBAPEAU_VipsImage@@XZ 0000000180046d80     VError.obj
 0002:0000dd80       $unwind$?yoffset@VImage@vips@@QEBAHXZ 0000000180046d80     VError.obj
 0002:0000dd80       $unwind$?filename@VImage@vips@@QEBAPEBDXZ 0000000180046d80     VError.obj
 0002:0000dd80       $unwind$?data@VImage@vips@@QEBAPEBXXZ 0000000180046d80     VError.obj
 0002:0000dd80       $unwind$?width@VImage@vips@@QEBAHXZ 0000000180046d80     VError.obj
 0002:0000dd80       $unwind$?height@VImage@vips@@QEBAHXZ 0000000180046d80     VError.obj
 0002:0000dd80       $unwind$?bands@VImage@vips@@QEBAHXZ 0000000180046d80     VError.obj
 0002:0000dd80       $unwind$?xoffset@VImage@vips@@QEBAHXZ 0000000180046d80     VError.obj
 0002:0000dd80       $unwind$?format@VImage@vips@@QEBA?AW4VipsBandFormat@@XZ 0000000180046d80     VError.obj
 0002:0000dd80       $unwind$?_Raise@exception@stdext@@QEBAXXZ 0000000180046d80     VError.obj
 0002:0000dd80       $unwind$?equivalent@error_category@std@@UEBA_NHAEBVerror_condition@2@@Z 0000000180046d80     VError.obj
 0002:0000dd80       $unwind$??1VInterpolate@vips@@QEAA@XZ 0000000180046d80     VError.obj
 0002:0000dd80       $unwind$?get_interpolate@VInterpolate@vips@@QEBAPEAU_VipsInterpolate@@XZ 0000000180046d80     VError.obj
 0002:0000dd80       $unwind$?median@VImage@vips@@QEBA?AV12@HPEAVVOption@2@@Z 0000000180046d80     VError.obj
 0002:0000dd80       $unwind$??1VImage@vips@@QEAA@XZ 0000000180046d80     VError.obj
 0002:0000dd80       $unwind$?__mbrtowc_utf8@__crt_mbstring@@YA_KPEA_WPEBD_KPEAU_Mbstatet@@@Z 0000000180046d80     libucrt:mbrtowc.obj
 0002:0000dd88       $unwind$?rint@VImage@vips@@QEBA?AV12@PEAVVOption@2@@Z 0000000180046d88     VError.obj
 0002:0000dd88       $unwind$?real@VImage@vips@@QEBA?AV12@PEAVVOption@2@@Z 0000000180046d88     VError.obj
 0002:0000dd88       $unwind$?imag@VImage@vips@@QEBA?AV12@PEAVVOption@2@@Z 0000000180046d88     VError.obj
 0002:0000dd88       $unwind$?polar@VImage@vips@@QEBA?AV12@PEAVVOption@2@@Z 0000000180046d88     VError.obj
 0002:0000dd88       $unwind$??1?$vector@VVImage@vips@@V?$allocator@VVImage@vips@@@std@@@std@@QEAA@XZ 0000000180046d88     VImage.obj
 0002:0000dd88       $unwind$??1?$vector@HV?$allocator@H@std@@@std@@QEAA@XZ 0000000180046d88     VImage.obj
 0002:0000dd88       $unwind$?rect@VImage@vips@@QEBA?AV12@PEAVVOption@2@@Z 0000000180046d88     VError.obj
 0002:0000dd88       $unwind$?conj@VImage@vips@@QEBA?AV12@PEAVVOption@2@@Z 0000000180046d88     VError.obj
 0002:0000dd88       $unwind$?sin@VImage@vips@@QEBA?AV12@PEAVVOption@2@@Z 0000000180046d88     VError.obj
 0002:0000dd88       $unwind$?cos@VImage@vips@@QEBA?AV12@PEAVVOption@2@@Z 0000000180046d88     VError.obj
 0002:0000dd88       $unwind$?tan@VImage@vips@@QEBA?AV12@PEAVVOption@2@@Z 0000000180046d88     VError.obj
 0002:0000dd88       $unwind$?asin@VImage@vips@@QEBA?AV12@PEAVVOption@2@@Z 0000000180046d88     VError.obj
 0002:0000dd88       $unwind$?acos@VImage@vips@@QEBA?AV12@PEAVVOption@2@@Z 0000000180046d88     VError.obj
 0002:0000dd88       $unwind$?atan@VImage@vips@@QEBA?AV12@PEAVVOption@2@@Z 0000000180046d88     VError.obj
 0002:0000dd88       $unwind$?ceil@VImage@vips@@QEBA?AV12@PEAVVOption@2@@Z 0000000180046d88     VError.obj
 0002:0000dd88       $unwind$?log10@VImage@vips@@QEBA?AV12@PEAVVOption@2@@Z 0000000180046d88     VError.obj
 0002:0000dd88       $unwind$?exp@VImage@vips@@QEBA?AV12@PEAVVOption@2@@Z 0000000180046d88     VError.obj
 0002:0000dd88       $unwind$?exp10@VImage@vips@@QEBA?AV12@PEAVVOption@2@@Z 0000000180046d88     VError.obj
 0002:0000dd88       $unwind$?floor@VImage@vips@@QEBA?AV12@PEAVVOption@2@@Z 0000000180046d88     VError.obj
 0002:0000dd88       $unwind$??4VImage@vips@@QEAAAEAV01@AEBV01@@Z 0000000180046d88     VError.obj
 0002:0000dd88       $unwind$??4VImage@vips@@QEAAAEAV01@$$QEAV01@@Z 0000000180046d88     VError.obj
 0002:0000dd88       $unwind$??0VInterpolate@vips@@QEAA@PEAU_VipsInterpolate@@W4VSteal@1@@Z 0000000180046d88     VError.obj
 0002:0000dd88       $unwind$?rot270@VImage@vips@@QEBA?AV12@PEAVVOption@2@@Z 0000000180046d88     VError.obj
 0002:0000dd88       $unwind$?rot180@VImage@vips@@QEBA?AV12@PEAVVOption@2@@Z 0000000180046d88     VError.obj
 0002:0000dd88       $unwind$??4VInterpolate@vips@@QEAAAEAV01@AEBV01@@Z 0000000180046d88     VError.obj
 0002:0000dd88       $unwind$??4VInterpolate@vips@@QEAAAEAV01@$$QEAV01@@Z 0000000180046d88     VError.obj
 0002:0000dd88       $unwind$??1?$vector@NV?$allocator@N@std@@@std@@QEAA@XZ 0000000180046d88     VError.obj
 0002:0000dd88       $unwind$??1?$basic_string@DU?$char_traits@D@std@@V?$allocator@D@2@@std@@QEAA@XZ 0000000180046d88     VError.obj
 0002:0000dd88       $unwind$?_Buy@?$vector@NV?$allocator@N@std@@@std@@AEAA_N_K@Z 0000000180046d88     VError.obj
 0002:0000dd88       $unwind$__scrt_uninitialize_crt 0000000180046d88     LIBCMT:utility.obj
 0002:0000dd88       $unwind$?rot90@VImage@vips@@QEBA?AV12@PEAVVOption@2@@Z 0000000180046d88     VError.obj
 0002:0000dd88       $unwind$??_Gruntime_error@std@@UEAAPEAXI@Z 0000000180046d88     VError.obj
 0002:0000dd88       $unwind$??_Gexception@stdext@@UEAAPEAXI@Z 0000000180046d88     VError.obj
 0002:0000dd88       $unwind$?flipver@VImage@vips@@QEBA?AV12@PEAVVOption@2@@Z 0000000180046d88     VError.obj
 0002:0000dd88       $unwind$?fliphor@VImage@vips@@QEBA?AV12@PEAVVOption@2@@Z 0000000180046d88     VError.obj
 0002:0000dd88       $unwind$?new_memory@VImage@vips@@SA?AV12@XZ 0000000180046d88     VError.obj
 0002:0000dd88       $unwind$?to_vector@vips@@YA?AV?$vector@NV?$allocator@N@std@@@std@@N@Z 0000000180046d88     VImage.obj
 0002:0000dd88       $unwind$??_Gfailure@ios_base@std@@UEAAPEAXI@Z 0000000180046d88     VError.obj
 0002:0000dd88       $unwind$?ExecutionInCatch@__FrameHandler3@@SA_NPEAU_xDISPATCHER_CONTEXT@@PEBU_s_FuncInfo@@@Z 0000000180046d88     libvcruntime:risctrnsctrl.obj
 0002:0000dd88       $unwind$??2@YAPEAX_K@Z     0000000180046d88     LIBCMT:new_scalar.obj
 0002:0000dd88       $unwind$?initialize_pointers@@YAHXZ 0000000180046d88     libcpmt:winapisupp.obj
 0002:0000dd88       $unwind$__scrt_initialize_crt 0000000180046d88     LIBCMT:utility.obj
 0002:0000dd88       $unwind$??AVImage@vips@@QEBA?AV01@H@Z 0000000180046d88     VImage.obj
 0002:0000dd88       $unwind$??0VImage@vips@@QEAA@PEAU_VipsImage@@W4VSteal@1@@Z 0000000180046d88     VError.obj
 0002:0000dd88       $unwind$?new_matrix@VImage@vips@@SA?AV12@HH@Z 0000000180046d88     VImage.obj
 0002:0000dd88       $unwind$??0length_error@std@@QEAA@AEBV01@@Z 0000000180046d88     libcpmt:xthrow.obj
 0002:0000dd88       $unwind$_set_statfp        0000000180046d88     libucrt:fpctrl.obj
 0002:0000dd88       $unwind$_clrfp             0000000180046d88     libucrt:fpctrl.obj
 0002:0000dd88       $unwind$?__c16rtomb_utf8@__crt_mbstring@@YA_KPEAD_SPEAU_Mbstatet@@@Z 0000000180046d88     libucrt:c16rtomb.obj
 0002:0000dd88       $unwind$??_Gtype_info@@UEAAPEAXI@Z 0000000180046d88     LIBCMT:std_type_info_static.obj
 0002:0000dd88       $unwind$??_G_System_error@std@@UEAAPEAXI@Z 0000000180046d88     VError.obj
 0002:0000dd88       $unwind$__scrt_release_startup_lock 0000000180046d88     LIBCMT:utility.obj
 0002:0000dd88       $unwind$?message@_Iostream_error_category@std@@UEBA?AV?$basic_string@DU?$char_traits@D@std@@V?$allocator@D@2@@2@H@Z 0000000180046d88     VError.obj
 0002:0000dd88       $unwind$?log@VImage@vips@@QEBA?AV12@PEAVVOption@2@@Z 0000000180046d88     VError.obj
 0002:0000dd88       $unwind$__acrt_stdio_free_buffer_nolock 0000000180046d88     libucrt:_freebuf.obj
 0002:0000dd88       $unwind$_SetImageBase      0000000180046d88     libvcruntime:risctrnsctrl.obj
 0002:0000dd88       $unwind$??_G_Iostream_error_category@std@@UEAAPEAXI@Z 0000000180046d88     VError.obj
 0002:0000dd88       $unwind$_SetThrowImageBase 0000000180046d88     libvcruntime:risctrnsctrl.obj
 0002:0000dd88       $unwind$_CreateFrameInfo   0000000180046d88     libvcruntime:risctrnsctrl.obj
 0002:0000dd88       $unwind$__acrt_uninitialize_stdio 0000000180046d88     libucrt:_file.obj
 0002:0000dd88       $unwind$_fflush_nolock     0000000180046d88     libucrt:fflush.obj
 0002:0000dd88       $unwind$_IsExceptionObjectToBeDestroyed 0000000180046d88     libvcruntime:ehhelpers.obj
 0002:0000dd88       $unwind$__std_exception_destroy 0000000180046d88     libvcruntime:std_exception.obj
 0002:0000dd88       $unwind$__acrt_AppPolicyGetProcessTerminationMethodInternal 0000000180046d88     libucrt:winapi_thunks.obj
 0002:0000dd88       $unwind$??1VError@vips@@UEAA@XZ 0000000180046d88     VError.obj
 0002:0000dd88       $unwind$__std_type_info_destroy_list 0000000180046d88     libvcruntime:std_type_info.obj
 0002:0000dd88       $unwind$__acrt_FlsGetValue 0000000180046d88     libucrt:winapi_thunks.obj
 0002:0000dd88       $unwind$__acrt_FlsFree     0000000180046d88     libucrt:winapi_thunks.obj
 0002:0000dd88       $unwind$__acrt_FlsAlloc    0000000180046d88     libucrt:winapi_thunks.obj
 0002:0000dd88       $unwind$__acrt_uninitialize_winapi_thunks 0000000180046d88     libucrt:winapi_thunks.obj
 0002:0000dd88       $unwind$__vcrt_freeptd     0000000180046d88     libvcruntime:per_thread_data.obj
 0002:0000dd88       $unwind$_calloc_base       0000000180046d88     libucrt:calloc_base.obj
 0002:0000dd88       $unwind$__acrt_get_process_end_policy 0000000180046d88     libucrt:win_policies.obj
 0002:0000dd88       $unwind$_malloc_base       0000000180046d88     libucrt:malloc_base.obj
 0002:0000dd88       $unwind$__acrt_uninitialize_locks 0000000180046d88     libucrt:locks.obj
 0002:0000dd88       $unwind$__acrt_initialize_locks 0000000180046d88     libucrt:locks.obj
 0002:0000dd88       $unwind$__acrt_update_multibyte_info 0000000180046d88     libucrt:locale_update.obj
 0002:0000dd88       $unwind$__acrt_update_locale_info 0000000180046d88     libucrt:locale_update.obj
 0002:0000dd88       $unwind$?StateFromIp@__FrameHandler3@@SAHPEBU_s_FuncInfo@@PEAU_xDISPATCHER_CONTEXT@@_K@Z 0000000180046d88     libvcruntime:ehstate.obj
 0002:0000dd88       $unwind$?GetUnwindTryBlock@__FrameHandler3@@SAHPEA_KPEAU_xDISPATCHER_CONTEXT@@PEBU_s_FuncInfo@@@Z 0000000180046d88     libvcruntime:ehstate.obj
 0002:0000dd88       $unwind$__acrt_freeptd     0000000180046d88     libucrt:per_thread_data.obj
 0002:0000dd88       $unwind$??0exception@std@@QEAA@AEBV01@@Z 0000000180046d88     libcpmt:xonce.obj
 0002:0000dd88       $unwind$__acrt_getptd_head 0000000180046d88     libucrt:per_thread_data.obj
 0002:0000dd88       $unwind$??0bad_exception@std@@QEAA@AEBV01@@Z 0000000180046d88     libvcruntime:frame.obj
 0002:0000dd88       $unwind$??0logic_error@std@@QEAA@AEBV01@@Z 0000000180046d88     libcpmt:xthrow.obj
 0002:0000dd88       $unwind$?ExFilterRethrow@@YAHPEAU_EXCEPTION_POINTERS@@PEAUEHExceptionRecord@@PEAH@Z 0000000180046d88     libvcruntime:frame.obj
 0002:0000dd88       $unwind$strcpy_s           0000000180046d88     libucrt:strcpy_s.obj
 0002:0000dd88       $unwind$uninitialize_allocated_memory 0000000180046d88     libucrt:initialization.obj
 0002:0000dd88       $unwind$initialize_pointers 0000000180046d88     libucrt:initialization.obj
 0002:0000dd88       $unwind$??0bad_alloc@std@@QEAA@AEBV01@@Z 0000000180046d88     libcpmt:xthrow.obj
 0002:0000dd88       $unwind$__vcrt_initialize_locks 0000000180046d88     libvcruntime:locks.obj
 0002:0000dd88       $unwind$__vcrt_uninitialize_locks 0000000180046d88     libvcruntime:locks.obj
 0002:0000dd88       $unwind$__acrt_allocate_buffer_for_argv 0000000180046d88     libucrt:argv_parsing.obj
 0002:0000dd88       $unwind$??4VError@vips@@QEAAAEAV01@AEBV01@@Z 0000000180046d88     VError.obj
 0002:0000dd88       $unwind$?exit_or_terminate_process@@YAXI@Z 0000000180046d88     libucrt:exit.obj
 0002:0000dd88       $unwind$?try_cor_exit_process@@YAXI@Z 0000000180046d88     libucrt:exit.obj
 0002:0000dd88       $unwind$__vcrt_FlsAlloc    0000000180046d88     libvcruntime:winapi_downlevel.obj
 0002:0000dd88       $unwind$_callnewh          0000000180046d88     libucrt:new_handler.obj
 0002:0000dd88       $unwind$__raise_securityfailure 0000000180046d88     LIBCMT:gs_report.obj
 0002:0000dd88       $unwind$??0bad_array_new_length@std@@QEAA@AEBV01@@Z 0000000180046d88     LIBCMT:throw_bad_alloc.obj
 0002:0000dd88       $unwind$__vcrt_FlsFree     0000000180046d88     libvcruntime:winapi_downlevel.obj
 0002:0000dd88       $unwind$__vcrt_FlsGetValue 0000000180046d88     libvcruntime:winapi_downlevel.obj
 0002:0000dd90       $unwind$__vcrt_FlsSetValue 0000000180046d90     libvcruntime:winapi_downlevel.obj
 0002:0000dd90       $unwind$_initterm_e        0000000180046d90     libucrt:initterm.obj
 0002:0000dd90       $unwind$??_Gexception@std@@UEAAPEAXI@Z 0000000180046d90     libcpmt:xonce.obj
 0002:0000dd90       $unwind$??$common_initialize_environment_nolock@D@@YAHXZ 0000000180046d90     libucrt:environment_initialization.obj
 0002:0000dd90       $unwind$??_Gbad_alloc@std@@UEAAPEAXI@Z 0000000180046d90     libcpmt:xthrow.obj
 0002:0000dd90       $unwind$??_Gbad_exception@std@@UEAAPEAXI@Z 0000000180046d90     libvcruntime:frame.obj
 0002:0000dd90       $unwind$__acrt_getptd      0000000180046d90     libucrt:per_thread_data.obj
 0002:0000dd90       $unwind$__acrt_getptd_noexit 0000000180046d90     libucrt:per_thread_data.obj
 0002:0000dd90       $unwind$?replace_current_thread_locale_nolock@@YAXQEAU__acrt_ptd@@QEAU__crt_locale_data@@@Z 0000000180046d90     libucrt:per_thread_data.obj
 0002:0000dd90       $unwind$?SetUnwindTryBlock@__FrameHandler3@@SAXPEA_KPEAU_xDISPATCHER_CONTEXT@@PEBU_s_FuncInfo@@H@Z 0000000180046d90     libvcruntime:ehstate.obj
 0002:0000dd90       $unwind$__acrt_errno_map_os_error 0000000180046d90     libucrt:errno.obj
 0002:0000dd90       $unwind$??_Glogic_error@std@@UEAAPEAXI@Z 0000000180046d90     libcpmt:xthrow.obj
 0002:0000dd90       $unwind$__acrt_FlsSetValue 0000000180046d90     libucrt:winapi_thunks.obj
 0002:0000dd90       $unwind$__acrt_LocaleNameToLCID 0000000180046d90     libucrt:winapi_thunks.obj
 0002:0000dd90       $unwind$__acrt_uninitialize_lowio 0000000180046d90     libucrt:ioinit.obj
 0002:0000dd90       $unwind$__acrt_execute_uninitializers 0000000180046d90     libucrt:shared_initialization.obj
 0002:0000dd90       $unwind$_FindAndUnlinkFrame 0000000180046d90     libvcruntime:risctrnsctrl.obj
 0002:0000dd90       $unwind$_updatetlocinfoEx_nolock 0000000180046d90     libucrt:locale_refcounting.obj
 0002:0000dd90       $unwind$strncpy_s          0000000180046d90     libucrt:strncpy_s.obj
 0002:0000dd90       $unwind$_realloc_base      0000000180046d90     libucrt:realloc_base.obj
 0002:0000dd90       $unwind$_fclose_nolock     0000000180046d90     libucrt:fclose.obj
 0002:0000dd90       $unwind$_RTC_Terminate     0000000180046d90     LIBCMT:_initsect_.obj
 0002:0000dd90       $unwind$_RTC_Initialize    0000000180046d90     LIBCMT:_initsect_.obj
 0002:0000dd90       $unwind$?make_error_code@std@@YA?AVerror_code@1@W4io_errc@1@@Z 0000000180046d90     VError.obj
 0002:0000dd90       $unwind$??_Glength_error@std@@UEAAPEAXI@Z 0000000180046d90     libcpmt:xthrow.obj
 0002:0000dd90       $unwind$_close_nolock      0000000180046d90     libucrt:close.obj
 0002:0000dd90       $unwind$??_Gbad_array_new_length@std@@UEAAPEAXI@Z 0000000180046d90     LIBCMT:throw_bad_alloc.obj
 0002:0000dd9c       $unwind$??0_System_error@std@@IEAA@Verror_code@1@AEBV?$basic_string@DU?$char_traits@D@std@@V?$allocator@D@2@@1@@Z 0000000180046d9c     VError.obj
 0002:0000ddb8       $stateUnwindMap$??0_System_error@std@@IEAA@Verror_code@1@AEBV?$basic_string@DU?$char_traits@D@std@@V?$allocator@D@2@@1@@Z 0000000180046db8     VError.obj
 0002:0000ddc8       $ip2state$??0_System_error@std@@IEAA@Verror_code@1@AEBV?$basic_string@DU?$char_traits@D@std@@V?$allocator@D@2@@1@@Z 0000000180046dc8     VError.obj
 0002:0000ddf0       $unwind$??0failure@ios_base@std@@QEAA@PEBDAEBVerror_code@2@@Z 0000000180046df0     VError.obj
 0002:0000de08       $stateUnwindMap$??0failure@ios_base@std@@QEAA@PEBDAEBVerror_code@2@@Z 0000000180046e08     VError.obj
 0002:0000de10       $ip2state$??0failure@ios_base@std@@QEAA@PEBDAEBVerror_code@2@@Z 0000000180046e10     VError.obj
 0002:0000de28       $unwind$_log10_special     0000000180046e28     libucrt:log_special.obj
 0002:0000de28       $unwind$_invalid_parameter_noinfo_noreturn 0000000180046e28     libucrt:invalid_parameter.obj
 0002:0000de28       $unwind$_invalid_parameter_noinfo 0000000180046e28     libucrt:invalid_parameter.obj
 0002:0000de28       $unwind$?_Doraise@failure@ios_base@std@@MEBAXXZ 0000000180046e28     VError.obj
 0002:0000de30       $unwind$??0VError@vips@@QEAA@V?$basic_string@DU?$char_traits@D@std@@V?$allocator@D@2@@std@@@Z 0000000180046e30     VError.obj
 0002:0000de48       $stateUnwindMap$??0VError@vips@@QEAA@V?$basic_string@DU?$char_traits@D@std@@V?$allocator@D@2@@std@@@Z 0000000180046e48     VError.obj
 0002:0000de58       $ip2state$??0VError@vips@@QEAA@V?$basic_string@DU?$char_traits@D@std@@V?$allocator@D@2@@std@@@Z 0000000180046e58     VError.obj
 0002:0000de68       $unwind$??0VError@vips@@QEAA@XZ 0000000180046e68     VError.obj
 0002:0000de78       $stateUnwindMap$??0VError@vips@@QEAA@XZ 0000000180046e78     VError.obj
 0002:0000de78       $stateUnwindMap$??0VError@vips@@QEAA@AEBV01@@Z 0000000180046e78     VError.obj
 0002:0000de80       $ip2state$??0VError@vips@@QEAA@XZ 0000000180046e80     VError.obj
 0002:0000de88       $unwind$??0VError@vips@@QEAA@AEBV01@@Z 0000000180046e88     VError.obj
 0002:0000de98       $ip2state$??0VError@vips@@QEAA@AEBV01@@Z 0000000180046e98     VError.obj
 0002:0000dea0       $unwind$??_EVError@vips@@UEAAPEAXI@Z 0000000180046ea0     VError.obj
 0002:0000deac       $chain$0$??_EVError@vips@@UEAAPEAXI@Z 0000000180046eac     VError.obj
 0002:0000dec0       $chain$1$??_EVError@vips@@UEAAPEAXI@Z 0000000180046ec0     VError.obj
 0002:0000ded0       $unwind$?set@VImage@vips@@QEAAXPEBD0@Z 0000000180046ed0     VError.obj
 0002:0000ded0       $unwind$strpbrk            0000000180046ed0     libucrt:strpbrk.obj
 0002:0000ded0       $unwind$??0VObject@vips@@QEAA@PEAU_VipsObject@@W4VSteal@1@@Z 0000000180046ed0     VError.obj
 0002:0000ded0       $unwind$??4VObject@vips@@QEAAAEAV01@AEBV01@@Z 0000000180046ed0     VError.obj
 0002:0000ded0       $unwind$?set@VImage@vips@@QEAAXPEBDH@Z 0000000180046ed0     VError.obj
 0002:0000dee0       $unwind$??0VOption@vips@@QEAA@XZ 0000000180046ee0     VError.obj
 0002:0000deec       $unwind$??0VOption@vips@@QEAA@AEBV01@@Z 0000000180046eec     VError.obj
 0002:0000df04       $stateUnwindMap$??0VOption@vips@@QEAA@AEBV01@@Z 0000000180046f04     VError.obj
 0002:0000df10       $ip2state$??0VOption@vips@@QEAA@AEBV01@@Z 0000000180046f10     VError.obj
 0002:0000df20       $unwind$??4VOption@vips@@QEAAAEAV01@AEBV01@@Z 0000000180046f20     VError.obj
 0002:0000df3c       $unwind$??_EVOption@vips@@UEAAPEAXI@Z 0000000180046f3c     VError.obj
 0002:0000df58       $ip2state$??_EVOption@vips@@UEAAPEAXI@Z 0000000180046f58     VError.obj
 0002:0000df60       $unwind$?set@VImage@vips@@QEAAXPEBDN@Z 0000000180046f60     VError.obj
 0002:0000df70       $unwind$??$__acrt_convert_wcs_mbs@_WD$$A6A_KPEADPEB_W_KPEAU__crt_locale_pointers@@@ZU__crt_win32_buffer_no_resizing@@@@YAHQEB_WAEAV?$__crt_win32_buffer@DU__crt_win32_buffer_no_resizing@@@@A6A_KPEADPEB_W_KPEAU__crt_locale_pointers@@@Z5@Z 0000000180046f70     libucrt:findnextfilea.obj
 0002:0000df70       $unwind$?set@VImage@vips@@QEAAXPEBDP6AHPEAX1@Z1_K@Z 0000000180046f70     VError.obj
 0002:0000df70       $unwind$_invalid_parameter 0000000180046f70     libucrt:invalid_parameter.obj
 0002:0000df84       $unwind$??0VImage@vips@@QEAA@AEBV01@@Z 0000000180046f84     VError.obj
 0002:0000df84       $unwind$?get_typeof@VImage@vips@@QEBA_KPEBD@Z 0000000180046f84     VError.obj
 0002:0000df84       $unwind$??0VImage@vips@@QEAA@$$QEAV01@@Z 0000000180046f84     VError.obj
 0002:0000df84       $unwind$??0VInterpolate@vips@@QEAA@$$QEAV01@@Z 0000000180046f84     VError.obj
 0002:0000df84       $unwind$??0VInterpolate@vips@@QEAA@AEBV01@@Z 0000000180046f84     VError.obj
 0002:0000df90       $unwind$?get_double@VImage@vips@@QEBANPEBD@Z 0000000180046f90     VError.obj
 0002:0000df90       $unwind$?get_string@VImage@vips@@QEBAPEBDPEBD@Z 0000000180046f90     VError.obj
 0002:0000df90       $unwind$?get_int@VImage@vips@@QEBAHPEBD@Z 0000000180046f90     VError.obj
 0002:0000dfa4       $unwind$?get_blob@VImage@vips@@QEBAPEBXPEBDPEA_K@Z 0000000180046fa4     VError.obj
 0002:0000dfa4       $unwind$?new_from_memory@VImage@vips@@SA?AV12@PEAX_KHHHW4VipsBandFormat@@@Z 0000000180046fa4     VError.obj
 0002:0000dfb8       $unwind$?option@VImage@vips@@SAPEAVVOption@2@XZ 0000000180046fb8     VError.obj
 0002:0000dfcc       $stateUnwindMap$?option@VImage@vips@@SAPEAVVOption@2@XZ 0000000180046fcc     VError.obj
 0002:0000dfd8       $ip2state$?option@VImage@vips@@SAPEAVVOption@2@XZ 0000000180046fd8     VError.obj
 0002:0000dfe8       $unwind$__DestructExceptionObject$filt$0 0000000180046fe8     libvcruntime:ehhelpers.obj
 0002:0000dfe8       $unwind$?dtor$0@?0??sequential@VImage@vips@@QEBA?AV12@PEAVVOption@2@@Z@4HA 0000000180046fe8     VImage.obj
 0002:0000dfe8       $unwind$?dtor$0@?0??bandunfold@VImage@vips@@QEBA?AV12@PEAVVOption@2@@Z@4HA 0000000180046fe8     VImage.obj
 0002:0000dfe8       $unwind$?dtor$0@?0??mask_fractal@VImage@vips@@SA?AV12@HHNPEAVVOption@2@@Z@4HA 0000000180046fe8     VImage.obj
 0002:0000dfe8       $unwind$?dtor$0@?0??scRGB2BW@VImage@vips@@QEBA?AV12@PEAVVOption@2@@Z@4HA 0000000180046fe8     VImage.obj
 0002:0000dfe8       $unwind$?dtor$0@?0??invfft@VImage@vips@@QEBA?AV12@PEAVVOption@2@@Z@4HA 0000000180046fe8     VImage.obj
 0002:0000dfe8       $unwind$?dtor$1@?0??dECMC@VImage@vips@@QEBA?AV12@V12@PEAVVOption@2@@Z@4HA 0000000180046fe8     VImage.obj
 0002:0000dfe8       $unwind$?filt$0@?0??FrameUnwindToState@__FrameHandler3@@SAXPEA_KPEAU_xDISPATCHER_CONTEXT@@PEBU_s_FuncInfo@@H@Z@4HA 0000000180046fe8     libvcruntime:frame.obj
 0002:0000dfe8       $unwind$?fin$1@?0??FrameUnwindToState@__FrameHandler3@@SAXPEA_KPEAU_xDISPATCHER_CONTEXT@@PEBU_s_FuncInfo@@H@Z@4HA 0000000180046fe8     libvcruntime:frame.obj
 0002:0000dfe8       $unwind$?dtor$1@?0??dE00@VImage@vips@@QEBA?AV12@V12@PEAVVOption@2@@Z@4HA 0000000180046fe8     VImage.obj
 0002:0000dfe8       $unwind$?dtor$0@?0??buildlut@VImage@vips@@QEBA?AV12@PEAVVOption@2@@Z@4HA 0000000180046fe8     VImage.obj
 0002:0000dfe8       $unwind$?dtor$1@?0??recomb@VImage@vips@@QEBA?AV12@V12@PEAVVOption@2@@Z@4HA 0000000180046fe8     VImage.obj
 0002:0000dfe8       $unwind$?dtor$1@?0??freqmult@VImage@vips@@QEBA?AV12@V12@PEAVVOption@2@@Z@4HA 0000000180046fe8     VImage.obj
 0002:0000dfe8       $unwind$?filt$0@?0??CxxCallCatchBlock@__FrameHandler3@@SAPEAXPEAU_EXCEPTION_RECORD@@@Z@4HA 0000000180046fe8     libvcruntime:frame.obj
 0002:0000dfe8       $unwind$__acrt_initialize_lowio$fin$0 0000000180046fe8     libucrt:ioinit.obj
 0002:0000dfe8       $unwind$?dtor$0@?0??hist_find@VImage@vips@@QEBA?AV12@PEAVVOption@2@@Z@4HA 0000000180046fe8     VImage.obj
 0002:0000dfe8       $unwind$?dtor$0@?0??autorot@VImage@vips@@QEBA?AV12@PEAVVOption@2@@Z@4HA 0000000180046fe8     VImage.obj
 0002:0000dfe8       $unwind$?dtor$1@?0??complex2@VImage@vips@@QEBA?AV12@V12@W4VipsOperationComplex2@@PEAVVOption@2@@Z@4HA 0000000180046fe8     VImage.obj
 0002:0000dfe8       $unwind$?dtor$0@?0??rot45@VImage@vips@@QEBA?AV12@PEAVVOption@2@@Z@4HA 0000000180046fe8     VImage.obj
 0002:0000dfe8       $unwind$?dtor$0@?0??spectrum@VImage@vips@@QEBA?AV12@PEAVVOption@2@@Z@4HA 0000000180046fe8     VImage.obj
 0002:0000dfe8       $unwind$?dtor$1@?0??dE76@VImage@vips@@QEBA?AV12@V12@PEAVVOption@2@@Z@4HA 0000000180046fe8     VImage.obj
 0002:0000dfe8       $unwind$?dtor$0@?0??thumbnail_image@VImage@vips@@QEBA?AV12@HPEAVVOption@2@@Z@4HA 0000000180046fe8     VImage.obj
 0002:0000dfe8       $unwind$?dtor$0@?0??sharpen@VImage@vips@@QEBA?AV12@PEAVVOption@2@@Z@4HA 0000000180046fe8     VImage.obj
 0002:0000dfe8       $unwind$?dtor$1@?0??math2@VImage@vips@@QEBA?AV12@V12@W4VipsOperationMath2@@PEAVVOption@2@@Z@4HA 0000000180046fe8     VImage.obj
 0002:0000dfe8       $unwind$?dtor$0@?0??openexrload@VImage@vips@@SA?AV12@PEADPEAVVOption@2@@Z@4HA 0000000180046fe8     VImage.obj
 0002:0000dfe8       $unwind$?dtor$0@?0??gaussmat@VImage@vips@@SA?AV12@NNPEAVVOption@2@@Z@4HA 0000000180046fe8     VImage.obj
 0002:0000dfe8       $unwind$?dtor$1@?0??phasecor@VImage@vips@@QEBA?AV12@V12@PEAVVOption@2@@Z@4HA 0000000180046fe8     VImage.obj
 0002:0000dfe8       $unwind$?dtor$0@?0??scRGB2sRGB@VImage@vips@@QEBA?AV12@PEAVVOption@2@@Z@4HA 0000000180046fe8     VImage.obj
 0002:0000dfe8       $unwind$raise$fin$0        0000000180046fe8     libucrt:signal.obj
 0002:0000dfe8       $unwind$?dtor$0@?0??flatten@VImage@vips@@QEBA?AV12@PEAVVOption@2@@Z@4HA 0000000180046fe8     VImage.obj
 0002:0000dfe8       $unwind$?dtor$0@?0??cast@VImage@vips@@QEBA?AV12@W4VipsBandFormat@@PEAVVOption@2@@Z@4HA 0000000180046fe8     VImage.obj
 0002:0000dfe8       $unwind$?fin$0@?0???$?RV<lambda_450d765d439847d4c735a33c368b5fc0>@@AEAV<lambda_44731a7d0e6d81c3e6aa82d741081786>@@V<lambda_601a2a7da3b7a96e9554ac7215c4b07c>@@@?$__crt_seh_guarded_call@P6AXH@Z@@QEAAP6AXH@Z$$QEAV<lambda_450d765d439847d4c735a33c368b5fc0>@@AEAV<lambda_44731a7d0e6d81c3e6aa82d741081786>@@$$QEAV<lambda_601a2a7da3b7a96e9554ac7215c4b07c>@@@Z@4HA 0000000180046fe8     libucrt:signal.obj
 0002:0000dfe8       $unwind$?dtor$0@?0??hist_find_ndim@VImage@vips@@QEBA?AV12@PEAVVOption@2@@Z@4HA 0000000180046fe8     VImage.obj
 0002:0000dfe8       $unwind$?dtor$1@?0??boolean@VImage@vips@@QEBA?AV12@V12@W4VipsOperationBoolean@@PEAVVOption@2@@Z@4HA 0000000180046fe8     VImage.obj
 0002:0000dfe8       $unwind$?dtor$0@?0??fitsload@VImage@vips@@SA?AV12@PEADPEAVVOption@2@@Z@4HA 0000000180046fe8     VImage.obj
 0002:0000dfe8       $unwind$?dtor$0@?0??labelregions@VImage@vips@@QEBA?AV12@PEAVVOption@2@@Z@4HA 0000000180046fe8     VImage.obj
 0002:0000dfe8       $unwind$?dtor$0@?0??icc_transform@VImage@vips@@QEBA?AV12@PEADPEAVVOption@2@@Z@4HA 0000000180046fe8     VImage.obj
 0002:0000dfe8       $unwind$?dtor$0@?0??invertlut@VImage@vips@@QEBA?AV12@PEAVVOption@2@@Z@4HA 0000000180046fe8     VImage.obj
 0002:0000dfe8       $unwind$?dtor$0@?0??icc_export@VImage@vips@@QEBA?AV12@PEAVVOption@2@@Z@4HA 0000000180046fe8     VImage.obj
 0002:0000dfe8       $unwind$?dtor$0@?0??magickload_buffer@VImage@vips@@SA?AV12@PEAU_VipsBlob@@PEAVVOption@2@@Z@4HA 0000000180046fe8     VImage.obj
 0002:0000dfe8       $unwind$?dtor$0@?0??pdfload@VImage@vips@@SA?AV12@PEADPEAVVOption@2@@Z@4HA 0000000180046fe8     VImage.obj
 0002:0000dfe8       $unwind$?dtor$0@?0??replicate@VImage@vips@@QEBA?AV12@HHPEAVVOption@2@@Z@4HA 0000000180046fe8     VImage.obj
 0002:0000dfe8       $unwind$?dtor$0@?0??fill_nearest@VImage@vips@@QEBA?AV12@PEAVVOption@2@@Z@4HA 0000000180046fe8     VImage.obj
 0002:0000dfe8       $unwind$?dtor$1@?0??mapim@VImage@vips@@QEBA?AV12@V12@PEAVVOption@2@@Z@4HA 0000000180046fe8     VImage.obj
 0002:0000dfe8       $unwind$?fin$0@?0???$?RV<lambda_842d9ff0dc9ef11c61343bbaebe7f885>@@AEAV<lambda_c5860995281e5c4ce005b3de8f5874ee>@@V<lambda_d90129c13df834fdcbf8d2b88dafcf2d>@@@?$__crt_seh_guarded_call@X@@QEAAX$$QEAV<lambda_842d9ff0dc9ef11c61343bbaebe7f885>@@AEAV<lambda_c5860995281e5c4ce005b3de8f5874ee>@@$$QEAV<lambda_d90129c13df834fdcbf8d2b88dafcf2d>@@@Z@4HA 0000000180046fe8     libucrt:fflush.obj
 0002:0000dfe8       $unwind$?dtor$0@?0??premultiply@VImage@vips@@QEBA?AV12@PEAVVOption@2@@Z@4HA 0000000180046fe8     VImage.obj
 0002:0000dfe8       $unwind$?dtor$2@?0??linear@VImage@vips@@QEBA?AV12@V?$vector@NV?$allocator@N@std@@@std@@0PEAVVOption@2@@Z@4HA 0000000180046fe8     VImage.obj
 0002:0000dfe8       $unwind$?dtor$0@?0??magickload@VImage@vips@@SA?AV12@PEADPEAVVOption@2@@Z@4HA 0000000180046fe8     VImage.obj
 0002:0000dfe8       $unwind$?dtor$1@?0??remainder@VImage@vips@@QEBA?AV12@V12@PEAVVOption@2@@Z@4HA 0000000180046fe8     VImage.obj
 0002:0000dfe8       $unwind$?fin$0@?0???$?RV<lambda_886d6c58226a84441f68b9f2b8217b83>@@AEAV<lambda_ab61a845afdef5b7c387490eaf3616ee>@@V<lambda_f7f22ab5edc0698d5f6905b0d3f44752>@@@?$__crt_seh_guarded_call@X@@QEAAX$$QEAV<lambda_886d6c58226a84441f68b9f2b8217b83>@@AEAV<lambda_ab61a845afdef5b7c387490eaf3616ee>@@$$QEAV<lambda_f7f22ab5edc0698d5f6905b0d3f44752>@@@Z@4HA 0000000180046fe8     libucrt:fflush.obj
 0002:0000dfe8       $unwind$?dtor$1@?0??maplut@VImage@vips@@QEBA?AV12@V12@PEAVVOption@2@@Z@4HA 0000000180046fe8     VImage.obj
 0002:0000dfe8       $unwind$?dtor$0@?0??reduce@VImage@vips@@QEBA?AV12@NNPEAVVOption@2@@Z@4HA 0000000180046fe8     VImage.obj
 0002:0000dfe8       $unwind$?dtor$0@?0??icc_import@VImage@vips@@QEBA?AV12@PEAVVOption@2@@Z@4HA 0000000180046fe8     VImage.obj
 0002:0000dfe8       $unwind$?dtor$0@?0??zone@VImage@vips@@SA?AV12@HHPEAVVOption@2@@Z@4HA 0000000180046fe8     VImage.obj
 0002:0000dfe8       $unwind$?dtor$1@?0??relational@VImage@vips@@QEBA?AV12@V12@W4VipsOperationRelational@@PEAVVOption@2@@Z@4HA 0000000180046fe8     VImage.obj
 0002:0000dfe8       $unwind$?dtor$0@?0??bandbool@VImage@vips@@QEBA?AV12@W4VipsOperationBoolean@@PEAVVOption@2@@Z@4HA 0000000180046fe8     VImage.obj
 0002:0000dfe8       $unwind$?dtor$0@?0??openslideload@VImage@vips@@SA?AV12@PEADPEAVVOption@2@@Z@4HA 0000000180046fe8     VImage.obj
 0002:0000dfe8       $unwind$?dtor$0@?0??grey@VImage@vips@@SA?AV12@HHPEAVVOption@2@@Z@4HA 0000000180046fe8     VImage.obj
 0002:0000dfe8       $unwind$?dtor$1@?0??complexform@VImage@vips@@QEBA?AV12@V12@PEAVVOption@2@@Z@4HA 0000000180046fe8     VImage.obj
 0002:0000dfe8       $unwind$?dtor$0@?0??sobel@VImage@vips@@QEBA?AV12@PEAVVOption@2@@Z@4HA 0000000180046fe8     VImage.obj
 0002:0000dfe8       $unwind$?dtor$1@?0??spcor@VImage@vips@@QEBA?AV12@V12@PEAVVOption@2@@Z@4HA 0000000180046fe8     VImage.obj
 0002:0000dfe8       $unwind$?dtor$0@?0??rank@VImage@vips@@QEBA?AV12@HHHPEAVVOption@2@@Z@4HA 0000000180046fe8     VImage.obj
 0002:0000dfe8       $unwind$?dtor$1@?0??sum@VImage@vips@@SA?AV12@V?$vector@VVImage@vips@@V?$allocator@VVImage@vips@@@std@@@std@@PEAVVOption@2@@Z@4HA 0000000180046fe8     VImage.obj
 0002:0000dfe8       $unwind$?dtor$0@?0??bandmean@VImage@vips@@QEBA?AV12@PEAVVOption@2@@Z@4HA 0000000180046fe8     VImage.obj
 0002:0000dfe8       $unwind$__acrt_update_thread_locale_data$fin$0 0000000180046fe8     libucrt:locale_refcounting.obj
 0002:0000dfe8       $unwind$?fin$0@?0??update_thread_multibyte_data_internal@@YAPEAU__crt_multibyte_data@@QEAU__acrt_ptd@@QEAPEAU1@@Z@4HA 0000000180046fe8     libucrt:mbctype.obj
 0002:0000dfe8       $unwind$?dtor$1@?0??hist_find_indexed@VImage@vips@@QEBA?AV12@V12@PEAVVOption@2@@Z@4HA 0000000180046fe8     VImage.obj
 0002:0000dfe8       $unwind$?fin$0@?0???$?RV<lambda_410d79af7f07d98d83a3f525b3859a53>@@AEAV<lambda_3e16ef9562a7dcce91392c22ab16ea36>@@V<lambda_38119f0e861e05405d8a144b9b982f0a>@@@?$__crt_seh_guarded_call@X@@QEAAX$$QEAV<lambda_410d79af7f07d98d83a3f525b3859a53>@@AEAV<lambda_3e16ef9562a7dcce91392c22ab16ea36>@@$$QEAV<lambda_38119f0e861e05405d8a144b9b982f0a>@@@Z@4HA 0000000180046fe8     libucrt:wsetlocale.obj
 0002:0000dfe8       $unwind$?dtor$0@?0??sines@VImage@vips@@SA?AV12@HHPEAVVOption@2@@Z@4HA 0000000180046fe8     VImage.obj
 0002:0000dfe8       $unwind$?dtor$0@?0??eye@VImage@vips@@SA?AV12@HHPEAVVOption@2@@Z@4HA 0000000180046fe8     VImage.obj
 0002:0000dfe8       $unwind$?dtor$1@?0??bandrank@VImage@vips@@SA?AV12@V?$vector@VVImage@vips@@V?$allocator@VVImage@vips@@@std@@@std@@PEAVVOption@2@@Z@4HA 0000000180046fe8     VImage.obj
 0002:0000dfe8       $unwind$?dtor$0@?0??unpremultiply@VImage@vips@@QEBA?AV12@PEAVVOption@2@@Z@4HA 0000000180046fe8     VImage.obj
 0002:0000dfe8       $unwind$?dtor$1@?0??divide@VImage@vips@@QEBA?AV12@V12@PEAVVOption@2@@Z@4HA 0000000180046fe8     VImage.obj
 0002:0000dfe8       $unwind$?dtor$0@?0??mask_gaussian_band@VImage@vips@@SA?AV12@HHNNNNPEAVVOption@2@@Z@4HA 0000000180046fe8     VImage.obj
 0002:0000dfe8       $unwind$?dtor$0@?0??tiffload_buffer@VImage@vips@@SA?AV12@PEAU_VipsBlob@@PEAVVOption@2@@Z@4HA 0000000180046fe8     VImage.obj
 0002:0000dfe8       $unwind$?dtor$0@?0??sRGB2HSV@VImage@vips@@QEBA?AV12@PEAVVOption@2@@Z@4HA 0000000180046fe8     VImage.obj
 0002:0000dfe8       $unwind$?fin$0@?0???$?RV<lambda_2d41944a1d46af3157314b8a01080d33>@@AEAV<lambda_8f455de75cd7d7f24b4096f044d8b9e6>@@V<lambda_aa500f224e6afead328df44964fe2772>@@@?$__crt_seh_guarded_call@X@@QEAAX$$QEAV<lambda_2d41944a1d46af3157314b8a01080d33>@@AEAV<lambda_8f455de75cd7d7f24b4096f044d8b9e6>@@$$QEAV<lambda_aa500f224e6afead328df44964fe2772>@@@Z@4HA 0000000180046fe8     libucrt:per_thread_data.obj
 0002:0000dfe8       $unwind$?dtor$0@?0??tiffload@VImage@vips@@SA?AV12@PEADPEAVVOption@2@@Z@4HA 0000000180046fe8     VImage.obj
 0002:0000dfe8       $unwind$?dtor$0@?0??stdif@VImage@vips@@QEBA?AV12@HHPEAVVOption@2@@Z@4HA 0000000180046fe8     VImage.obj
 0002:0000dfe8       $unwind$?dtor$0@?0??pdfload_buffer@VImage@vips@@SA?AV12@PEAU_VipsBlob@@PEAVVOption@2@@Z@4HA 0000000180046fe8     VImage.obj
 0002:0000dfe8       $unwind$?dtor$0@?0??math@VImage@vips@@QEBA?AV12@W4VipsOperationMath@@PEAVVOption@2@@Z@4HA 0000000180046fe8     VImage.obj
 0002:0000dfe8       $unwind$?dtor$1@?0??merge@VImage@vips@@QEBA?AV12@V12@W4VipsDirection@@HHPEAVVOption@2@@Z@4HA 0000000180046fe8     VImage.obj
 0002:0000dfe8       $unwind$?dtor$1@?0??bandjoin@VImage@vips@@SA?AV12@V?$vector@VVImage@vips@@V?$allocator@VVImage@vips@@@std@@@std@@PEAVVOption@2@@Z@4HA 0000000180046fe8     VImage.obj
 0002:0000dfe8       $unwind$?dtor$0@?0??mask_ideal@VImage@vips@@SA?AV12@HHNPEAVVOption@2@@Z@4HA 0000000180046fe8     VImage.obj
 0002:0000dfe8       $unwind$?dtor$0@?0??LabQ2sRGB@VImage@vips@@QEBA?AV12@PEAVVOption@2@@Z@4HA 0000000180046fe8     VImage.obj
 0002:0000dfe8       $unwind$?dtor$0@?0??webpload_buffer@VImage@vips@@SA?AV12@PEAU_VipsBlob@@PEAVVOption@2@@Z@4HA 0000000180046fe8     VImage.obj
 0002:0000dfe8       $unwind$?dtor$1@?0??boolean_const@VImage@vips@@QEBA?AV12@W4VipsOperationBoolean@@V?$vector@NV?$allocator@N@std@@@std@@PEAVVOption@2@@Z@4HA 0000000180046fe8     VImage.obj
 0002:0000dfe8       $unwind$?fin$0@?0???$?RV<lambda_f2e299630e499de9f9a165e60fcd3db5>@@AEAV<lambda_2ae9d31cdba2644fcbeaf08da7c24588>@@V<lambda_40d01ff24d0e7b3814fdbdcee8eab3c7>@@@?$__crt_seh_guarded_call@X@@QEAAX$$QEAV<lambda_f2e299630e499de9f9a165e60fcd3db5>@@AEAV<lambda_2ae9d31cdba2644fcbeaf08da7c24588>@@$$QEAV<lambda_40d01ff24d0e7b3814fdbdcee8eab3c7>@@@Z@4HA 0000000180046fe8     libucrt:per_thread_data.obj
 0002:0000dfe8       $unwind$?dtor$1@?0??mosaic@VImage@vips@@QEBA?AV12@V12@W4VipsDirection@@HHHHPEAVVOption@2@@Z@4HA 0000000180046fe8     VImage.obj
 0002:0000dfe8       $unwind$?dtor$0@?0??gamma@VImage@vips@@QEBA?AV12@PEAVVOption@2@@Z@4HA 0000000180046fe8     VImage.obj
 0002:0000dfe8       $unwind$?dtor$0@?0??canny@VImage@vips@@QEBA?AV12@PEAVVOption@2@@Z@4HA 0000000180046fe8     VImage.obj
 0002:0000dfe8       $unwind$?dtor$0@?0??hough_line@VImage@vips@@QEBA?AV12@PEAVVOption@2@@Z@4HA 0000000180046fe8     VImage.obj
 0002:0000dfe8       $unwind$?dtor$0@?0??bandfold@VImage@vips@@QEBA?AV12@PEAVVOption@2@@Z@4HA 0000000180046fe8     VImage.obj
 0002:0000dfe8       $unwind$?dtor$0@?0??abs@VImage@vips@@QEBA?AV12@PEAVVOption@2@@Z@4HA 0000000180046fe8     VImage.obj
 0002:0000dfe8       $unwind$?dtor$0@?0??grid@VImage@vips@@QEBA?AV12@HHHPEAVVOption@2@@Z@4HA 0000000180046fe8     VImage.obj
 0002:0000dfe8       $unwind$?dtor$1@?0??mosaic1@VImage@vips@@QEBA?AV12@V12@W4VipsDirection@@HHHHHHHHPEAVVOption@2@@Z@4HA 0000000180046fe8     VImage.obj
 0002:0000dfe8       $unwind$?dtor$0@?0??xyz@VImage@vips@@SA?AV12@HHPEAVVOption@2@@Z@4HA 0000000180046fe8     VImage.obj
 0002:0000dfe8       $unwind$?dtor$0@?0??float2rad@VImage@vips@@QEBA?AV12@PEAVVOption@2@@Z@4HA 0000000180046fe8     VImage.obj
 0002:0000dfe8       $unwind$?dtor$1@?0??fastcor@VImage@vips@@QEBA?AV12@V12@PEAVVOption@2@@Z@4HA 0000000180046fe8     VImage.obj
 0002:0000dfe8       $unwind$?dtor$0@?0??mask_gaussian@VImage@vips@@SA?AV12@HHNNPEAVVOption@2@@Z@4HA 0000000180046fe8     VImage.obj
 0002:0000dfe8       $unwind$?dtor$0@?0??sRGB2scRGB@VImage@vips@@QEBA?AV12@PEAVVOption@2@@Z@4HA 0000000180046fe8     VImage.obj
 0002:0000dfe8       $unwind$_IsNonwritableInCurrentImage$filt$0 0000000180046fe8     LIBCMT:pesect.obj
 0002:0000dfe8       $unwind$?dtor$1@?0??match@VImage@vips@@QEBA?AV12@V12@HHHHHHHHPEAVVOption@2@@Z@4HA 0000000180046fe8     VImage.obj
 0002:0000dfe8       $unwind$?dtor$0@?0??reducev@VImage@vips@@QEBA?AV12@NPEAVVOption@2@@Z@4HA 0000000180046fe8     VImage.obj
 0002:0000dfe8       $unwind$?dtor$0@?0??thumbnail_buffer@VImage@vips@@SA?AV12@PEAU_VipsBlob@@HPEAVVOption@2@@Z@4HA 0000000180046fe8     VImage.obj
 0002:0000dfe8       $unwind$?dtor$0@?0??stats@VImage@vips@@QEBA?AV12@PEAVVOption@2@@Z@4HA 0000000180046fe8     VImage.obj
 0002:0000dfe8       $unwind$?fin$0@?0???$?RV<lambda_aa87e3671a710a21b5dc78c0bdf72e11>@@AEAV<lambda_92619d2358a28f41a33ba319515a20b9>@@V<lambda_6992ecaafeb10aed2b74cb1fae11a551>@@@?$__crt_seh_guarded_call@X@@QEAAX$$QEAV<lambda_aa87e3671a710a21b5dc78c0bdf72e11>@@AEAV<lambda_92619d2358a28f41a33ba319515a20b9>@@$$QEAV<lambda_6992ecaafeb10aed2b74cb1fae11a551>@@@Z@4HA 0000000180046fe8     libucrt:per_thread_data.obj
 0002:0000dfe8       $unwind$?dtor$0@?0??hist_cum@VImage@vips@@QEBA?AV12@PEAVVOption@2@@Z@4HA 0000000180046fe8     VImage.obj
 0002:0000dfe8       $unwind$?dtor$0@?0??round@VImage@vips@@QEBA?AV12@W4VipsOperationRound@@PEAVVOption@2@@Z@4HA 0000000180046fe8     VImage.obj
 0002:0000dfe8       $unwind$?dtor$0@?0??globalbalance@VImage@vips@@QEBA?AV12@PEAVVOption@2@@Z@4HA 0000000180046fe8     VImage.obj
 0002:0000dfe8       $unwind$?dtor$0@?0??logmat@VImage@vips@@SA?AV12@NNPEAVVOption@2@@Z@4HA 0000000180046fe8     VImage.obj
 0002:0000dfe8       $unwind$?dtor$0@?0??extract_band@VImage@vips@@QEBA?AV12@HPEAVVOption@2@@Z@4HA 0000000180046fe8     VImage.obj
 0002:0000dfe8       $unwind$?dtor$1@?0??quadratic@VImage@vips@@QEBA?AV12@V12@PEAVVOption@2@@Z@4HA 0000000180046fe8     VImage.obj
 0002:0000dfe8       $unwind$?dtor$0@?0??option@VImage@vips@@SAPEAVVOption@2@XZ@4HA 0000000180046fe8     VError.obj
 0002:0000dfe8       $unwind$?dtor$1@?0??multiply@VImage@vips@@QEBA?AV12@V12@PEAVVOption@2@@Z@4HA 0000000180046fe8     VImage.obj
 0002:0000dfe8       $unwind$?dtor$0@?0??transpose3d@VImage@vips@@QEBA?AV12@PEAVVOption@2@@Z@4HA 0000000180046fe8     VImage.obj
 0002:0000dfe8       $unwind$?dtor$0@?0??bandsplit@VImage@vips@@QEBA?AV?$vector@VVImage@vips@@V?$allocator@VVImage@vips@@@std@@@std@@PEAVVOption@2@@Z@4HA 0000000180046fe8     VImage.obj
 0002:0000dfe8       $unwind$?dtor$0@?0??sign@VImage@vips@@QEBA?AV12@PEAVVOption@2@@Z@4HA 0000000180046fe8     VImage.obj
 0002:0000dfe8       $unwind$?dtor$1@?0??conv@VImage@vips@@QEBA?AV12@V12@PEAVVOption@2@@Z@4HA 0000000180046fe8     VImage.obj
 0002:0000dfe8       $unwind$?dtor$0@?0??fwfft@VImage@vips@@QEBA?AV12@PEAVVOption@2@@Z@4HA 0000000180046fe8     VImage.obj
 0002:0000dfe8       $unwind$?fin$0@?0???$?RV<lambda_0ae27a3a962d80f24befdcbee591983d>@@AEAV<lambda_8d0ee55de4b1038c4002e0adecdf1839>@@V<lambda_dc504788e8f1664fe9b84e20bfb512f2>@@@?$__crt_seh_guarded_call@X@@QEAAX$$QEAV<lambda_0ae27a3a962d80f24befdcbee591983d>@@AEAV<lambda_8d0ee55de4b1038c4002e0adecdf1839>@@$$QEAV<lambda_dc504788e8f1664fe9b84e20bfb512f2>@@@Z@4HA 0000000180046fe8     libucrt:per_thread_data.obj
 0002:0000dfe8       $unwind$?dtor$0@?0??HSV2sRGB@VImage@vips@@QEBA?AV12@PEAVVOption@2@@Z@4HA 0000000180046fe8     VImage.obj
 0002:0000dfe8       $unwind$?dtor$0@?0??gaussblur@VImage@vips@@QEBA?AV12@NPEAVVOption@2@@Z@4HA 0000000180046fe8     VImage.obj
 0002:0000dfe8       $unwind$?dtor$6@?0??bandjoin@VImage@vips@@QEBA?AV12@V12@PEAVVOption@2@@Z@4HA 0000000180046fe8     VImage.obj
 0002:0000dfe8       $unwind$?dtor$1@?0??affine@VImage@vips@@QEBA?AV12@V?$vector@NV?$allocator@N@std@@@std@@PEAVVOption@2@@Z@4HA 0000000180046fe8     VImage.obj
 0002:0000dfe8       $unwind$?dtor$3@?0??bandjoin@VImage@vips@@QEBA?AV12@V12@PEAVVOption@2@@Z@4HA 0000000180046fe8     VImage.obj
 0002:0000dfe8       $unwind$?dtor$0@?0??LCh2CMC@VImage@vips@@QEBA?AV12@PEAVVOption@2@@Z@4HA 0000000180046fe8     VImage.obj
 0002:0000dfe8       $unwind$__acrt_lowio_ensure_fh_exists$fin$0 0000000180046fe8     libucrt:osfinfo.obj
 0002:0000dfe8       $unwind$?dtor$0@?0??hough_circle@VImage@vips@@QEBA?AV12@PEAVVOption@2@@Z@4HA 0000000180046fe8     VImage.obj
 0002:0000dfe8       $unwind$?dtor$0@?0??thumbnail@VImage@vips@@SA?AV12@PEADHPEAVVOption@2@@Z@4HA 0000000180046fe8     VImage.obj
 0002:0000dfe8       $unwind$?dtor$0@?0??identity@VImage@vips@@SA?AV12@PEAVVOption@2@@Z@4HA 0000000180046fe8     VImage.obj
 0002:0000dfe8       $unwind$?dtor$0@?0??scale@VImage@vips@@QEBA?AV12@PEAVVOption@2@@Z@4HA 0000000180046fe8     VImage.obj
 0002:0000dfe8       $unwind$?dtor$8@?0??composite@VImage@vips@@QEBA?AV12@V12@W4VipsBlendMode@@PEAVVOption@2@@Z@4HA 0000000180046fe8     VImage.obj
 0002:0000dfe8       $unwind$?dtor$1@?0??math2_const@VImage@vips@@QEBA?AV12@W4VipsOperationMath2@@V?$vector@NV?$allocator@N@std@@@std@@PEAVVOption@2@@Z@4HA 0000000180046fe8     VImage.obj
 0002:0000dfe8       $unwind$?dtor$3@?0??composite@VImage@vips@@QEBA?AV12@V12@W4VipsBlendMode@@PEAVVOption@2@@Z@4HA 0000000180046fe8     VImage.obj
 0002:0000dfe8       $unwind$?dtor$0@?0??rot@VImage@vips@@QEBA?AV12@W4VipsAngle@@PEAVVOption@2@@Z@4HA 0000000180046fe8     VImage.obj
 0002:0000dfe8       $unwind$?dtor$1@?0??relational_const@VImage@vips@@QEBA?AV12@W4VipsOperationRelational@@V?$vector@NV?$allocator@N@std@@@std@@PEAVVOption@2@@Z@4HA 0000000180046fe8     VImage.obj
 0002:0000dfe8       $unwind$?dtor$2@?0??composite@VImage@vips@@SA?AV12@V?$vector@VVImage@vips@@V?$allocator@VVImage@vips@@@std@@@std@@V?$vector@HV?$allocator@H@std@@@4@PEAVVOption@2@@Z@4HA 0000000180046fe8     VImage.obj
 0002:0000dfe8       $unwind$?dtor$0@?0??similarity@VImage@vips@@QEBA?AV12@PEAVVOption@2@@Z@4HA 0000000180046fe8     VImage.obj
 0002:0000dfe8       $unwind$?dtor$0@?0??rad2float@VImage@vips@@QEBA?AV12@PEAVVOption@2@@Z@4HA 0000000180046fe8     VImage.obj
 0002:0000dfe8       $unwind$?fin$0@?0???$?RV<lambda_efdfa57d1f175319df784efa44bb7b81>@@AEAV<lambda_5f0a4c1567f8adc6734073e5d1e1b35c>@@V<lambda_2e8a7d3640ea6ccb4c2413664c2db6fd>@@@?$__crt_seh_guarded_call@X@@QEAAX$$QEAV<lambda_efdfa57d1f175319df784efa44bb7b81>@@AEAV<lambda_5f0a4c1567f8adc6734073e5d1e1b35c>@@$$QEAV<lambda_2e8a7d3640ea6ccb4c2413664c2db6fd>@@@Z@4HA 0000000180046fe8     libucrt:mbctype.obj
 0002:0000dfe8       $unwind$?dtor$0@?0??analyzeload@VImage@vips@@SA?AV12@PEADPEAVVOption@2@@Z@4HA 0000000180046fe8     VImage.obj
 0002:0000dfe8       $unwind$?dtor$0@?0??webpload@VImage@vips@@SA?AV12@PEADPEAVVOption@2@@Z@4HA 0000000180046fe8     VImage.obj
 0002:0000dfe8       $unwind$?dtor$0@?0??smartcrop@VImage@vips@@QEBA?AV12@HHPEAVVOption@2@@Z@4HA 0000000180046fe8     VImage.obj
 0002:0000dfe8       $unwind$?dtor$0@?0??text@VImage@vips@@SA?AV12@PEADPEAVVOption@2@@Z@4HA 0000000180046fe8     VImage.obj
 0002:0000dfe8       $unwind$?dtor$1@?0??convasep@VImage@vips@@QEBA?AV12@V12@PEAVVOption@2@@Z@4HA 0000000180046fe8     VImage.obj
 0002:0000dfe8       $unwind$?dtor$0@?0??gifload@VImage@vips@@SA?AV12@PEADPEAVVOption@2@@Z@4HA 0000000180046fe8     VImage.obj
 0002:0000dfe8       $unwind$?dtor$0@?0??wrap@VImage@vips@@QEBA?AV12@PEAVVOption@2@@Z@4HA 0000000180046fe8     VImage.obj
 0002:0000dfe8       $unwind$?fin$0@?0???$?RV<lambda_7777bce6b2f8c936911f934f8298dc43>@@AEAV<lambda_f03950bc5685219e0bcd2087efbe011e>@@V<lambda_3883c3dff614d5e0c5f61bb1ac94921c>@@@?$__crt_seh_guarded_call@H@@QEAAH$$QEAV<lambda_7777bce6b2f8c936911f934f8298dc43>@@AEAV<lambda_f03950bc5685219e0bcd2087efbe011e>@@$$QEAV<lambda_3883c3dff614d5e0c5f61bb1ac94921c>@@@Z@4HA 0000000180046fe8     libucrt:onexit.obj
 0002:0000dfe8       $unwind$?fin$0@?0???$?RV<lambda_a37b2b86f63e897a80ea819b0eb08c01>@@AEAV<lambda_38ce7e780aa69e748d6df282ebc68efe>@@V<lambda_99fb1378e971ab6e7edea83e3a7a83a2>@@@?$__crt_seh_guarded_call@H@@QEAAH$$QEAV<lambda_a37b2b86f63e897a80ea819b0eb08c01>@@AEAV<lambda_38ce7e780aa69e748d6df282ebc68efe>@@$$QEAV<lambda_99fb1378e971ab6e7edea83e3a7a83a2>@@@Z@4HA 0000000180046fe8     libucrt:commit.obj
 0002:0000dfe8       $unwind$?dtor$0@?0??mask_butterworth_band@VImage@vips@@SA?AV12@HHNNNNNPEAVVOption@2@@Z@4HA 0000000180046fe8     VImage.obj
 0002:0000dfe8       $unwind$?dtor$0@?0??vipsload@VImage@vips@@SA?AV12@PEADPEAVVOption@2@@Z@4HA 0000000180046fe8     VImage.obj
 0002:0000dfe8       $unwind$?dtor$1@?0??subtract@VImage@vips@@QEBA?AV12@V12@PEAVVOption@2@@Z@4HA 0000000180046fe8     VImage.obj
 0002:0000dfe8       $unwind$?dtor$1@?0??remainder_const@VImage@vips@@QEBA?AV12@V?$vector@NV?$allocator@N@std@@@std@@PEAVVOption@2@@Z@4HA 0000000180046fe8     VImage.obj
 0002:0000dfe8       $unwind$?dtor$1@?0??hist_match@VImage@vips@@QEBA?AV12@V12@PEAVVOption@2@@Z@4HA 0000000180046fe8     VImage.obj
 0002:0000dfe8       $unwind$?dtor$0@?0??reduceh@VImage@vips@@QEBA?AV12@NPEAVVOption@2@@Z@4HA 0000000180046fe8     VImage.obj
 0002:0000dfe8       $unwind$?dtor$0@?0??linecache@VImage@vips@@QEBA?AV12@PEAVVOption@2@@Z@4HA 0000000180046fe8     VImage.obj
 0002:0000dfe8       $unwind$?dtor$0@?0??Lab2LCh@VImage@vips@@QEBA?AV12@PEAVVOption@2@@Z@4HA 0000000180046fe8     VImage.obj
 0002:0000dfe8       $unwind$?fin$0@?0???$?RV<lambda_751a882b2c74d4b022dec766aa51a29a>@@AEAV<lambda_628dfdc04ba53c8bfc02c9951375f3f5>@@V<lambda_f6c7be5f7998530c34de24c7437d6b54>@@@?$__crt_seh_guarded_call@H@@QEAAH$$QEAV<lambda_751a882b2c74d4b022dec766aa51a29a>@@AEAV<lambda_628dfdc04ba53c8bfc02c9951375f3f5>@@$$QEAV<lambda_f6c7be5f7998530c34de24c7437d6b54>@@@Z@4HA 0000000180046fe8     libucrt:close.obj
 0002:0000dfe8       $unwind$?dtor$0@?0??cache@VImage@vips@@QEBA?AV12@PEAVVOption@2@@Z@4HA 0000000180046fe8     VImage.obj
 0002:0000dfe8       $unwind$?dtor$0@?0??project@VImage@vips@@QEBA?AV12@PEAV12@PEAVVOption@2@@Z@4HA 0000000180046fe8     VImage.obj
 0002:0000dfe8       $unwind$?dtor$0@?0??complex@VImage@vips@@QEBA?AV12@W4VipsOperationComplex@@PEAVVOption@2@@Z@4HA 0000000180046fe8     VImage.obj
 0002:0000dfe8       $unwind$?dtor$1@?0??conva@VImage@vips@@QEBA?AV12@V12@PEAVVOption@2@@Z@4HA 0000000180046fe8     VImage.obj
 0002:0000dfe8       $unwind$?dtor$0@?0??shrink@VImage@vips@@QEBA?AV12@NNPEAVVOption@2@@Z@4HA 0000000180046fe8     VImage.obj
 0002:0000dfe8       $unwind$?dtor$0@?0??new_from_file@VImage@vips@@SA?AV12@PEBDPEAVVOption@2@@Z@4HA 0000000180046fe8     VImage.obj
 0002:0000dfe8       $unwind$?dtor$0@?0??rotate@VImage@vips@@QEBA?AV12@NPEAVVOption@2@@Z@4HA 0000000180046fe8     VImage.obj
 0002:0000dfe8       $unwind$?dtor$0@?0??gifload_buffer@VImage@vips@@SA?AV12@PEAU_VipsBlob@@PEAVVOption@2@@Z@4HA 0000000180046fe8     VImage.obj
 0002:0000dfe8       $unwind$?dtor$1@?0??composite2@VImage@vips@@QEBA?AV12@V12@W4VipsBlendMode@@PEAVVOption@2@@Z@4HA 0000000180046fe8     VImage.obj
 0002:0000dfe8       $unwind$?dtor$0@?0??invert@VImage@vips@@QEBA?AV12@PEAVVOption@2@@Z@4HA 0000000180046fe8     VImage.obj
 0002:0000dfe8       $unwind$_write$fin$0       0000000180046fe8     libucrt:write.obj
 0002:0000dfe8       $unwind$?dtor$1@?0??convsep@VImage@vips@@QEBA?AV12@V12@PEAVVOption@2@@Z@4HA 0000000180046fe8     VImage.obj
 0002:0000dfe8       $unwind$?dtor$0@?0??tonelut@VImage@vips@@SA?AV12@PEAVVOption@2@@Z@4HA 0000000180046fe8     VImage.obj
 0002:0000dfe8       $unwind$?dtor$1@?0??morph@VImage@vips@@QEBA?AV12@V12@W4VipsOperationMorphology@@PEAVVOption@2@@Z@4HA 0000000180046fe8     VImage.obj
 0002:0000dfe8       $unwind$?dtor$0@?0??falsecolour@VImage@vips@@QEBA?AV12@PEAVVOption@2@@Z@4HA 0000000180046fe8     VImage.obj
 0002:0000dfe8       $unwind$?dtor$0@?0??embed@VImage@vips@@QEBA?AV12@HHHHPEAVVOption@2@@Z@4HA 0000000180046fe8     VImage.obj
 0002:0000dfe8       $unwind$?dtor$0@?0??XYZ2Lab@VImage@vips@@QEBA?AV12@PEAVVOption@2@@Z@4HA 0000000180046fe8     VImage.obj
 0002:0000dfe8       $unwind$?dtor$0@?0??zoom@VImage@vips@@QEBA?AV12@HHPEAVVOption@2@@Z@4HA 0000000180046fe8     VImage.obj
 0002:0000dfe8       $unwind$?dtor$0@?0??svgload@VImage@vips@@SA?AV12@PEADPEAVVOption@2@@Z@4HA 0000000180046fe8     VImage.obj
 0002:0000dfe8       $unwind$?dtor$0@?0??Lab2LabS@VImage@vips@@QEBA?AV12@PEAVVOption@2@@Z@4HA 0000000180046fe8     VImage.obj
 0002:0000dfe8       $unwind$?dtor$0@?0??svgload_buffer@VImage@vips@@SA?AV12@PEAU_VipsBlob@@PEAVVOption@2@@Z@4HA 0000000180046fe8     VImage.obj
 0002:0000dfe8       $unwind$?dtor$0@?0??profile@VImage@vips@@QEBA?AV12@PEAV12@PEAVVOption@2@@Z@4HA 0000000180046fe8     VImage.obj
 0002:0000dfe8       $unwind$_query_new_handler$fin$0 0000000180046fe8     libucrt:new_handler.obj
 0002:0000dfe8       $unwind$?dtor$0@?0??jpegload_buffer@VImage@vips@@SA?AV12@PEAU_VipsBlob@@PEAVVOption@2@@Z@4HA 0000000180046fe8     VImage.obj
 0002:0000dfe8       $unwind$?dtor$1@?0??add@VImage@vips@@QEBA?AV12@V12@PEAVVOption@2@@Z@4HA 0000000180046fe8     VImage.obj
 0002:0000dfe8       $unwind$?dtor$0@?0??hist_norm@VImage@vips@@QEBA?AV12@PEAVVOption@2@@Z@4HA 0000000180046fe8     VImage.obj
 0002:0000dfe8       $unwind$?dtor$0@?0??LabS2Lab@VImage@vips@@QEBA?AV12@PEAVVOption@2@@Z@4HA 0000000180046fe8     VImage.obj
 0002:0000dfe8       $unwind$_fcloseall$fin$0   0000000180046fe8     libucrt:closeall.obj
 0002:0000dfe8       $unwind$?dtor$0@?0??mask_gaussian_ring@VImage@vips@@SA?AV12@HHNNNPEAVVOption@2@@Z@4HA 0000000180046fe8     VImage.obj
 0002:0000dfe8       $unwind$?dtor$0@?0??ppmload@VImage@vips@@SA?AV12@PEADPEAVVOption@2@@Z@4HA 0000000180046fe8     VImage.obj
 0002:0000dfe8       $unwind$?dtor$0@?0??gravity@VImage@vips@@QEBA?AV12@W4VipsCompassDirection@@HHPEAVVOption@2@@Z@4HA 0000000180046fe8     VImage.obj
 0002:0000dfe8       $unwind$?dtor$0@?0??mask_butterworth_ring@VImage@vips@@SA?AV12@HHNNNNPEAVVOption@2@@Z@4HA 0000000180046fe8     VImage.obj
 0002:0000dfe8       $unwind$?dtor$0@?0??resize@VImage@vips@@QEBA?AV12@NPEAVVOption@2@@Z@4HA 0000000180046fe8     VImage.obj
 0002:0000dfe8       $unwind$?dtor$0@?0??Lab2XYZ@VImage@vips@@QEBA?AV12@PEAVVOption@2@@Z@4HA 0000000180046fe8     VImage.obj
 0002:0000dfe8       $unwind$?dtor$0@?0??black@VImage@vips@@SA?AV12@HHPEAVVOption@2@@Z@4HA 0000000180046fe8     VImage.obj
 0002:0000dfe8       $unwind$?dtor$0@?0??CMC2LCh@VImage@vips@@QEBA?AV12@PEAVVOption@2@@Z@4HA 0000000180046fe8     VImage.obj
 0002:0000dfe8       $unwind$?dtor$1@?0??bandjoin_const@VImage@vips@@QEBA?AV12@V?$vector@NV?$allocator@N@std@@@std@@PEAVVOption@2@@Z@4HA 0000000180046fe8     VImage.obj
 0002:0000dfe8       $unwind$?dtor$0@?0??complexget@VImage@vips@@QEBA?AV12@W4VipsOperationComplexget@@PEAVVOption@2@@Z@4HA 0000000180046fe8     VImage.obj
 0002:0000dfe8       $unwind$?dtor$0@?0??LabS2LabQ@VImage@vips@@QEBA?AV12@PEAVVOption@2@@Z@4HA 0000000180046fe8     VImage.obj
 0002:0000dfe8       $unwind$?dtor$2@?0??ifthenelse@VImage@vips@@QEBA?AV12@V12@0PEAVVOption@2@@Z@4HA 0000000180046fe8     VImage.obj
 0002:0000dfe8       $unwind$?fin$0@?0??dllmain_crt_process_detach@@YAH_N@Z@4HA 0000000180046fe8     LIBCMT:dll_dllmain.obj
 0002:0000dfe8       $unwind$?dtor$1@?0??compass@VImage@vips@@QEBA?AV12@V12@PEAVVOption@2@@Z@4HA 0000000180046fe8     VImage.obj
 0002:0000dfe8       $unwind$?dtor$0@?0??jpegload@VImage@vips@@SA?AV12@PEADPEAVVOption@2@@Z@4HA 0000000180046fe8     VImage.obj
 0002:0000dfe8       $unwind$?dtor$0@?0??fractsurf@VImage@vips@@SA?AV12@HHNPEAVVOption@2@@Z@4HA 0000000180046fe8     VImage.obj
 0002:0000dfe8       $unwind$?fin$0@?0??dllmain_crt_process_attach@@YAHQEAUHINSTANCE__@@QEAX@Z@4HA 0000000180046fe8     LIBCMT:dll_dllmain.obj
 0002:0000dfe8       $unwind$?dtor$0@?0??radload@VImage@vips@@SA?AV12@PEADPEAVVOption@2@@Z@4HA 0000000180046fe8     VImage.obj
 0002:0000dfe8       $unwind$?dtor$0@?0??subsample@VImage@vips@@QEBA?AV12@HHPEAVVOption@2@@Z@4HA 0000000180046fe8     VImage.obj
 0002:0000dfe8       $unwind$?dtor$0@?0??LabQ2LabS@VImage@vips@@QEBA?AV12@PEAVVOption@2@@Z@4HA 0000000180046fe8     VImage.obj
 0002:0000dfe8       $unwind$?dtor$0@?0??matload@VImage@vips@@SA?AV12@PEADPEAVVOption@2@@Z@4HA 0000000180046fe8     VImage.obj
 0002:0000dfe8       $unwind$?dtor$0@?0??hist_equal@VImage@vips@@QEBA?AV12@PEAVVOption@2@@Z@4HA 0000000180046fe8     VImage.obj
 0002:0000dfe8       $unwind$?dtor$0@?0??measure@VImage@vips@@QEBA?AV12@HHPEAVVOption@2@@Z@4HA 0000000180046fe8     VImage.obj
 0002:0000dfe8       $unwind$fclose$fin$0       0000000180046fe8     libucrt:fclose.obj
 0002:0000dfe8       $unwind$?dtor$0@?0??mask_ideal_ring@VImage@vips@@SA?AV12@HHNNPEAVVOption@2@@Z@4HA 0000000180046fe8     VImage.obj
 0002:0000dfe8       $unwind$?dtor$0@?0??Lab2LabQ@VImage@vips@@QEBA?AV12@PEAVVOption@2@@Z@4HA 0000000180046fe8     VImage.obj
 0002:0000dfe8       $unwind$?dtor$0@?0??shrinkv@VImage@vips@@QEBA?AV12@HPEAVVOption@2@@Z@4HA 0000000180046fe8     VImage.obj
 0002:0000dfe8       $unwind$?dtor$0@?0??LabQ2Lab@VImage@vips@@QEBA?AV12@PEAVVOption@2@@Z@4HA 0000000180046fe8     VImage.obj
 0002:0000dfe8       $unwind$?dtor$0@?0??worley@VImage@vips@@SA?AV12@HHPEAVVOption@2@@Z@4HA 0000000180046fe8     VImage.obj
 0002:0000dfe8       $unwind$?dtor$0@?0??XYZ2scRGB@VImage@vips@@QEBA?AV12@PEAVVOption@2@@Z@4HA 0000000180046fe8     VImage.obj
 0002:0000dfe8       $unwind$?filt$0@?0???R<lambda_6e4b09c48022b2350581041d5f6b0c4c>@@QEBA@XZ@4HA 0000000180046fe8     libucrt:exit.obj
 0002:0000dfe8       $unwind$?dtor$0@?0??shrinkh@VImage@vips@@QEBA?AV12@HPEAVVOption@2@@Z@4HA 0000000180046fe8     VImage.obj
 0002:0000dfe8       $unwind$?dtor$0@?0??rawload@VImage@vips@@SA?AV12@PEADHHHPEAVVOption@2@@Z@4HA 0000000180046fe8     VImage.obj
 0002:0000dfe8       $unwind$?dtor$0@?0??scRGB2XYZ@VImage@vips@@QEBA?AV12@PEAVVOption@2@@Z@4HA 0000000180046fe8     VImage.obj
 0002:0000dfe8       $unwind$?fin$0@?0???$?RV<lambda_d80eeec6fff315bfe5c115232f3240e3>@@AEAV<lambda_6e4b09c48022b2350581041d5f6b0c4c>@@V<lambda_2358e3775559c9db80273638284d5e45>@@@?$__crt_seh_guarded_call@X@@QEAAX$$QEAV<lambda_d80eeec6fff315bfe5c115232f3240e3>@@AEAV<lambda_6e4b09c48022b2350581041d5f6b0c4c>@@$$QEAV<lambda_2358e3775559c9db80273638284d5e45>@@@Z@4HA 0000000180046fe8     libucrt:exit.obj
 0002:0000dfe8       $unwind$?dtor$0@?0??pngload_buffer@VImage@vips@@SA?AV12@PEAU_VipsBlob@@PEAVVOption@2@@Z@4HA 0000000180046fe8     VImage.obj
 0002:0000dfe8       $unwind$?dtor$0@?0??perlin@VImage@vips@@SA?AV12@HHPEAVVOption@2@@Z@4HA 0000000180046fe8     VImage.obj
 0002:0000dfe8       $unwind$?dtor$0@?0??extract_area@VImage@vips@@QEBA?AV12@HHHHPEAVVOption@2@@Z@4HA 0000000180046fe8     VImage.obj
 0002:0000dfe8       $unwind$?dtor$0@?0??getpoint@VImage@vips@@QEBA?AV?$vector@NV?$allocator@N@std@@@std@@HHPEAVVOption@2@@Z@4HA 0000000180046fe8     VImage.obj
 0002:0000dfe8       $unwind$?dtor$0@?0??msb@VImage@vips@@QEBA?AV12@PEAVVOption@2@@Z@4HA 0000000180046fe8     VImage.obj
 0002:0000dfe8       $unwind$?dtor$0@?0??Yxy2XYZ@VImage@vips@@QEBA?AV12@PEAVVOption@2@@Z@4HA 0000000180046fe8     VImage.obj
 0002:0000dfe8       $unwind$?dtor$0@?0??gaussnoise@VImage@vips@@SA?AV12@HHPEAVVOption@2@@Z@4HA 0000000180046fe8     VImage.obj
 0002:0000dfe8       $unwind$?filt$0@?0??__ArrayUnwind@@YAXPEAX_K1P6AX0@Z@Z@4HA 0000000180046fe8     LIBCMT:ehvecdtr.obj
 0002:0000dfe8       $unwind$?dtor$1@?0??convi@VImage@vips@@QEBA?AV12@V12@PEAVVOption@2@@Z@4HA 0000000180046fe8     VImage.obj
 0002:0000dfe8       $unwind$?dtor$0@?0??flip@VImage@vips@@QEBA?AV12@W4VipsDirection@@PEAVVOption@2@@Z@4HA 0000000180046fe8     VImage.obj
 0002:0000dfe8       $unwind$?dtor$0@?0??csvload@VImage@vips@@SA?AV12@PEADPEAVVOption@2@@Z@4HA 0000000180046fe8     VImage.obj
 0002:0000dfe8       $unwind$?dtor$0@?0??hist_plot@VImage@vips@@QEBA?AV12@PEAVVOption@2@@Z@4HA 0000000180046fe8     VImage.obj
 0002:0000dfe8       $unwind$?dtor$0@?0??mask_butterworth@VImage@vips@@SA?AV12@HHNNNPEAVVOption@2@@Z@4HA 0000000180046fe8     VImage.obj
 0002:0000dfe8       $unwind$?dtor$0@?0??XYZ2Yxy@VImage@vips@@QEBA?AV12@PEAVVOption@2@@Z@4HA 0000000180046fe8     VImage.obj
 0002:0000dfe8       $unwind$?fin$0@?0???_M@YAXPEAX_K1P6AX0@Z@Z@4HA 0000000180046fe8     LIBCMT:ehvecdtr.obj
 0002:0000dfe8       $unwind$?dtor$1@?0??arrayjoin@VImage@vips@@SA?AV12@V?$vector@VVImage@vips@@V?$allocator@VVImage@vips@@@std@@@std@@PEAVVOption@2@@Z@4HA 0000000180046fe8     VImage.obj
 0002:0000dfe8       $unwind$?dtor$0@?0??pngload@VImage@vips@@SA?AV12@PEADPEAVVOption@2@@Z@4HA 0000000180046fe8     VImage.obj
 0002:0000dfe8       $unwind$?dtor$1@?0??convf@VImage@vips@@QEBA?AV12@V12@PEAVVOption@2@@Z@4HA 0000000180046fe8     VImage.obj
 0002:0000dfe8       $unwind$?dtor$0@?0??copy@VImage@vips@@QEBA?AV12@PEAVVOption@2@@Z@4HA 0000000180046fe8     VImage.obj
 0002:0000dfe8       $unwind$?dtor$0@?0??hist_local@VImage@vips@@QEBA?AV12@HHPEAVVOption@2@@Z@4HA 0000000180046fe8     VImage.obj
 0002:0000dfe8       $unwind$?dtor$0@?0??matrixload@VImage@vips@@SA?AV12@PEADPEAVVOption@2@@Z@4HA 0000000180046fe8     VImage.obj
 0002:0000dfe8       $unwind$?dtor$0@?0??mask_ideal_band@VImage@vips@@SA?AV12@HHNNNPEAVVOption@2@@Z@4HA 0000000180046fe8     VImage.obj
 0002:0000dfe8       $unwind$?dtor$0@?0??new_from_buffer@VImage@vips@@SA?AV12@PEAX_KPEBDPEAVVOption@2@@Z@4HA 0000000180046fe8     VImage.obj
 0002:0000dfe8       $unwind$?dtor$0@?0??tilecache@VImage@vips@@QEBA?AV12@PEAVVOption@2@@Z@4HA 0000000180046fe8     VImage.obj
 0002:0000dfe8       $unwind$?dtor$1@?0??insert@VImage@vips@@QEBA?AV12@V12@HHPEAVVOption@2@@Z@4HA 0000000180046fe8     VImage.obj
 0002:0000dfe8       $unwind$?dtor$0@?0??colourspace@VImage@vips@@QEBA?AV12@W4VipsInterpretation@@PEAVVOption@2@@Z@4HA 0000000180046fe8     VImage.obj
 0002:0000dfe8       $unwind$?dtor$1@?0??join@VImage@vips@@QEBA?AV12@V12@W4VipsDirection@@PEAVVOption@2@@Z@4HA 0000000180046fe8     VImage.obj
 0002:0000dfe8       $unwind$_ctrlfp$filt$0     0000000180046fe8     libucrt:fpctrl.obj
 0002:0000dfe8       $unwind$?dtor$0@?0??byteswap@VImage@vips@@QEBA?AV12@PEAVVOption@2@@Z@4HA 0000000180046fe8     VImage.obj
 0002:0000dfe8       $unwind$?dtor$0@?0??LCh2Lab@VImage@vips@@QEBA?AV12@PEAVVOption@2@@Z@4HA 0000000180046fe8     VImage.obj
 0002:0000dff0       $unwind$?new_matrix@VImage@vips@@SA?AV12@HHPEANH@Z 0000000180046ff0     VError.obj
 0002:0000dff0       $unwind$?new_temp_file@VImage@vips@@SA?AV12@PEBD@Z 0000000180046ff0     VError.obj
 0002:0000e000       $unwind$?new_from_image@VImage@vips@@QEBA?AV12@V?$vector@NV?$allocator@N@std@@@std@@@Z 0000000180047000     VError.obj
 0002:0000e01c       $stateUnwindMap$?new_from_image@VImage@vips@@QEBA?AV12@V?$vector@NV?$allocator@N@std@@@std@@@Z 000000018004701c     VError.obj
 0002:0000e028       $ip2state$?new_from_image@VImage@vips@@QEBA?AV12@V?$vector@NV?$allocator@N@std@@@std@@@Z 0000000180047028     VError.obj
 0002:0000e040       $unwind$?new_from_image@VImage@vips@@QEBA?AV12@N@Z 0000000180047040     VError.obj
 0002:0000e040       $unwind$_mbsdec_l          0000000180047040     libucrt:mbsdec.obj
 0002:0000e04c       $unwind$?write_to_memory@VImage@vips@@QEBAPEAXPEA_K@Z 000000018004704c     VError.obj
 0002:0000e060       $unwind$?linear@VImage@vips@@QEBA?AV12@NNPEAVVOption@2@@Z 0000000180047060     VError.obj
 0002:0000e078       $stateUnwindMap$?linear@VImage@vips@@QEBA?AV12@NNPEAVVOption@2@@Z 0000000180047078     VError.obj
 0002:0000e078       $stateUnwindMap$?ifthenelse@VImage@vips@@QEBA?AV12@NNPEAVVOption@2@@Z 0000000180047078     VError.obj
 0002:0000e080       $ip2state$?linear@VImage@vips@@QEBA?AV12@NNPEAVVOption@2@@Z 0000000180047080     VError.obj
 0002:0000e098       $unwind$?linear@VImage@vips@@QEBA?AV12@V?$vector@NV?$allocator@N@std@@@std@@NPEAVVOption@2@@Z 0000000180047098     VError.obj
 0002:0000e0b8       $stateUnwindMap$?linear@VImage@vips@@QEBA?AV12@V?$vector@NV?$allocator@N@std@@@std@@NPEAVVOption@2@@Z 00000001800470b8     VError.obj
 0002:0000e0c8       $ip2state$?linear@VImage@vips@@QEBA?AV12@V?$vector@NV?$allocator@N@std@@@std@@NPEAVVOption@2@@Z 00000001800470c8     VError.obj
 0002:0000e0e0       $unwind$?linear@VImage@vips@@QEBA?AV12@NV?$vector@NV?$allocator@N@std@@@std@@PEAVVOption@2@@Z 00000001800470e0     VError.obj
 0002:0000e108       $stateUnwindMap$?linear@VImage@vips@@QEBA?AV12@NV?$vector@NV?$allocator@N@std@@@std@@PEAVVOption@2@@Z 0000000180047108     VError.obj
 0002:0000e118       $ip2state$?linear@VImage@vips@@QEBA?AV12@NV?$vector@NV?$allocator@N@std@@@std@@PEAVVOption@2@@Z 0000000180047118     VError.obj
 0002:0000e130       $unwind$?bandjoin@VImage@vips@@QEBA?AV12@NPEAVVOption@2@@Z 0000000180047130     VError.obj
 0002:0000e140       $unwind$?bandjoin@VImage@vips@@QEBA?AV12@V?$vector@NV?$allocator@N@std@@@std@@PEAVVOption@2@@Z 0000000180047140     VError.obj
 0002:0000e160       $stateUnwindMap$?bandjoin@VImage@vips@@QEBA?AV12@V?$vector@NV?$allocator@N@std@@@std@@PEAVVOption@2@@Z 0000000180047160     VError.obj
 0002:0000e168       $ip2state$?bandjoin@VImage@vips@@QEBA?AV12@V?$vector@NV?$allocator@N@std@@@std@@PEAVVOption@2@@Z 0000000180047168     VError.obj
 0002:0000e178       $unwind$?dilate@VImage@vips@@QEBA?AV12@V12@PEAVVOption@2@@Z 0000000180047178     VError.obj
 0002:0000e190       $stateUnwindMap$??Ivips@@YA?AVVImage@0@NV10@@Z 0000000180047190     VImage.obj
 0002:0000e190       $stateUnwindMap$??Tvips@@YA?AVVImage@0@NV10@@Z 0000000180047190     VImage.obj
 0002:0000e190       $stateUnwindMap$?dilate@VImage@vips@@QEBA?AV12@V12@PEAVVOption@2@@Z 0000000180047190     VError.obj
 0002:0000e190       $stateUnwindMap$??Nvips@@YA?AVVImage@0@NV10@@Z 0000000180047190     VImage.obj
 0002:0000e190       $stateUnwindMap$?set@VOption@vips@@QEAAPEAV12@PEBDVVInterpolate@2@@Z 0000000180047190     VInterpolate.obj
 0002:0000e190       $stateUnwindMap$?ifthenelse@VImage@vips@@QEBA?AV12@V12@NPEAVVOption@2@@Z 0000000180047190     VError.obj
 0002:0000e190       $stateUnwindMap$??8vips@@YA?AVVImage@0@NV10@@Z 0000000180047190     VImage.obj
 0002:0000e190       $stateUnwindMap$?set@VOption@vips@@QEAAPEAV12@PEBDVVImage@2@@Z 0000000180047190     VImage.obj
 0002:0000e190       $stateUnwindMap$??Mvips@@YA?AVVImage@0@NV10@@Z 0000000180047190     VImage.obj
 0002:0000e190       $stateUnwindMap$??9vips@@YA?AVVImage@0@NV10@@Z 0000000180047190     VImage.obj
 0002:0000e190       $stateUnwindMap$??_0vips@@YAAEAVVImage@0@AEAV10@N@Z 0000000180047190     VImage.obj
 0002:0000e190       $stateUnwindMap$?wop@VImage@vips@@QEBA?AV12@V12@PEAVVOption@2@@Z 0000000180047190     VError.obj
 0002:0000e190       $stateUnwindMap$?pow@VImage@vips@@QEBA?AV12@V12@PEAVVOption@2@@Z 0000000180047190     VError.obj
 0002:0000e190       $stateUnwindMap$?erode@VImage@vips@@QEBA?AV12@V12@PEAVVOption@2@@Z 0000000180047190     VError.obj
 0002:0000e190       $stateUnwindMap$??Uvips@@YA?AVVImage@0@NV10@@Z 0000000180047190     VImage.obj
 0002:0000e190       $stateUnwindMap$??Ovips@@YA?AVVImage@0@NV10@@Z 0000000180047190     VImage.obj
 0002:0000e190       $stateUnwindMap$??Zvips@@YAAEAVVImage@0@AEAV10@N@Z 0000000180047190     VImage.obj
 0002:0000e190       $stateUnwindMap$??Pvips@@YA?AVVImage@0@NV10@@Z 0000000180047190     VImage.obj
 0002:0000e198       $ip2state$?dilate@VImage@vips@@QEBA?AV12@V12@PEAVVOption@2@@Z 0000000180047198     VError.obj
 0002:0000e1a0       $unwind$?erode@VImage@vips@@QEBA?AV12@V12@PEAVVOption@2@@Z 00000001800471a0     VError.obj
 0002:0000e1b8       $ip2state$?erode@VImage@vips@@QEBA?AV12@V12@PEAVVOption@2@@Z 00000001800471b8     VError.obj
 0002:0000e1c0       $unwind$?pow@VImage@vips@@QEBA?AV12@V12@PEAVVOption@2@@Z 00000001800471c0     VError.obj
 0002:0000e1d8       $ip2state$?pow@VImage@vips@@QEBA?AV12@V12@PEAVVOption@2@@Z 00000001800471d8     VError.obj
 0002:0000e1e0       $unwind$?pow@VImage@vips@@QEBA?AV12@NPEAVVOption@2@@Z 00000001800471e0     VError.obj
 0002:0000e1e0       $unwind$?wop@VImage@vips@@QEBA?AV12@NPEAVVOption@2@@Z 00000001800471e0     VError.obj
 0002:0000e1f0       $unwind$?pow@VImage@vips@@QEBA?AV12@V?$vector@NV?$allocator@N@std@@@std@@PEAVVOption@2@@Z 00000001800471f0     VError.obj
 0002:0000e210       $stateUnwindMap$?pow@VImage@vips@@QEBA?AV12@V?$vector@NV?$allocator@N@std@@@std@@PEAVVOption@2@@Z 0000000180047210     VError.obj
 0002:0000e210       $stateUnwindMap$?wop@VImage@vips@@QEBA?AV12@V?$vector@NV?$allocator@N@std@@@std@@PEAVVOption@2@@Z 0000000180047210     VError.obj
 0002:0000e218       $ip2state$?pow@VImage@vips@@QEBA?AV12@V?$vector@NV?$allocator@N@std@@@std@@PEAVVOption@2@@Z 0000000180047218     VError.obj
 0002:0000e228       $unwind$?wop@VImage@vips@@QEBA?AV12@V12@PEAVVOption@2@@Z 0000000180047228     VError.obj
 0002:0000e240       $ip2state$?wop@VImage@vips@@QEBA?AV12@V12@PEAVVOption@2@@Z 0000000180047240     VError.obj
 0002:0000e248       $unwind$?wop@VImage@vips@@QEBA?AV12@V?$vector@NV?$allocator@N@std@@@std@@PEAVVOption@2@@Z 0000000180047248     VError.obj
 0002:0000e268       $ip2state$?wop@VImage@vips@@QEBA?AV12@V?$vector@NV?$allocator@N@std@@@std@@PEAVVOption@2@@Z 0000000180047268     VError.obj
 0002:0000e278       $unwind$?ifthenelse@VImage@vips@@QEBA?AV12@V?$vector@NV?$allocator@N@std@@@std@@V12@PEAVVOption@2@@Z 0000000180047278     VError.obj
 0002:0000e298       $stateUnwindMap$?ifthenelse@VImage@vips@@QEBA?AV12@V?$vector@NV?$allocator@N@std@@@std@@V12@PEAVVOption@2@@Z 0000000180047298     VError.obj
 0002:0000e2b0       $ip2state$?ifthenelse@VImage@vips@@QEBA?AV12@V?$vector@NV?$allocator@N@std@@@std@@V12@PEAVVOption@2@@Z 00000001800472b0     VError.obj
 0002:0000e2c8       $unwind$?ifthenelse@VImage@vips@@QEBA?AV12@V12@V?$vector@NV?$allocator@N@std@@@std@@PEAVVOption@2@@Z 00000001800472c8     VError.obj
 0002:0000e2e8       $stateUnwindMap$?ifthenelse@VImage@vips@@QEBA?AV12@V12@V?$vector@NV?$allocator@N@std@@@std@@PEAVVOption@2@@Z 00000001800472e8     VError.obj
 0002:0000e2f8       $ip2state$?ifthenelse@VImage@vips@@QEBA?AV12@V12@V?$vector@NV?$allocator@N@std@@@std@@PEAVVOption@2@@Z 00000001800472f8     VError.obj
 0002:0000e308       $unwind$?ifthenelse@VImage@vips@@QEBA?AV12@V?$vector@NV?$allocator@N@std@@@std@@0PEAVVOption@2@@Z 0000000180047308     VError.obj
 0002:0000e328       $stateUnwindMap$?ifthenelse@VImage@vips@@QEBA?AV12@V?$vector@NV?$allocator@N@std@@@std@@0PEAVVOption@2@@Z 0000000180047328     VError.obj
 0002:0000e340       $ip2state$?ifthenelse@VImage@vips@@QEBA?AV12@V?$vector@NV?$allocator@N@std@@@std@@0PEAVVOption@2@@Z 0000000180047340     VError.obj
 0002:0000e360       $unwind$?ifthenelse@VImage@vips@@QEBA?AV12@NV12@PEAVVOption@2@@Z 0000000180047360     VError.obj
 0002:0000e37c       $stateUnwindMap$?ifthenelse@VImage@vips@@QEBA?AV12@NV12@PEAVVOption@2@@Z 000000018004737c     VError.obj
 0002:0000e390       $ip2state$?ifthenelse@VImage@vips@@QEBA?AV12@NV12@PEAVVOption@2@@Z 0000000180047390     VError.obj
 0002:0000e3a0       $unwind$?ifthenelse@VImage@vips@@QEBA?AV12@V12@NPEAVVOption@2@@Z 00000001800473a0     VError.obj
 0002:0000e3b8       $ip2state$?ifthenelse@VImage@vips@@QEBA?AV12@V12@NPEAVVOption@2@@Z 00000001800473b8     VError.obj
 0002:0000e3c8       $unwind$?ifthenelse@VImage@vips@@QEBA?AV12@NNPEAVVOption@2@@Z 00000001800473c8     VError.obj
 0002:0000e3e0       $ip2state$?ifthenelse@VImage@vips@@QEBA?AV12@NNPEAVVOption@2@@Z 00000001800473e0     VError.obj
 0002:0000e3f8       $unwind$??0?$basic_string@DU?$char_traits@D@std@@V?$allocator@D@2@@std@@QEAA@AEBV01@@Z 00000001800473f8     VError.obj
 0002:0000e40c       $chain$0$?_Buy@?$vector@NV?$allocator@N@std@@@std@@AEAA_N_K@Z 000000018004740c     VError.obj
 0002:0000e420       $chain$3$?_Buy@?$vector@NV?$allocator@N@std@@@std@@AEAA_N_K@Z 0000000180047420     VError.obj
 0002:0000e420       $chain$1$?_Buy@?$vector@NV?$allocator@N@std@@@std@@AEAA_N_K@Z 0000000180047420     VError.obj
 0002:0000e430       $chain$2$?_Buy@?$vector@NV?$allocator@N@std@@@std@@AEAA_N_K@Z 0000000180047430     VError.obj
 0002:0000e444       $unwind$?assign@?$basic_string@DU?$char_traits@D@std@@V?$allocator@D@2@@std@@QEAAAEAV12@QEBD_K@Z 0000000180047444     VError.obj
 0002:0000e458       $chain$0$?assign@?$basic_string@DU?$char_traits@D@std@@V?$allocator@D@2@@std@@QEAAAEAV12@QEBD_K@Z 0000000180047458     VError.obj
 0002:0000e46c       $chain$1$?assign@?$basic_string@DU?$char_traits@D@std@@V?$allocator@D@2@@std@@QEAAAEAV12@QEBD_K@Z 000000018004746c     VError.obj
 0002:0000e47c       $chain$2$?assign@?$basic_string@DU?$char_traits@D@std@@V?$allocator@D@2@@std@@QEAAAEAV12@QEBD_K@Z 000000018004747c     VError.obj
 0002:0000e490       $unwind$?append@?$basic_string@DU?$char_traits@D@std@@V?$allocator@D@2@@std@@QEAAAEAV12@QEBD_K@Z 0000000180047490     VError.obj
 0002:0000e49c       $chain$0$?append@?$basic_string@DU?$char_traits@D@std@@V?$allocator@D@2@@std@@QEAAAEAV12@QEBD_K@Z 000000018004749c     VError.obj
 0002:0000e4b0       $chain$1$?append@?$basic_string@DU?$char_traits@D@std@@V?$allocator@D@2@@std@@QEAAAEAV12@QEBD_K@Z 00000001800474b0     VError.obj
 0002:0000e4c0       $unwind$__report_rangecheckfailure 00000001800474c0     LIBCMT:gs_report.obj
 0002:0000e4c0       $unwind$?_Xlength@?$vector@HV?$allocator@H@std@@@std@@CAXXZ 00000001800474c0     VImage.obj
 0002:0000e4c0       $unwind$__vcrt_uninitialize 00000001800474c0     libvcruntime:initialization.obj
 0002:0000e4c0       $unwind$__vcrt_freefls     00000001800474c0     libvcruntime:per_thread_data.obj
 0002:0000e4c0       $unwind$?GetCurrentState@__FrameHandler3@@SAHPEA_KPEAU_xDISPATCHER_CONTEXT@@PEBU_s_FuncInfo@@@Z 00000001800474c0     libvcruntime:ehstate.obj
 0002:0000e4c0       $unwind$?dllmain_crt_dispatch@@YAHQEAUHINSTANCE__@@KQEAX@Z 00000001800474c0     LIBCMT:dll_dllmain.obj
 0002:0000e4c0       $unwind$__acrt_uninitialize 00000001800474c0     libucrt:initialization.obj
 0002:0000e4c0       $unwind$__acrt_uninitialize_critical 00000001800474c0     libucrt:initialization.obj
 0002:0000e4c0       $unwind$?_Xlength@?$vector@VVImage@vips@@V?$allocator@VVImage@vips@@@std@@@std@@CAXXZ 00000001800474c0     VImage.obj
 0002:0000e4c0       $unwind$__vcrt_uninitialize_critical 00000001800474c0     libvcruntime:initialization.obj
 0002:0000e4c0       $unwind$__scrt_initialize_default_local_stdio_options 00000001800474c0     LIBCMT:default_local_stdio_options.obj
 0002:0000e4c0       $unwind$__acrt_thread_attach 00000001800474c0     libucrt:initialization.obj
 0002:0000e4c0       $unwind$_get_osfhandle     00000001800474c0     libucrt:osfinfo.obj
 0002:0000e4c0       $unwind$__acrt_DownlevelLocaleNameToLCID 00000001800474c0     libucrt:lcidtoname_downlevel.obj
 0002:0000e4c0       $unwind$__scrt_acquire_startup_lock 00000001800474c0     LIBCMT:utility.obj
 0002:0000e4c0       $unwind$_invoke_watson     00000001800474c0     libucrt:invalid_parameter.obj
 0002:0000e4c0       $unwind$__acrt_initialize_command_line 00000001800474c0     libucrt:argv_data.obj
 0002:0000e4c0       $unwind$_msize_base        00000001800474c0     libucrt:msize.obj
 0002:0000e4c0       $unwind$initialize_c       00000001800474c0     libucrt:initialization.obj
 0002:0000e4c0       $unwind$?_Xlen@?$basic_string@DU?$char_traits@D@std@@V?$allocator@D@2@@std@@SAXXZ 00000001800474c0     VError.obj
 0002:0000e4c0       $unwind$?initialize_multibyte@@YAHXZ 00000001800474c0     libucrt:multibyte_initializer.obj
 0002:0000e4c0       $unwind$__scrt_dllmain_before_initialize_c 00000001800474c0     LIBCMT:utility.obj
 0002:0000e4c0       $unwind$__FrameUnwindFilter 00000001800474c0     libvcruntime:ehhelpers.obj
 0002:0000e4c0       $unwind$__acrt_uninitialize_ptd 00000001800474c0     libucrt:per_thread_data.obj
 0002:0000e4c0       $unwind$__scrt_dllmain_after_initialize_c 00000001800474c0     LIBCMT:utility.obj
 0002:0000e4c0       $unwind$uninitialize_environment 00000001800474c0     libucrt:initialization.obj
 0002:0000e4c0       $unwind$__std_terminate    00000001800474c0     libvcruntime:ehhelpers.obj
 0002:0000e4c0       $unwind$__acrt_initialize_ptd 00000001800474c0     libucrt:per_thread_data.obj
 0002:0000e4c0       $unwind$__acrt_initialize_heap 00000001800474c0     libucrt:heap_handle.obj
 0002:0000e4c0       $unwind$_set_errno_from_matherr 00000001800474c0     libucrt:fpexcept.obj
 0002:0000e4c0       $unwind$__scrt_dllmain_uninitialize_c 00000001800474c0     LIBCMT:utility.obj
 0002:0000e4c0       $unwind$__vcrt_thread_attach 00000001800474c0     libvcruntime:initialization.obj
 0002:0000e4c0       $unwind$__vcrt_thread_detach 00000001800474c0     libvcruntime:initialization.obj
 0002:0000e4c0       $unwind$__dcrt_terminate_console_output 00000001800474c0     libucrt:initcon.obj
 0002:0000e4c0       $unwind$__acrt_initialize_multibyte 00000001800474c0     libucrt:mbctype.obj
 0002:0000e4c0       $unwind$_isatty            00000001800474c0     libucrt:isatty.obj
 0002:0000e4c0       $unwind$uninitialize_allocated_io_buffers 00000001800474c0     libucrt:initialization.obj
 0002:0000e4c0       $unwind$__vcrt_initialize_ptd 00000001800474c0     libvcruntime:per_thread_data.obj
 0002:0000e4c0       $unwind$_statfp            00000001800474c0     libucrt:fpctrl.obj
 0002:0000e4c0       $unwind$abort              00000001800474c0     libucrt:abort.obj
 0002:0000e4c0       $unwind$__scrt_dllmain_uninitialize_critical 00000001800474c0     LIBCMT:utility.obj
 0002:0000e4c0       $unwind$??$uninitialize_environment_internal@_W@@YAXAEAPEAPEA_W@Z 00000001800474c0     libucrt:environment_initialization.obj
 0002:0000e4c0       $unwind$??$uninitialize_environment_internal@D@@YAXAEAPEAPEAD@Z 00000001800474c0     libucrt:environment_initialization.obj
 0002:0000e4c0       $unwind$__GSHandlerCheck   00000001800474c0     LIBCMT:_gshandler_.obj
 0002:0000e4c0       $unwind$?__c32rtomb_utf8@__crt_mbstring@@YA_KPEAD_UPEAU_Mbstatet@@@Z 00000001800474c0     libucrt:c32rtomb.obj
 0002:0000e4c0       $unwind$__vcrt_uninitialize_ptd 00000001800474c0     libvcruntime:per_thread_data.obj
 0002:0000e4c0       $unwind$__scrt_dllmain_crt_thread_attach 00000001800474c0     LIBCMT:utility.obj
 0002:0000e4c0       $unwind$__scrt_dllmain_crt_thread_detach 00000001800474c0     LIBCMT:utility.obj
